---
triple:          'arm64-apple-darwin'
binary-path:     '/data/sandcastle/boxes/eden-trunk-hg-fbobjc-fbsource/fbobjc/ios-sdk/AHSDK/build/DerivedData/simulator/Build/Intermediates.noindex/ArchiveIntermediates/AHSDK-Dynamic-Framework/InstallationBuildProductsLocation/@rpath/AHSDK.framework/AHSDK'
relocations:
  - { offset: 0x23, size: 0x8, addend: 0x0, symName: '+[AHSDKCrashPad sharedInstance]', symObjAddr: 0x0, symBinAddr: 0x1B68, symSize: 0x30 }
  - { offset: 0x36, size: 0x8, addend: 0x0, symName: '+[AHSDKCrashPad sharedInstance]', symObjAddr: 0x0, symBinAddr: 0x1B68, symSize: 0x30 }
  - { offset: 0x61, size: 0x8, addend: 0x0, symName: '+[AHSDKCrashPad sharedInstance].cold.1', symObjAddr: 0x1F7C, symBinAddr: 0x1B7F28, symSize: 0x14 }
  - { offset: 0x76, size: 0x8, addend: 0x0, symName: '+[AHSDKCrashPad sharedInstance].cold.1', symObjAddr: 0x1F7C, symBinAddr: 0x1B7F28, symSize: 0x14 }
  - { offset: 0x87, size: 0x8, addend: 0x0, symName: '___31+[AHSDKCrashPad sharedInstance]_block_invoke', symObjAddr: 0x30, symBinAddr: 0x1B98, symSize: 0x2C }
  - { offset: 0x98, size: 0x8, addend: 0x0, symName: '-[AHSDKCrashPad init]', symObjAddr: 0x5C, symBinAddr: 0x1BC4, symSize: 0x80 }
  - { offset: 0xBF, size: 0x8, addend: 0x0, symName: '-[AHSDKCrashPad clearCachedMinidumps]', symObjAddr: 0xDC, symBinAddr: 0x1C44, symSize: 0x10 }
  - { offset: 0xD0, size: 0x8, addend: 0x0, symName: '-[AHSDKCrashPad clearCachedCallStackDumps]', symObjAddr: 0xEC, symBinAddr: 0x1C54, symSize: 0x10 }
  - { offset: 0xE1, size: 0x8, addend: 0x0, symName: '-[AHSDKCrashPad dealloc]', symObjAddr: 0xFC, symBinAddr: 0x1C64, symSize: 0x4C }
  - { offset: 0xF2, size: 0x8, addend: 0x0, symName: '+[AHSDKCrashPad rootPath]', symObjAddr: 0x148, symBinAddr: 0x1CB0, symSize: 0x30 }
  - { offset: 0x11D, size: 0x8, addend: 0x0, symName: '+[AHSDKCrashPad rootPath].cold.1', symObjAddr: 0x1F90, symBinAddr: 0x1B7F3C, symSize: 0x14 }
  - { offset: 0x132, size: 0x8, addend: 0x0, symName: '+[AHSDKCrashPad rootPath].cold.1', symObjAddr: 0x1F90, symBinAddr: 0x1B7F3C, symSize: 0x14 }
  - { offset: 0x143, size: 0x8, addend: 0x0, symName: '___25+[AHSDKCrashPad rootPath]_block_invoke', symObjAddr: 0x178, symBinAddr: 0x1CE0, symSize: 0xB8 }
  - { offset: 0x169, size: 0x8, addend: 0x0, symName: '+[AHSDKCrashPad pendingMiniDumps]', symObjAddr: 0x230, symBinAddr: 0x1D98, symSize: 0x290 }
  - { offset: 0x17A, size: 0x8, addend: 0x0, symName: '+[AHSDKCrashPad pendingCallStackDumps]', symObjAddr: 0x4C0, symBinAddr: 0x2028, symSize: 0x290 }
  - { offset: 0x251, size: 0x8, addend: 0x0, symName: '+[AHSDKCrashPad install:]', symObjAddr: 0x750, symBinAddr: 0x22B8, symSize: 0x330 }
  - { offset: 0xBD1, size: 0x8, addend: 0x0, symName: __ZNSt3__112basic_stringIcNS_11char_traitsIcEENS_9allocatorIcEEEC2B8ne190102ILi0EEEPKc, symObjAddr: 0x1D08, symBinAddr: 0x3870, symSize: 0xA8 }
  - { offset: 0xD03, size: 0x8, addend: 0x0, symName: __ZNKSt3__112basic_stringIcNS_11char_traitsIcEENS_9allocatorIcEEE20__throw_length_errorB8ne190102Ev, symObjAddr: 0x1DB0, symBinAddr: 0x3918, symSize: 0x14 }
  - { offset: 0xD0D, size: 0x8, addend: 0x0, symName: __ZNSt3__16__treeINS_12__value_typeINS_12basic_stringIcNS_11char_traitsIcEENS_9allocatorIcEEEES7_EENS_19__map_value_compareIS7_S8_NS_4lessIS7_EELb1EEENS5_IS8_EEE7destroyEPNS_11__tree_nodeIS8_PvEE, symObjAddr: 0x1C7C, symBinAddr: 0x37E4, symSize: 0x48 }
  - { offset: 0xDC7, size: 0x8, addend: 0x0, symName: '___25+[AHSDKCrashPad install:]_block_invoke', symObjAddr: 0xA80, symBinAddr: 0x25E8, symSize: 0x4 }
  - { offset: 0xDD8, size: 0x8, addend: 0x0, symName: '+[AHSDKCrashPad processMinidumpReports:]', symObjAddr: 0xA84, symBinAddr: 0x25EC, symSize: 0x118 }
  - { offset: 0xE15, size: 0x8, addend: 0x0, symName: '___40+[AHSDKCrashPad processMinidumpReports:]_block_invoke', symObjAddr: 0xB9C, symBinAddr: 0x2704, symSize: 0xBC }
  - { offset: 0xE3B, size: 0x8, addend: 0x0, symName: '___40+[AHSDKCrashPad processMinidumpReports:]_block_invoke_2', symObjAddr: 0xC58, symBinAddr: 0x27C0, symSize: 0x9C }
  - { offset: 0xFE0, size: 0x8, addend: 0x0, symName: ___copy_helper_block_ea8_32s40b, symObjAddr: 0xCF4, symBinAddr: 0x285C, symSize: 0x34 }
  - { offset: 0xFED, size: 0x8, addend: 0x0, symName: ___destroy_helper_block_ea8_32s40s, symObjAddr: 0xD28, symBinAddr: 0x2890, symSize: 0x28 }
  - { offset: 0xFFA, size: 0x8, addend: 0x0, symName: '+[AHSDKCrashPad processCallStackDumpReports:]', symObjAddr: 0xD50, symBinAddr: 0x28B8, symSize: 0x118 }
  - { offset: 0x1030, size: 0x8, addend: 0x0, symName: '___45+[AHSDKCrashPad processCallStackDumpReports:]_block_invoke', symObjAddr: 0xE68, symBinAddr: 0x29D0, symSize: 0xBC }
  - { offset: 0x104F, size: 0x8, addend: 0x0, symName: '___45+[AHSDKCrashPad processCallStackDumpReports:]_block_invoke_2', symObjAddr: 0xF24, symBinAddr: 0x2A8C, symSize: 0x64 }
  - { offset: 0x106C, size: 0x8, addend: 0x0, symName: '+[AHSDKCrashPad removeSingleMiniDump:completion:]', symObjAddr: 0xF88, symBinAddr: 0x2AF0, symSize: 0x170 }
  - { offset: 0x107D, size: 0x8, addend: 0x0, symName: '___49+[AHSDKCrashPad removeSingleMiniDump:completion:]_block_invoke', symObjAddr: 0x10F8, symBinAddr: 0x2C60, symSize: 0x14 }
  - { offset: 0x109A, size: 0x8, addend: 0x0, symName: ___copy_helper_block_ea8_32b, symObjAddr: 0x110C, symBinAddr: 0x2C74, symSize: 0x10 }
  - { offset: 0x10A7, size: 0x8, addend: 0x0, symName: ___destroy_helper_block_ea8_32s, symObjAddr: 0x111C, symBinAddr: 0x2C84, symSize: 0x8 }
  - { offset: 0x10B4, size: 0x8, addend: 0x0, symName: '+[AHSDKCrashPad removeSingleCallstackDump:completion:]', symObjAddr: 0x1124, symBinAddr: 0x2C8C, symSize: 0x170 }
  - { offset: 0x10C5, size: 0x8, addend: 0x0, symName: '___54+[AHSDKCrashPad removeSingleCallstackDump:completion:]_block_invoke', symObjAddr: 0x1294, symBinAddr: 0x2DFC, symSize: 0x14 }
  - { offset: 0x10E2, size: 0x8, addend: 0x0, symName: '+[AHSDKCrashPad removeMiniDumpsWithCompletion:]', symObjAddr: 0x12A8, symBinAddr: 0x2E10, symSize: 0x10C }
  - { offset: 0x10F3, size: 0x8, addend: 0x0, symName: '___47+[AHSDKCrashPad removeMiniDumpsWithCompletion:]_block_invoke', symObjAddr: 0x13B4, symBinAddr: 0x2F1C, symSize: 0x84 }
  - { offset: 0x1110, size: 0x8, addend: 0x0, symName: '+[AHSDKCrashPad removeCallStackDumpsWithCompletion:]', symObjAddr: 0x1438, symBinAddr: 0x2FA0, symSize: 0x10C }
  - { offset: 0x1121, size: 0x8, addend: 0x0, symName: '___52+[AHSDKCrashPad removeCallStackDumpsWithCompletion:]_block_invoke', symObjAddr: 0x1544, symBinAddr: 0x30AC, symSize: 0x84 }
  - { offset: 0x113E, size: 0x8, addend: 0x0, symName: '+[AHSDKCrashPad removeFile:completion:]', symObjAddr: 0x15C8, symBinAddr: 0x3130, symSize: 0x118 }
  - { offset: 0x1168, size: 0x8, addend: 0x0, symName: '___39+[AHSDKCrashPad removeFile:completion:]_block_invoke', symObjAddr: 0x16E0, symBinAddr: 0x3248, symSize: 0xAC }
  - { offset: 0x1185, size: 0x8, addend: 0x0, symName: '+[AHSDKCrashPad removeFilesFromDirectory:completion:]', symObjAddr: 0x178C, symBinAddr: 0x32F4, symSize: 0x110 }
  - { offset: 0x11AF, size: 0x8, addend: 0x0, symName: '___53+[AHSDKCrashPad removeFilesFromDirectory:completion:]_block_invoke', symObjAddr: 0x189C, symBinAddr: 0x3404, symSize: 0x298 }
  - { offset: 0x11D7, size: 0x8, addend: 0x0, symName: '+[AHSDKCrashPad dumpWithoutCrash]', symObjAddr: 0x1B34, symBinAddr: 0x369C, symSize: 0x30 }
  - { offset: 0x11FD, size: 0x8, addend: 0x0, symName: '+[AHSDKCrashPad demangleSwiftSymbol:]', symObjAddr: 0x1B64, symBinAddr: 0x36CC, symSize: 0xDC }
  - { offset: 0x126A, size: 0x8, addend: 0x0, symName: '-[AHSDKCrashPad .cxx_destruct]', symObjAddr: 0x1C40, symBinAddr: 0x37A8, symSize: 0x3C }
  - { offset: 0x128D, size: 0x8, addend: 0x0, symName: __ZNSt3__112__destroy_atB8ne190102INS_4pairIKNS_12basic_stringIcNS_11char_traitsIcEENS_9allocatorIcEEEES7_EELi0EEEvPT_, symObjAddr: 0x1CC4, symBinAddr: 0x382C, symSize: 0x44 }
  - { offset: 0x148B, size: 0x8, addend: 0x0, symName: __ZNKSt3__112basic_stringIcNS_11char_traitsIcEENS_9allocatorIcEEE20__throw_length_errorB8ne190102Ev, symObjAddr: 0x1DB0, symBinAddr: 0x3918, symSize: 0x14 }
  - { offset: 0x14A0, size: 0x8, addend: 0x0, symName: __ZNSt3__120__throw_length_errorB8ne190102EPKc, symObjAddr: 0x1DC4, symBinAddr: 0x392C, symSize: 0x50 }
  - { offset: 0x14AA, size: 0x8, addend: 0x0, symName: __ZNSt3__120__throw_length_errorB8ne190102EPKc, symObjAddr: 0x1DC4, symBinAddr: 0x392C, symSize: 0x50 }
  - { offset: 0x14C9, size: 0x8, addend: 0x0, symName: __ZNSt12length_errorC1B8ne190102EPKc, symObjAddr: 0x1E14, symBinAddr: 0x397C, symSize: 0x24 }
  - { offset: 0x14FB, size: 0x8, addend: 0x0, symName: __ZNSt3__110__function6__funcIU8__strongU13block_pointerFvvENS_9allocatorIS4_EES2_ED1Ev, symObjAddr: 0x1E38, symBinAddr: 0x39A0, symSize: 0x28 }
  - { offset: 0x1527, size: 0x8, addend: 0x0, symName: __ZNSt3__110__function6__funcIU8__strongU13block_pointerFvvENS_9allocatorIS4_EES2_ED0Ev, symObjAddr: 0x1E60, symBinAddr: 0x39C8, symSize: 0x28 }
  - { offset: 0x1562, size: 0x8, addend: 0x0, symName: __ZNKSt3__110__function6__funcIU8__strongU13block_pointerFvvENS_9allocatorIS4_EES2_E7__cloneEv, symObjAddr: 0x1E88, symBinAddr: 0x39F0, symSize: 0x8 }
  - { offset: 0x157F, size: 0x8, addend: 0x0, symName: __ZNKSt3__110__function6__funcIU8__strongU13block_pointerFvvENS_9allocatorIS4_EES2_E7__cloneEPNS0_6__baseIS2_EE, symObjAddr: 0x1E90, symBinAddr: 0x39F8, symSize: 0x38 }
  - { offset: 0x15BC, size: 0x8, addend: 0x0, symName: __ZNSt3__110__function6__funcIU8__strongU13block_pointerFvvENS_9allocatorIS4_EES2_E7destroyEv, symObjAddr: 0x1EC8, symBinAddr: 0x3A30, symSize: 0x10 }
  - { offset: 0x15CD, size: 0x8, addend: 0x0, symName: __ZNSt3__110__function6__funcIU8__strongU13block_pointerFvvENS_9allocatorIS4_EES2_E18destroy_deallocateEv, symObjAddr: 0x1ED8, symBinAddr: 0x3A40, symSize: 0x4 }
  - { offset: 0x15E4, size: 0x8, addend: 0x0, symName: __ZNSt3__110__function6__funcIU8__strongU13block_pointerFvvENS_9allocatorIS4_EES2_EclEv, symObjAddr: 0x1EDC, symBinAddr: 0x3A44, symSize: 0xC }
  - { offset: 0x15F9, size: 0x8, addend: 0x0, symName: __ZNSt3__110__function6__funcIU8__strongU13block_pointerFvvENS_9allocatorIS4_EES2_EclEv, symObjAddr: 0x1EDC, symBinAddr: 0x3A44, symSize: 0xC }
  - { offset: 0x1616, size: 0x8, addend: 0x0, symName: __ZNKSt3__110__function6__funcIU8__strongU13block_pointerFvvENS_9allocatorIS4_EES2_E6targetERKSt9type_info, symObjAddr: 0x1EE8, symBinAddr: 0x3A50, symSize: 0x3C }
  - { offset: 0x1635, size: 0x8, addend: 0x0, symName: __ZNKSt9type_infoeqB8ne190102ERKS_, symObjAddr: 0x1F30, symBinAddr: 0x3A98, symSize: 0x4C }
  - { offset: 0x168A, size: 0x8, addend: 0x0, symName: __ZNKSt3__110__function6__funcIU8__strongU13block_pointerFvvENS_9allocatorIS4_EES2_E11target_typeEv, symObjAddr: 0x1F24, symBinAddr: 0x3A8C, symSize: 0xC }
  - { offset: 0x16D1, size: 0x8, addend: 0x0, symName: '+[AHSDKReflection installTimeStampFromFBSDK]', symObjAddr: 0x0, symBinAddr: 0x3AE4, symSize: 0x74 }
  - { offset: 0x16E4, size: 0x8, addend: 0x0, symName: '+[AHSDKReflection installTimeStampFromFBSDK]', symObjAddr: 0x0, symBinAddr: 0x3AE4, symSize: 0x74 }
  - { offset: 0x1716, size: 0x8, addend: 0x0, symName: '___44+[AHSDKReflection installTimeStampFromFBSDK]_block_invoke', symObjAddr: 0x74, symBinAddr: 0x3B58, symSize: 0x30 }
  - { offset: 0x1727, size: 0x8, addend: 0x0, symName: '+[AHSDKReflection _installTimeStampFromFBSDK]', symObjAddr: 0xA4, symBinAddr: 0x3B88, symSize: 0xE4 }
  - { offset: 0x1770, size: 0x8, addend: 0x0, symName: '+[AHSDKReflection _ud]', symObjAddr: 0x188, symBinAddr: 0x3C6C, symSize: 0x30 }
  - { offset: 0x179B, size: 0x8, addend: 0x0, symName: '+[AHSDKReflection _ud].cold.1', symObjAddr: 0x644, symBinAddr: 0x1B7F50, symSize: 0x14 }
  - { offset: 0x17B0, size: 0x8, addend: 0x0, symName: '+[AHSDKReflection _ud].cold.1', symObjAddr: 0x644, symBinAddr: 0x1B7F50, symSize: 0x14 }
  - { offset: 0x17C1, size: 0x8, addend: 0x0, symName: '___22+[AHSDKReflection _ud]_block_invoke', symObjAddr: 0x1B8, symBinAddr: 0x3C9C, symSize: 0x80 }
  - { offset: 0x17ED, size: 0x8, addend: 0x0, symName: '+[AHSDKReflection _setObject:ForKey:]', symObjAddr: 0x238, symBinAddr: 0x3D1C, symSize: 0xB8 }
  - { offset: 0x180C, size: 0x8, addend: 0x0, symName: '+[AHSDKReflection _objectForKey:]', symObjAddr: 0x2F0, symBinAddr: 0x3DD4, symSize: 0xA4 }
  - { offset: 0x182B, size: 0x8, addend: 0x0, symName: '+[AHSDKReflection boolForKey:]', symObjAddr: 0x394, symBinAddr: 0x3E78, symSize: 0x64 }
  - { offset: 0x183C, size: 0x8, addend: 0x0, symName: '+[AHSDKReflection setBool:forKey:]', symObjAddr: 0x3F8, symBinAddr: 0x3EDC, symSize: 0x7C }
  - { offset: 0x184D, size: 0x8, addend: 0x0, symName: '+[AHSDKReflection stringForKey:]', symObjAddr: 0x474, symBinAddr: 0x3F58, symSize: 0x64 }
  - { offset: 0x185E, size: 0x8, addend: 0x0, symName: '+[AHSDKReflection setString:forKey:]', symObjAddr: 0x4D8, symBinAddr: 0x3FBC, symSize: 0x8C }
  - { offset: 0x186F, size: 0x8, addend: 0x0, symName: '+[AHSDKReflection setInteger:forKey:]', symObjAddr: 0x564, symBinAddr: 0x4048, symSize: 0x7C }
  - { offset: 0x1880, size: 0x8, addend: 0x0, symName: '+[AHSDKReflection integerForKey:]', symObjAddr: 0x5E0, symBinAddr: 0x40C4, symSize: 0x64 }
  - { offset: 0x18C8, size: 0x8, addend: 0x0, symName: '-[AHSDKSwizzle initWithBlock:named:forClass:selector:originalMethod:withNumArgs:]', symObjAddr: 0x0, symBinAddr: 0x4128, symSize: 0x124 }
  - { offset: 0x18D5, size: 0x8, addend: 0x0, symName: '-[AHSDKSwizzle initWithBlock:named:forClass:selector:originalMethod:withNumArgs:]', symObjAddr: 0x0, symBinAddr: 0x4128, symSize: 0x124 }
  - { offset: 0x18E6, size: 0x8, addend: 0x0, symName: '-[AHSDKSwizzle updateSwizzleBlock:forName:]', symObjAddr: 0x124, symBinAddr: 0x424C, symSize: 0xB8 }
  - { offset: 0x18F7, size: 0x8, addend: 0x0, symName: '-[AHSDKSwizzle dealloc]', symObjAddr: 0x1DC, symBinAddr: 0x4304, symSize: 0x34 }
  - { offset: 0x1908, size: 0x8, addend: 0x0, symName: '-[AHSDKSwizzle description]', symObjAddr: 0x210, symBinAddr: 0x4338, symSize: 0x9C }
  - { offset: 0x1944, size: 0x8, addend: 0x0, symName: '-[AHSDKSwizzle class]', symObjAddr: 0x2AC, symBinAddr: 0x43D4, symSize: 0x8 }
  - { offset: 0x1955, size: 0x8, addend: 0x0, symName: '-[AHSDKSwizzle selector]', symObjAddr: 0x2B4, symBinAddr: 0x43DC, symSize: 0x8 }
  - { offset: 0x1966, size: 0x8, addend: 0x0, symName: '-[AHSDKSwizzle originalMethod]', symObjAddr: 0x2BC, symBinAddr: 0x43E4, symSize: 0x8 }
  - { offset: 0x1977, size: 0x8, addend: 0x0, symName: '-[AHSDKSwizzle numArgs]', symObjAddr: 0x2C4, symBinAddr: 0x43EC, symSize: 0x8 }
  - { offset: 0x1988, size: 0x8, addend: 0x0, symName: '-[AHSDKSwizzle blocks]', symObjAddr: 0x2CC, symBinAddr: 0x43F4, symSize: 0x8 }
  - { offset: 0x1999, size: 0x8, addend: 0x0, symName: '-[AHSDKSwizzle .cxx_destruct]', symObjAddr: 0x2D4, symBinAddr: 0x43FC, symSize: 0xC }
  - { offset: 0x19FF, size: 0x8, addend: 0x0, symName: '+[AHSDKSwizzler initialize]', symObjAddr: 0x0, symBinAddr: 0x4408, symSize: 0x38 }
  - { offset: 0x1A0C, size: 0x8, addend: 0x0, symName: '+[AHSDKSwizzler initialize]', symObjAddr: 0x0, symBinAddr: 0x4408, symSize: 0x38 }
  - { offset: 0x1A1D, size: 0x8, addend: 0x0, symName: '+[AHSDKSwizzler swizzleSelector0:onClass:withBlock:named:]', symObjAddr: 0x38, symBinAddr: 0x4440, symSize: 0x4 }
  - { offset: 0x1A2E, size: 0x8, addend: 0x0, symName: '+[AHSDKSwizzler swizzleSelector1:onClass:withBlock:named:]', symObjAddr: 0x3C, symBinAddr: 0x4444, symSize: 0x4 }
  - { offset: 0x1A3F, size: 0x8, addend: 0x0, symName: '+[AHSDKSwizzler swizzleSelector2:onClass:withBlock:named:]', symObjAddr: 0x40, symBinAddr: 0x4448, symSize: 0x4 }
  - { offset: 0x1A50, size: 0x8, addend: 0x0, symName: '+[AHSDKSwizzler swizzleSelector3:onClass:withBlock:named:]', symObjAddr: 0x44, symBinAddr: 0x444C, symSize: 0x4 }
  - { offset: 0x1A61, size: 0x8, addend: 0x0, symName: '+[AHSDKSwizzler swizzleSelector:onClass:withBlock:named:]', symObjAddr: 0x48, symBinAddr: 0x4450, symSize: 0x20C }
  - { offset: 0x1AFE, size: 0x8, addend: 0x0, symName: '+[AHSDKSwizzler unswizzleSelector:onClass:named:]', symObjAddr: 0x254, symBinAddr: 0x465C, symSize: 0x94 }
  - { offset: 0x1B2A, size: 0x8, addend: 0x0, symName: '+[AHSDKSwizzler _resolveConflict]', symObjAddr: 0x2E8, symBinAddr: 0x46F0, symSize: 0x70 }
  - { offset: 0x1B8D, size: 0x8, addend: 0x0, symName: '+[AHSDKSwizzler _isMethodExist:onClass:]', symObjAddr: 0x358, symBinAddr: 0x4760, symSize: 0x84 }
  - { offset: 0x1BC8, size: 0x8, addend: 0x0, symName: '+[AHSDKSwizzler _swizzleForMethod:]', symObjAddr: 0x3DC, symBinAddr: 0x47E4, symSize: 0x9C }
  - { offset: 0x1BD9, size: 0x8, addend: 0x0, symName: '+[AHSDKSwizzler _removeSwizzleForMethod:]', symObjAddr: 0x478, symBinAddr: 0x4880, symSize: 0x88 }
  - { offset: 0x1BEA, size: 0x8, addend: 0x0, symName: '+[AHSDKSwizzler _setSwizzle:forMethod:]', symObjAddr: 0x500, symBinAddr: 0x4908, symSize: 0x90 }
  - { offset: 0x1C01, size: 0x8, addend: 0x0, symName: _ahsdk_swizzle_impl_0_args, symObjAddr: 0x590, symBinAddr: 0x4998, symSize: 0x1D4 }
  - { offset: 0x1C79, size: 0x8, addend: 0x0, symName: _ahsdk_swizzle_impl_1_args, symObjAddr: 0x764, symBinAddr: 0x4B6C, symSize: 0x200 }
  - { offset: 0x1CEA, size: 0x8, addend: 0x0, symName: _ahsdk_swizzle_impl_2_args, symObjAddr: 0x964, symBinAddr: 0x4D6C, symSize: 0x220 }
  - { offset: 0x1D5B, size: 0x8, addend: 0x0, symName: _ahsdk_swizzle_impl_3_args, symObjAddr: 0xB84, symBinAddr: 0x4F8C, symSize: 0x240 }
  - { offset: 0x1EAE, size: 0x8, addend: 0x0, symName: __ZN5ahsdk8crashpad22CallStackSymbolHandler22InitializeWithFilePathERKN4base8FilePathE, symObjAddr: 0x0, symBinAddr: 0x51CC, symSize: 0xBC }
  - { offset: 0x20C7, size: 0x8, addend: 0x0, symName: __ZN5ahsdk8crashpad22CallStackSymbolHandler27InitializeWithFileInterfaceERKN8crashpad8internal28IOSIntermediateDumpInterfaceE, symObjAddr: 0xBC, symBinAddr: 0x5288, symSize: 0x288 }
  - { offset: 0x26B7, size: 0x8, addend: 0x0, symName: __ZN4base13ScopedGenericIiNS_8internal19ScopedFDCloseTraitsEED2Ev, symObjAddr: 0x8B0, symBinAddr: 0x5A7C, symSize: 0x3C }
  - { offset: 0x26DD, size: 0x8, addend: 0x0, symName: __ZN8crashpad8internal27IOSIntermediateDumpFilePathD1Ev, symObjAddr: 0x344, symBinAddr: 0x5510, symSize: 0x58 }
  - { offset: 0x2884, size: 0x8, addend: 0x0, symName: __ZN7logging17MakeCheckOpStringIN8crashpad19InitializationState5StateES3_EEPNSt3__112basic_stringIcNS4_11char_traitsIcEENS4_9allocatorIcEEEERKT_RKT0_PKc, symObjAddr: 0x8EC, symBinAddr: 0x5AB8, symSize: 0x160 }
  - { offset: 0x2DDC, size: 0x8, addend: 0x0, symName: __ZNSt3__16vectorINS_12basic_stringIcNS_11char_traitsIcEENS_9allocatorIcEEEENS4_IS6_EEE18__assign_with_sizeB8ne190102IPKS6_SB_EEvT_T0_l, symObjAddr: 0xBA4, symBinAddr: 0x5C40, symSize: 0x1A4 }
  - { offset: 0x3177, size: 0x8, addend: 0x0, symName: __ZNSt3__16vectorINS_12basic_stringIcNS_11char_traitsIcEENS_9allocatorIcEEEENS4_IS6_EEE24__emplace_back_slow_pathIJRS6_EEEPS6_DpOT_, symObjAddr: 0x102C, symBinAddr: 0x60C8, symSize: 0x140 }
  - { offset: 0x336A, size: 0x8, addend: 0x0, symName: __ZNSt3__112basic_stringIcNS_11char_traitsIcEENS_9allocatorIcEEE25__init_copy_ctor_externalEPKcm, symObjAddr: 0xE8C, symBinAddr: 0x5F28, symSize: 0x84 }
  - { offset: 0x3452, size: 0x8, addend: 0x0, symName: __ZNSt3__128__exception_guard_exceptionsINS_29_AllocatorDestroyRangeReverseINS_9allocatorINS_12basic_stringIcNS_11char_traitsIcEENS2_IcEEEEEEPS7_EEED2B8ne190102Ev, symObjAddr: 0xF10, symBinAddr: 0x5FAC, symSize: 0x34 }
  - { offset: 0x34AA, size: 0x8, addend: 0x0, symName: __ZN5ahsdk8crashpad22CallStackSymbolHandler15saveWithCrashIDERKNSt3__112basic_stringIcNS2_11char_traitsIcEENS2_9allocatorIcEEEESA_, symObjAddr: 0x39C, symBinAddr: 0x5568, symSize: 0x4DC }
  - { offset: 0x37A2, size: 0x8, addend: 0x0, symName: __ZNSt3__16vectorINS_12basic_stringIcNS_11char_traitsIcEENS_9allocatorIcEEEENS4_IS6_EEE16__init_with_sizeB8ne190102IPS6_SA_EEvT_T0_m, symObjAddr: 0x1234, symBinAddr: 0x62D0, symSize: 0x84 }
  - { offset: 0x38FD, size: 0x8, addend: 0x0, symName: __ZNSt3__16vectorINS_12basic_stringIcNS_11char_traitsIcEENS_9allocatorIcEEEENS4_IS6_EEE16__destroy_vectorclB8ne190102Ev, symObjAddr: 0x11F4, symBinAddr: 0x6290, symSize: 0x40 }
  - { offset: 0x3988, size: 0x8, addend: 0x0, symName: __ZNK5ahsdk8crashpad22CallStackSymbolHandler16callStackSymbolsEv, symObjAddr: 0x878, symBinAddr: 0x5A44, symSize: 0x28 }
  - { offset: 0x399D, size: 0x8, addend: 0x0, symName: __ZNK5ahsdk8crashpad22CallStackSymbolHandler16callStackSymbolsEv, symObjAddr: 0x878, symBinAddr: 0x5A44, symSize: 0x28 }
  - { offset: 0x39B1, size: 0x8, addend: 0x0, symName: __ZNK5ahsdk8crashpad22CallStackSymbolHandler16callStackSymbolsEv, symObjAddr: 0x878, symBinAddr: 0x5A44, symSize: 0x28 }
  - { offset: 0x3B4C, size: 0x8, addend: 0x0, symName: __ZSt28__throw_bad_array_new_lengthB8ne190102v, symObjAddr: 0xB7C, symBinAddr: 0x5C18, symSize: 0x28 }
  - { offset: 0x3BC3, size: 0x8, addend: 0x0, symName: __ZNSt3__16vectorINS_12basic_stringIcNS_11char_traitsIcEENS_9allocatorIcEEEENS4_IS6_EEE13__vdeallocateEv, symObjAddr: 0xD48, symBinAddr: 0x5DE4, symSize: 0x38 }
  - { offset: 0x3C63, size: 0x8, addend: 0x0, symName: __ZNSt3__16vectorINS_12basic_stringIcNS_11char_traitsIcEENS_9allocatorIcEEEENS4_IS6_EEE11__vallocateB8ne190102Em, symObjAddr: 0xD80, symBinAddr: 0x5E1C, symSize: 0x50 }
  - { offset: 0x3C9A, size: 0x8, addend: 0x0, symName: __ZNSt3__135__uninitialized_allocator_copy_implB8ne190102INS_9allocatorINS_12basic_stringIcNS_11char_traitsIcEENS1_IcEEEEEEPKS6_S9_PS6_EET2_RT_T0_T1_SB_, symObjAddr: 0xDD0, symBinAddr: 0x5E6C, symSize: 0xBC }
  - { offset: 0x3CA4, size: 0x8, addend: 0x0, symName: __ZNSt3__135__uninitialized_allocator_copy_implB8ne190102INS_9allocatorINS_12basic_stringIcNS_11char_traitsIcEENS1_IcEEEEEEPKS6_S9_PS6_EET2_RT_T0_T1_SB_, symObjAddr: 0xDD0, symBinAddr: 0x5E6C, symSize: 0xBC }
  - { offset: 0x3DDC, size: 0x8, addend: 0x0, symName: __ZNKSt3__16vectorINS_12basic_stringIcNS_11char_traitsIcEENS_9allocatorIcEEEENS4_IS6_EEE20__throw_length_errorB8ne190102Ev, symObjAddr: 0xFD4, symBinAddr: 0x6070, symSize: 0x14 }
  - { offset: 0x3DF1, size: 0x8, addend: 0x0, symName: __ZNSt3__119__allocate_at_leastB8ne190102INS_9allocatorINS_12basic_stringIcNS_11char_traitsIcEENS1_IcEEEEEEEENS_19__allocation_resultINS_16allocator_traitsIT_E7pointerEEERSA_m, symObjAddr: 0xFE8, symBinAddr: 0x6084, symSize: 0x44 }
  - { offset: 0x3E0D, size: 0x8, addend: 0x0, symName: __ZNSt3__16vectorINS_12basic_stringIcNS_11char_traitsIcEENS_9allocatorIcEEEENS4_IS6_EEE7__clearB8ne190102Ev, symObjAddr: 0xF88, symBinAddr: 0x6024, symSize: 0x4C }
  - { offset: 0x3F08, size: 0x8, addend: 0x0, symName: __ZNSt3__119__allocate_at_leastB8ne190102INS_9allocatorINS_12basic_stringIcNS_11char_traitsIcEENS1_IcEEEEEEEENS_19__allocation_resultINS_16allocator_traitsIT_E7pointerEEERSA_m, symObjAddr: 0xFE8, symBinAddr: 0x6084, symSize: 0x44 }
  - { offset: 0x3F54, size: 0x8, addend: 0x0, symName: __ZNSt3__16vectorINS_12basic_stringIcNS_11char_traitsIcEENS_9allocatorIcEEEENS4_IS6_EEE24__emplace_back_slow_pathIJRS6_EEEPS6_DpOT_, symObjAddr: 0x102C, symBinAddr: 0x60C8, symSize: 0x140 }
  - { offset: 0x3F88, size: 0x8, addend: 0x0, symName: __ZNSt3__128__exception_guard_exceptionsINS_29_AllocatorDestroyRangeReverseINS_9allocatorINS_12basic_stringIcNS_11char_traitsIcEENS2_IcEEEEEEPS7_EEED2B8ne190102Ev, symObjAddr: 0xF10, symBinAddr: 0x5FAC, symSize: 0x34 }
  - { offset: 0x3FA7, size: 0x8, addend: 0x0, symName: __ZNKSt3__129_AllocatorDestroyRangeReverseINS_9allocatorINS_12basic_stringIcNS_11char_traitsIcEENS1_IcEEEEEEPS6_EclB8ne190102Ev, symObjAddr: 0xF44, symBinAddr: 0x5FE0, symSize: 0x44 }
  - { offset: 0x414A, size: 0x8, addend: 0x0, symName: __ZNSt3__114__split_bufferINS_12basic_stringIcNS_11char_traitsIcEENS_9allocatorIcEEEERNS4_IS6_EEED2Ev, symObjAddr: 0x116C, symBinAddr: 0x6208, symSize: 0x34 }
  - { offset: 0x41F0, size: 0x8, addend: 0x0, symName: __ZNSt3__114__split_bufferINS_12basic_stringIcNS_11char_traitsIcEENS_9allocatorIcEEEERNS4_IS6_EEE17__destruct_at_endB8ne190102EPS6_, symObjAddr: 0x11A0, symBinAddr: 0x623C, symSize: 0x54 }
  - { offset: 0x4205, size: 0x8, addend: 0x0, symName: __ZNSt3__114__split_bufferINS_12basic_stringIcNS_11char_traitsIcEENS_9allocatorIcEEEERNS4_IS6_EEE17__destruct_at_endB8ne190102EPS6_, symObjAddr: 0x11A0, symBinAddr: 0x623C, symSize: 0x54 }
  - { offset: 0x4334, size: 0x8, addend: 0x0, symName: __ZNSt3__135__uninitialized_allocator_copy_implB8ne190102INS_9allocatorINS_12basic_stringIcNS_11char_traitsIcEENS1_IcEEEEEEPS6_S8_S8_EET2_RT_T0_T1_S9_, symObjAddr: 0x12B8, symBinAddr: 0x6354, symSize: 0xBC }
  - { offset: 0x448E, size: 0x8, addend: 0x0, symName: __ZN8crashpad15AlignedAllocateEmm, symObjAddr: 0x0, symBinAddr: 0x6410, symSize: 0x4C }
  - { offset: 0x44A1, size: 0x8, addend: 0x0, symName: __ZN8crashpad15AlignedAllocateEmm, symObjAddr: 0x0, symBinAddr: 0x6410, symSize: 0x4C }
  - { offset: 0x44D6, size: 0x8, addend: 0x0, symName: __ZN8crashpad11AlignedFreeEPv, symObjAddr: 0x4C, symBinAddr: 0x645C, symSize: 0x4 }
  - { offset: 0x44EE, size: 0x8, addend: 0x0, symName: __ZN8crashpad11AlignedFreeEPv, symObjAddr: 0x4C, symBinAddr: 0x645C, symSize: 0x4 }
  - { offset: 0x4503, size: 0x8, addend: 0x0, symName: __ZN8crashpad11AlignedFreeEPv, symObjAddr: 0x4C, symBinAddr: 0x645C, symSize: 0x4 }
  - { offset: 0x4536, size: 0x8, addend: 0x0, symName: __ZN8crashpad10Annotation7SetSizeEj, symObjAddr: 0x0, symBinAddr: 0x6460, symSize: 0x88 }
  - { offset: 0x4549, size: 0x8, addend: 0x0, symName: __ZN8crashpad10Annotation7SetSizeEj, symObjAddr: 0x0, symBinAddr: 0x6460, symSize: 0x88 }
  - { offset: 0x457C, size: 0x8, addend: 0x0, symName: __ZN7logging17MakeCheckOpStringIjmEEPNSt3__112basic_stringIcNS1_11char_traitsIcEENS1_9allocatorIcEEEERKT_RKT0_PKc, symObjAddr: 0x90, symBinAddr: 0x64F0, symSize: 0x168 }
  - { offset: 0x4A9C, size: 0x8, addend: 0x0, symName: __ZN8crashpad10Annotation5ClearEv, symObjAddr: 0x88, symBinAddr: 0x64E8, symSize: 0x8 }
  - { offset: 0x4B70, size: 0x8, addend: 0x0, symName: __ZN8crashpad14AnnotationListC2Ev, symObjAddr: 0x0, symBinAddr: 0x6658, symSize: 0x28 }
  - { offset: 0x4B9B, size: 0x8, addend: 0x0, symName: __ZN8crashpad14AnnotationListC2Ev, symObjAddr: 0x0, symBinAddr: 0x6658, symSize: 0x28 }
  - { offset: 0x4C02, size: 0x8, addend: 0x0, symName: __ZN8crashpad14AnnotationListC1Ev, symObjAddr: 0x28, symBinAddr: 0x6680, symSize: 0x28 }
  - { offset: 0x4C17, size: 0x8, addend: 0x0, symName: __ZN8crashpad14AnnotationListC1Ev, symObjAddr: 0x28, symBinAddr: 0x6680, symSize: 0x28 }
  - { offset: 0x4C78, size: 0x8, addend: 0x0, symName: __ZN8crashpad14AnnotationListD2Ev, symObjAddr: 0x50, symBinAddr: 0x66A8, symSize: 0x4 }
  - { offset: 0x4C89, size: 0x8, addend: 0x0, symName: __ZN8crashpad14AnnotationListD1Ev, symObjAddr: 0x54, symBinAddr: 0x66AC, symSize: 0x4 }
  - { offset: 0x4CA0, size: 0x8, addend: 0x0, symName: __ZN8crashpad14AnnotationList3GetEv, symObjAddr: 0x58, symBinAddr: 0x66B0, symSize: 0x18 }
  - { offset: 0x4CD8, size: 0x8, addend: 0x0, symName: __ZN8crashpad14AnnotationList8RegisterEv, symObjAddr: 0x70, symBinAddr: 0x66C8, symSize: 0x60 }
  - { offset: 0x4DCA, size: 0x8, addend: 0x0, symName: __ZN8crashpad14AnnotationList3AddEPNS_10AnnotationE, symObjAddr: 0xD0, symBinAddr: 0x6728, symSize: 0xD4 }
  - { offset: 0x4E95, size: 0x8, addend: 0x0, symName: __ZN7logging17MakeCheckOpStringImmEEPNSt3__112basic_stringIcNS1_11char_traitsIcEENS1_9allocatorIcEEEERKT_RKT0_PKc, symObjAddr: 0x434, symBinAddr: 0x6A8C, symSize: 0x168 }
  - { offset: 0x53B5, size: 0x8, addend: 0x0, symName: __ZN8crashpad14AnnotationList8IteratorC2EPNS_10AnnotationEPKS2_, symObjAddr: 0x1A4, symBinAddr: 0x67FC, symSize: 0x8 }
  - { offset: 0x53CC, size: 0x8, addend: 0x0, symName: __ZN8crashpad14AnnotationList8IteratorC1EPNS_10AnnotationEPKS2_, symObjAddr: 0x1AC, symBinAddr: 0x6804, symSize: 0x8 }
  - { offset: 0x53E1, size: 0x8, addend: 0x0, symName: __ZN8crashpad14AnnotationList8IteratorC1EPNS_10AnnotationEPKS2_, symObjAddr: 0x1AC, symBinAddr: 0x6804, symSize: 0x8 }
  - { offset: 0x53F2, size: 0x8, addend: 0x0, symName: __ZN8crashpad14AnnotationList8IteratorD2Ev, symObjAddr: 0x1B4, symBinAddr: 0x680C, symSize: 0x4 }
  - { offset: 0x5403, size: 0x8, addend: 0x0, symName: __ZN8crashpad14AnnotationList8IteratorD1Ev, symObjAddr: 0x1B8, symBinAddr: 0x6810, symSize: 0x4 }
  - { offset: 0x541A, size: 0x8, addend: 0x0, symName: __ZNK8crashpad14AnnotationList8IteratordeEv, symObjAddr: 0x1BC, symBinAddr: 0x6814, symSize: 0x78 }
  - { offset: 0x56B5, size: 0x8, addend: 0x0, symName: __ZN8crashpad14AnnotationList8IteratorppEv, symObjAddr: 0x234, symBinAddr: 0x688C, symSize: 0x84 }
  - { offset: 0x5727, size: 0x8, addend: 0x0, symName: __ZNK8crashpad14AnnotationList8IteratoreqERKS1_, symObjAddr: 0x2B8, symBinAddr: 0x6910, symSize: 0x14 }
  - { offset: 0x5738, size: 0x8, addend: 0x0, symName: __ZN8crashpad14AnnotationList13ConstIteratorC2EPKNS_10AnnotationES4_, symObjAddr: 0x2CC, symBinAddr: 0x6924, symSize: 0x8 }
  - { offset: 0x574F, size: 0x8, addend: 0x0, symName: __ZN8crashpad14AnnotationList13ConstIteratorC1EPKNS_10AnnotationES4_, symObjAddr: 0x2D4, symBinAddr: 0x692C, symSize: 0x8 }
  - { offset: 0x5764, size: 0x8, addend: 0x0, symName: __ZN8crashpad14AnnotationList13ConstIteratorC1EPKNS_10AnnotationES4_, symObjAddr: 0x2D4, symBinAddr: 0x692C, symSize: 0x8 }
  - { offset: 0x5775, size: 0x8, addend: 0x0, symName: __ZN8crashpad14AnnotationList13ConstIteratorD2Ev, symObjAddr: 0x2DC, symBinAddr: 0x6934, symSize: 0x4 }
  - { offset: 0x5786, size: 0x8, addend: 0x0, symName: __ZN8crashpad14AnnotationList13ConstIteratorD1Ev, symObjAddr: 0x2E0, symBinAddr: 0x6938, symSize: 0x4 }
  - { offset: 0x579D, size: 0x8, addend: 0x0, symName: __ZNK8crashpad14AnnotationList13ConstIteratordeEv, symObjAddr: 0x2E4, symBinAddr: 0x693C, symSize: 0x78 }
  - { offset: 0x5A38, size: 0x8, addend: 0x0, symName: __ZN8crashpad14AnnotationList13ConstIteratorppEv, symObjAddr: 0x35C, symBinAddr: 0x69B4, symSize: 0x84 }
  - { offset: 0x5AAA, size: 0x8, addend: 0x0, symName: __ZNK8crashpad14AnnotationList13ConstIteratoreqERKS1_, symObjAddr: 0x3E0, symBinAddr: 0x6A38, symSize: 0x14 }
  - { offset: 0x5AC1, size: 0x8, addend: 0x0, symName: __ZN8crashpad14AnnotationList5beginEv, symObjAddr: 0x3F4, symBinAddr: 0x6A4C, symSize: 0x14 }
  - { offset: 0x5B41, size: 0x8, addend: 0x0, symName: __ZNK8crashpad14AnnotationList6cbeginEv, symObjAddr: 0x408, symBinAddr: 0x6A60, symSize: 0x14 }
  - { offset: 0x5BBB, size: 0x8, addend: 0x0, symName: __ZN8crashpad14AnnotationList3endEv, symObjAddr: 0x41C, symBinAddr: 0x6A74, symSize: 0xC }
  - { offset: 0x5BF6, size: 0x8, addend: 0x0, symName: __ZNK8crashpad14AnnotationList4cendEv, symObjAddr: 0x428, symBinAddr: 0x6A80, symSize: 0xC }
  - { offset: 0x5E1F, size: 0x8, addend: 0x0, symName: __ZN8crashpad18AnnotationSnapshotC2Ev, symObjAddr: 0x0, symBinAddr: 0x6BF4, symSize: 0x18 }
  - { offset: 0x5E38, size: 0x8, addend: 0x0, symName: __ZN8crashpad18AnnotationSnapshotC2Ev, symObjAddr: 0x0, symBinAddr: 0x6BF4, symSize: 0x18 }
  - { offset: 0x5E4D, size: 0x8, addend: 0x0, symName: __ZN8crashpad18AnnotationSnapshotC2Ev, symObjAddr: 0x0, symBinAddr: 0x6BF4, symSize: 0x18 }
  - { offset: 0x5E61, size: 0x8, addend: 0x0, symName: __ZN8crashpad18AnnotationSnapshotC2Ev, symObjAddr: 0x0, symBinAddr: 0x6BF4, symSize: 0x18 }
  - { offset: 0x5E7A, size: 0x8, addend: 0x0, symName: __ZN8crashpad18AnnotationSnapshotC1Ev, symObjAddr: 0x18, symBinAddr: 0x6C0C, symSize: 0x18 }
  - { offset: 0x5E8F, size: 0x8, addend: 0x0, symName: __ZN8crashpad18AnnotationSnapshotC1Ev, symObjAddr: 0x18, symBinAddr: 0x6C0C, symSize: 0x18 }
  - { offset: 0x5EA3, size: 0x8, addend: 0x0, symName: __ZN8crashpad18AnnotationSnapshotC1Ev, symObjAddr: 0x18, symBinAddr: 0x6C0C, symSize: 0x18 }
  - { offset: 0x5EB7, size: 0x8, addend: 0x0, symName: __ZN8crashpad18AnnotationSnapshotC1Ev, symObjAddr: 0x18, symBinAddr: 0x6C0C, symSize: 0x18 }
  - { offset: 0x5F25, size: 0x8, addend: 0x0, symName: __ZN8crashpad18AnnotationSnapshotC2ERKNSt3__112basic_stringIcNS1_11char_traitsIcEENS1_9allocatorIcEEEEtRKNS1_6vectorIhNS5_IhEEEE, symObjAddr: 0x30, symBinAddr: 0x6C24, symSize: 0x94 }
  - { offset: 0x6105, size: 0x8, addend: 0x0, symName: __ZNSt3__16vectorIhNS_9allocatorIhEEE16__init_with_sizeB8ne190102IPhS5_EEvT_T0_m, symObjAddr: 0x2CC, symBinAddr: 0x6DB4, symSize: 0x78 }
  - { offset: 0x6311, size: 0x8, addend: 0x0, symName: __ZN8crashpad18AnnotationSnapshotC1ERKNSt3__112basic_stringIcNS1_11char_traitsIcEENS1_9allocatorIcEEEEtRKNS1_6vectorIhNS5_IhEEEE, symObjAddr: 0xC4, symBinAddr: 0x6CB8, symSize: 0x4 }
  - { offset: 0x6326, size: 0x8, addend: 0x0, symName: __ZN8crashpad18AnnotationSnapshotC1ERKNSt3__112basic_stringIcNS1_11char_traitsIcEENS1_9allocatorIcEEEEtRKNS1_6vectorIhNS5_IhEEEE, symObjAddr: 0xC4, symBinAddr: 0x6CB8, symSize: 0x4 }
  - { offset: 0x635A, size: 0x8, addend: 0x0, symName: __ZN8crashpad18AnnotationSnapshotD2Ev, symObjAddr: 0xC8, symBinAddr: 0x6CBC, symSize: 0x40 }
  - { offset: 0x6505, size: 0x8, addend: 0x0, symName: __ZN8crashpad18AnnotationSnapshotD1Ev, symObjAddr: 0x108, symBinAddr: 0x6CFC, symSize: 0x4 }
  - { offset: 0x651A, size: 0x8, addend: 0x0, symName: __ZN8crashpad18AnnotationSnapshotD1Ev, symObjAddr: 0x108, symBinAddr: 0x6CFC, symSize: 0x4 }
  - { offset: 0x6560, size: 0x8, addend: 0x0, symName: __ZNK8crashpad18AnnotationSnapshoteqERKS0_, symObjAddr: 0x10C, symBinAddr: 0x6D00, symSize: 0xB4 }
  - { offset: 0x6575, size: 0x8, addend: 0x0, symName: __ZNK8crashpad18AnnotationSnapshoteqERKS0_, symObjAddr: 0x10C, symBinAddr: 0x6D00, symSize: 0xB4 }
  - { offset: 0x6589, size: 0x8, addend: 0x0, symName: __ZNK8crashpad18AnnotationSnapshoteqERKS0_, symObjAddr: 0x10C, symBinAddr: 0x6D00, symSize: 0xB4 }
  - { offset: 0x659E, size: 0x8, addend: 0x0, symName: __ZNK8crashpad18AnnotationSnapshoteqERKS0_, symObjAddr: 0x10C, symBinAddr: 0x6D00, symSize: 0xB4 }
  - { offset: 0x67CC, size: 0x8, addend: 0x0, symName: __ZNSt3__16vectorIhNS_9allocatorIhEEE11__vallocateB8ne190102Em, symObjAddr: 0x344, symBinAddr: 0x6E2C, symSize: 0x40 }
  - { offset: 0x6886, size: 0x8, addend: 0x0, symName: __ZN8crashpad14CaptureContextEP24arm_unified_thread_state, symObjAddr: 0x0, symBinAddr: 0x6E6C, symSize: 0x60 }
  - { offset: 0x68D0, size: 0x8, addend: 0x0, symName: __ZN8crashpad8internal26CheckedAddressRangeGenericIyyEC2Ev, symObjAddr: 0x0, symBinAddr: 0x6ECC, symSize: 0x10 }
  - { offset: 0x68E5, size: 0x8, addend: 0x0, symName: __ZN8crashpad8internal26CheckedAddressRangeGenericIyyEC2Ev, symObjAddr: 0x0, symBinAddr: 0x6ECC, symSize: 0x10 }
  - { offset: 0x68F9, size: 0x8, addend: 0x0, symName: __ZN8crashpad8internal26CheckedAddressRangeGenericIyyEC2Ev, symObjAddr: 0x0, symBinAddr: 0x6ECC, symSize: 0x10 }
  - { offset: 0x690D, size: 0x8, addend: 0x0, symName: __ZN8crashpad8internal26CheckedAddressRangeGenericIyyEC2Ev, symObjAddr: 0x0, symBinAddr: 0x6ECC, symSize: 0x10 }
  - { offset: 0x6926, size: 0x8, addend: 0x0, symName: __ZN8crashpad8internal26CheckedAddressRangeGenericIyyEC1Ev, symObjAddr: 0x10, symBinAddr: 0x6EDC, symSize: 0x10 }
  - { offset: 0x693B, size: 0x8, addend: 0x0, symName: __ZN8crashpad8internal26CheckedAddressRangeGenericIyyEC1Ev, symObjAddr: 0x10, symBinAddr: 0x6EDC, symSize: 0x10 }
  - { offset: 0x694F, size: 0x8, addend: 0x0, symName: __ZN8crashpad8internal26CheckedAddressRangeGenericIyyEC1Ev, symObjAddr: 0x10, symBinAddr: 0x6EDC, symSize: 0x10 }
  - { offset: 0x6963, size: 0x8, addend: 0x0, symName: __ZN8crashpad8internal26CheckedAddressRangeGenericIyyEC1Ev, symObjAddr: 0x10, symBinAddr: 0x6EDC, symSize: 0x10 }
  - { offset: 0x6977, size: 0x8, addend: 0x0, symName: __ZN8crashpad8internal26CheckedAddressRangeGenericIyyEC1Ev, symObjAddr: 0x10, symBinAddr: 0x6EDC, symSize: 0x10 }
  - { offset: 0x6997, size: 0x8, addend: 0x0, symName: __ZN8crashpad8internal26CheckedAddressRangeGenericIyyEC2Ebyy, symObjAddr: 0x20, symBinAddr: 0x6EEC, symSize: 0x30 }
  - { offset: 0x69AC, size: 0x8, addend: 0x0, symName: __ZN8crashpad8internal26CheckedAddressRangeGenericIyyEC2Ebyy, symObjAddr: 0x20, symBinAddr: 0x6EEC, symSize: 0x30 }
  - { offset: 0x69E6, size: 0x8, addend: 0x0, symName: __ZN8crashpad8internal26CheckedAddressRangeGenericIyyE8SetRangeEbyy, symObjAddr: 0x50, symBinAddr: 0x6F1C, symSize: 0x30 }
  - { offset: 0x6A26, size: 0x8, addend: 0x0, symName: __ZN8crashpad8internal26CheckedAddressRangeGenericIyyEC1Ebyy, symObjAddr: 0x80, symBinAddr: 0x6F4C, symSize: 0x30 }
  - { offset: 0x6A3B, size: 0x8, addend: 0x0, symName: __ZN8crashpad8internal26CheckedAddressRangeGenericIyyEC1Ebyy, symObjAddr: 0x80, symBinAddr: 0x6F4C, symSize: 0x30 }
  - { offset: 0x6A4F, size: 0x8, addend: 0x0, symName: __ZN8crashpad8internal26CheckedAddressRangeGenericIyyEC1Ebyy, symObjAddr: 0x80, symBinAddr: 0x6F4C, symSize: 0x30 }
  - { offset: 0x6A96, size: 0x8, addend: 0x0, symName: __ZNK8crashpad8internal26CheckedAddressRangeGenericIyyE4BaseEv, symObjAddr: 0xB0, symBinAddr: 0x6F7C, symSize: 0x1C }
  - { offset: 0x6ADC, size: 0x8, addend: 0x0, symName: __ZNK8crashpad8internal26CheckedAddressRangeGenericIyyE4SizeEv, symObjAddr: 0xCC, symBinAddr: 0x6F98, symSize: 0x1C }
  - { offset: 0x6B22, size: 0x8, addend: 0x0, symName: __ZNK8crashpad8internal26CheckedAddressRangeGenericIyyE3EndEv, symObjAddr: 0xE8, symBinAddr: 0x6FB4, symSize: 0x24 }
  - { offset: 0x6B98, size: 0x8, addend: 0x0, symName: __ZNK8crashpad8internal26CheckedAddressRangeGenericIyyE7IsValidEv, symObjAddr: 0x10C, symBinAddr: 0x6FD8, symSize: 0x3C }
  - { offset: 0x6C7E, size: 0x8, addend: 0x0, symName: __ZNK8crashpad8internal26CheckedAddressRangeGenericIyyE7Is64BitEv, symObjAddr: 0x148, symBinAddr: 0x7014, symSize: 0x8 }
  - { offset: 0x6C9B, size: 0x8, addend: 0x0, symName: __ZNK8crashpad8internal26CheckedAddressRangeGenericIyyE13ContainsValueEy, symObjAddr: 0x150, symBinAddr: 0x701C, symSize: 0xD4 }
  - { offset: 0x6D15, size: 0x8, addend: 0x0, symName: __ZNSt3__124__put_character_sequenceB8ne190102IcNS_11char_traitsIcEEEERNS_13basic_ostreamIT_T0_EES7_PKS4_m, symObjAddr: 0x7D0, symBinAddr: 0x769C, symSize: 0x168 }
  - { offset: 0x6E59, size: 0x8, addend: 0x0, symName: __ZNK8crashpad12CheckedRangeIyyE13ContainsValueEy, symObjAddr: 0x224, symBinAddr: 0x70F0, symSize: 0xC4 }
  - { offset: 0x6F4B, size: 0x8, addend: 0x0, symName: __ZNK8crashpad12CheckedRangeIjjE13ContainsValueEj, symObjAddr: 0x2E8, symBinAddr: 0x71B4, symSize: 0xC4 }
  - { offset: 0x7043, size: 0x8, addend: 0x0, symName: __ZNK8crashpad8internal26CheckedAddressRangeGenericIyyE13ContainsRangeERKS2_, symObjAddr: 0x3AC, symBinAddr: 0x7278, symSize: 0x170 }
  - { offset: 0x712C, size: 0x8, addend: 0x0, symName: __ZN7logging17MakeCheckOpStringIbbEEPNSt3__112basic_stringIcNS1_11char_traitsIcEENS1_9allocatorIcEEEERKT_RKT0_PKc, symObjAddr: 0xBAC, symBinAddr: 0x79E0, symSize: 0x168 }
  - { offset: 0x764C, size: 0x8, addend: 0x0, symName: __ZNK8crashpad12CheckedRangeIyyE13ContainsRangeERKS1_, symObjAddr: 0x51C, symBinAddr: 0x73E8, symSize: 0x130 }
  - { offset: 0x781E, size: 0x8, addend: 0x0, symName: __ZNK8crashpad12CheckedRangeIjjE13ContainsRangeERKS1_, symObjAddr: 0x64C, symBinAddr: 0x7518, symSize: 0x130 }
  - { offset: 0x79F6, size: 0x8, addend: 0x0, symName: __ZNK8crashpad8internal26CheckedAddressRangeGenericIyyE8AsStringEv, symObjAddr: 0x77C, symBinAddr: 0x7648, symSize: 0x54 }
  - { offset: 0x7A0B, size: 0x8, addend: 0x0, symName: __ZNK8crashpad8internal26CheckedAddressRangeGenericIyyE8AsStringEv, symObjAddr: 0x77C, symBinAddr: 0x7648, symSize: 0x54 }
  - { offset: 0x7AAD, size: 0x8, addend: 0x0, symName: __ZNSt3__116__pad_and_outputB8ne190102IcNS_11char_traitsIcEEEENS_19ostreambuf_iteratorIT_T0_EES6_PKS4_S8_S8_RNS_8ios_baseES4_, symObjAddr: 0x938, symBinAddr: 0x7804, symSize: 0x13C }
  - { offset: 0x7D8A, size: 0x8, addend: 0x0, symName: __ZNSt3__112basic_stringIcNS_11char_traitsIcEENS_9allocatorIcEEEC2B8ne190102Emc, symObjAddr: 0xA84, symBinAddr: 0x7940, symSize: 0xA0 }
  - { offset: 0x7FA3, size: 0x8, addend: 0x0, symName: __ZN8crashpad25ClockMonotonicNanosecondsEv, symObjAddr: 0x0, symBinAddr: 0x7B48, symSize: 0x8 }
  - { offset: 0x7FB0, size: 0x8, addend: 0x0, symName: __ZN8crashpad25ClockMonotonicNanosecondsEv, symObjAddr: 0x0, symBinAddr: 0x7B48, symSize: 0x8 }
  - { offset: 0x8017, size: 0x8, addend: 0x0, symName: __ZN8crashpad16SleepNanosecondsEy, symObjAddr: 0x0, symBinAddr: 0x7B50, symSize: 0xF4 }
  - { offset: 0x84CD, size: 0x8, addend: 0x0, symName: __ZN8crashpad26CompositeMachMessageServerC2Ev, symObjAddr: 0x0, symBinAddr: 0x7C44, symSize: 0x28 }
  - { offset: 0x857B, size: 0x8, addend: 0x0, symName: __ZN8crashpad26CompositeMachMessageServerC1Ev, symObjAddr: 0x28, symBinAddr: 0x7C6C, symSize: 0x28 }
  - { offset: 0x8590, size: 0x8, addend: 0x0, symName: __ZN8crashpad26CompositeMachMessageServerC1Ev, symObjAddr: 0x28, symBinAddr: 0x7C6C, symSize: 0x28 }
  - { offset: 0x8656, size: 0x8, addend: 0x0, symName: __ZN8crashpad26CompositeMachMessageServerD2Ev, symObjAddr: 0x50, symBinAddr: 0x7C94, symSize: 0x38 }
  - { offset: 0x86C1, size: 0x8, addend: 0x0, symName: __ZNSt3__16__treeINS_12__value_typeIiPN8crashpad17MachMessageServer9InterfaceEEENS_19__map_value_compareIiS6_NS_4lessIiEELb1EEENS_9allocatorIS6_EEE7destroyEPNS_11__tree_nodeIS6_PvEE, symObjAddr: 0x420, symBinAddr: 0x8054, symSize: 0x40 }
  - { offset: 0x875F, size: 0x8, addend: 0x0, symName: __ZN8crashpad26CompositeMachMessageServerD1Ev, symObjAddr: 0x88, symBinAddr: 0x7CCC, symSize: 0x38 }
  - { offset: 0x887B, size: 0x8, addend: 0x0, symName: __ZN8crashpad26CompositeMachMessageServer10AddHandlerEPNS_17MachMessageServer9InterfaceE, symObjAddr: 0xC0, symBinAddr: 0x7D04, symSize: 0x210 }
  - { offset: 0x8E61, size: 0x8, addend: 0x0, symName: __ZNSt3__16__treeINS_12__value_typeIiPN8crashpad17MachMessageServer9InterfaceEEENS_19__map_value_compareIiS6_NS_4lessIiEELb1EEENS_9allocatorIS6_EEE25__emplace_unique_key_argsIiJNS_4pairIiS5_EEEEENSF_INS_15__tree_iteratorIS6_PNS_11__tree_nodeIS6_PvEElEEbEERKT_DpOT0_, symObjAddr: 0x730, symBinAddr: 0x8094, symSize: 0xC0 }
  - { offset: 0x90AB, size: 0x8, addend: 0x0, symName: __ZN8crashpad26CompositeMachMessageServer25MachMessageServerFunctionEPK17mach_msg_header_tPS1_Pb, symObjAddr: 0x2D0, symBinAddr: 0x7F14, symSize: 0x90 }
  - { offset: 0x9202, size: 0x8, addend: 0x0, symName: __ZN8crashpad26CompositeMachMessageServer27MachMessageServerRequestIDsEv, symObjAddr: 0x360, symBinAddr: 0x7FA4, symSize: 0xA0 }
  - { offset: 0x9457, size: 0x8, addend: 0x0, symName: __ZNSt3__16__treeIiNS_4lessIiEENS_9allocatorIiEEE25__emplace_unique_key_argsIiJRKiEEENS_4pairINS_15__tree_iteratorIiPNS_11__tree_nodeIiPvEElEEbEERKT_DpOT0_, symObjAddr: 0xD24, symBinAddr: 0x8344, symSize: 0xB8 }
  - { offset: 0x954D, size: 0x8, addend: 0x0, symName: __ZN8crashpad26CompositeMachMessageServer28MachMessageServerRequestSizeEv, symObjAddr: 0x400, symBinAddr: 0x8044, symSize: 0x8 }
  - { offset: 0x955E, size: 0x8, addend: 0x0, symName: __ZN8crashpad26CompositeMachMessageServer26MachMessageServerReplySizeEv, symObjAddr: 0x408, symBinAddr: 0x804C, symSize: 0x8 }
  - { offset: 0x977C, size: 0x8, addend: 0x0, symName: __ZNSt3__16__treeINS_12__value_typeIiPN8crashpad17MachMessageServer9InterfaceEEENS_19__map_value_compareIiS6_NS_4lessIiEELb1EEENS_9allocatorIS6_EEE16__insert_node_atEPNS_15__tree_end_nodeIPNS_16__tree_node_baseIPvEEEERSI_SI_, symObjAddr: 0x7F0, symBinAddr: 0x8154, symSize: 0x54 }
  - { offset: 0x979B, size: 0x8, addend: 0x0, symName: __ZNSt3__127__tree_balance_after_insertB8ne190102IPNS_16__tree_node_baseIPvEEEEvT_S5_, symObjAddr: 0x844, symBinAddr: 0x81A8, symSize: 0x19C }
  - { offset: 0x9BAC, size: 0x8, addend: 0x0, symName: __ZNSt3__16__treeIiNS_4lessIiEENS_9allocatorIiEEE25__emplace_unique_key_argsIiJRKiEEENS_4pairINS_15__tree_iteratorIiPNS_11__tree_nodeIiPvEElEEbEERKT_DpOT0_, symObjAddr: 0xD24, symBinAddr: 0x8344, symSize: 0xB8 }
  - { offset: 0x9C34, size: 0x8, addend: 0x0, symName: __ZN8crashpad13CPUContextX8613FxsaveToFsaveERKNS0_6FxsaveEPNS0_5FsaveE, symObjAddr: 0x0, symBinAddr: 0x83FC, symSize: 0xAC }
  - { offset: 0x9C53, size: 0x8, addend: 0x0, symName: __ZN8crashpad13CPUContextX8620FxsaveToFsaveTagWordEthPKNS0_16X87OrMMXRegisterE, symObjAddr: 0xAC, symBinAddr: 0x84A8, symSize: 0xD0 }
  - { offset: 0x9CC7, size: 0x8, addend: 0x0, symName: __ZN8crashpad13CPUContextX8613FsaveToFxsaveERKNS0_5FsaveEPNS0_6FxsaveE, symObjAddr: 0x17C, symBinAddr: 0x8578, symSize: 0x110 }
  - { offset: 0x9CED, size: 0x8, addend: 0x0, symName: __ZN8crashpad13CPUContextX8620FsaveToFxsaveTagWordEt, symObjAddr: 0x28C, symBinAddr: 0x8688, symSize: 0x60 }
  - { offset: 0x9D0A, size: 0x8, addend: 0x0, symName: __ZNK8crashpad10CPUContext18InstructionPointerEv, symObjAddr: 0x2EC, symBinAddr: 0x86E8, symSize: 0xF8 }
  - { offset: 0x9E0A, size: 0x8, addend: 0x0, symName: __ZNK8crashpad10CPUContext12StackPointerEv, symObjAddr: 0x3E4, symBinAddr: 0x87E0, symSize: 0xF8 }
  - { offset: 0x9E6A, size: 0x8, addend: 0x0, symName: __ZNK8crashpad10CPUContext18ShadowStackPointerEv, symObjAddr: 0x4DC, symBinAddr: 0x88D8, symSize: 0x110 }
  - { offset: 0x9F18, size: 0x8, addend: 0x0, symName: __ZNK8crashpad10CPUContext14HasShadowStackEv, symObjAddr: 0x5EC, symBinAddr: 0x89E8, symSize: 0xB8 }
  - { offset: 0x9F78, size: 0x8, addend: 0x0, symName: __ZNK8crashpad10CPUContext7Is64BitEv, symObjAddr: 0x6A4, symBinAddr: 0x8AA0, symSize: 0xA8 }
  - { offset: 0xA318, size: 0x8, addend: 0x0, symName: __ZN8crashpad8internal25InitializeCPUContextARM64EPNS_15CPUContextARM64EiPKjjPK27__darwin_arm_thread_state64PK25__darwin_arm_neon_state64PK26__darwin_arm_debug_state64, symObjAddr: 0x0, symBinAddr: 0x8B48, symSize: 0x360 }
  - { offset: 0xA870, size: 0x8, addend: 0x0, symName: __ZN8crashpad19CrashReportDatabase6ReportC2Ev, symObjAddr: 0x0, symBinAddr: 0x8EA8, symSize: 0x48 }
  - { offset: 0xA887, size: 0x8, addend: 0x0, symName: __ZN8crashpad19CrashReportDatabase6ReportC1Ev, symObjAddr: 0x48, symBinAddr: 0x8EF0, symSize: 0x48 }
  - { offset: 0xA913, size: 0x8, addend: 0x0, symName: __ZN8crashpad19CrashReportDatabase9NewReportC2Ev, symObjAddr: 0x90, symBinAddr: 0x8F38, symSize: 0xA4 }
  - { offset: 0xAAA8, size: 0x8, addend: 0x0, symName: __ZN4base13ScopedGenericINS_8FilePathEN8crashpad22ScopedRemoveFileTraitsEEC2Ev, symObjAddr: 0x1090, symBinAddr: 0x9DF4, symSize: 0x58 }
  - { offset: 0xAAF7, size: 0x8, addend: 0x0, symName: __ZN8crashpad19CrashReportDatabase9NewReportC1Ev, symObjAddr: 0x134, symBinAddr: 0x8FDC, symSize: 0x4 }
  - { offset: 0xAB0C, size: 0x8, addend: 0x0, symName: __ZN8crashpad19CrashReportDatabase9NewReportC1Ev, symObjAddr: 0x134, symBinAddr: 0x8FDC, symSize: 0x4 }
  - { offset: 0xAB4C, size: 0x8, addend: 0x0, symName: __ZN8crashpad19CrashReportDatabase9NewReportD2Ev, symObjAddr: 0x138, symBinAddr: 0x8FE0, symSize: 0x80 }
  - { offset: 0xAD07, size: 0x8, addend: 0x0, symName: __ZNSt3__16vectorIN4base13ScopedGenericINS1_8FilePathEN8crashpad22ScopedRemoveFileTraitsEEENS_9allocatorIS6_EEE16__destroy_vectorclB8ne190102Ev, symObjAddr: 0x1210, symBinAddr: 0x9F74, symSize: 0x70 }
  - { offset: 0xADEE, size: 0x8, addend: 0x0, symName: __ZNSt3__16vectorINS_10unique_ptrIN8crashpad10FileWriterENS_14default_deleteIS3_EEEENS_9allocatorIS6_EEE16__destroy_vectorclB8ne190102Ev, symObjAddr: 0x1194, symBinAddr: 0x9EF8, symSize: 0x7C }
  - { offset: 0xAF15, size: 0x8, addend: 0x0, symName: __ZN4base13ScopedGenericINS_8FilePathEN8crashpad22ScopedRemoveFileTraitsEED2Ev, symObjAddr: 0x10E8, symBinAddr: 0x9E4C, symSize: 0x28 }
  - { offset: 0xAF5D, size: 0x8, addend: 0x0, symName: __ZN8crashpad19CrashReportDatabase9NewReportD1Ev, symObjAddr: 0x1B8, symBinAddr: 0x9060, symSize: 0x4 }
  - { offset: 0xAF72, size: 0x8, addend: 0x0, symName: __ZN8crashpad19CrashReportDatabase9NewReportD1Ev, symObjAddr: 0x1B8, symBinAddr: 0x9060, symSize: 0x4 }
  - { offset: 0xAFDC, size: 0x8, addend: 0x0, symName: __ZN8crashpad19CrashReportDatabase9NewReport10InitializeEPS0_RKN4base8FilePathERKNSt3__112basic_stringIcNS7_11char_traitsIcEENS7_9allocatorIcEEEESF_, symObjAddr: 0x1BC, symBinAddr: 0x9064, symSize: 0x148 }
  - { offset: 0xB3B4, size: 0x8, addend: 0x0, symName: __ZNSt3__1plB8ne190102IcNS_11char_traitsIcEENS_9allocatorIcEEEENS_12basic_stringIT_T0_T1_EERKS9_SB_, symObjAddr: 0x304, symBinAddr: 0x91AC, symSize: 0xC8 }
  - { offset: 0xB55E, size: 0x8, addend: 0x0, symName: __ZN4base13ScopedGenericINS_8FilePathEN8crashpad22ScopedRemoveFileTraitsEE5resetERKS1_, symObjAddr: 0x3CC, symBinAddr: 0x9274, symSize: 0x98 }
  - { offset: 0xB5C8, size: 0x8, addend: 0x0, symName: __ZNSt3__112basic_stringIcNS_11char_traitsIcEENS_9allocatorIcEEEC2B8ne190102ENS_24__uninitialized_size_tagEmRKS4_, symObjAddr: 0x1280, symBinAddr: 0x9FE4, symSize: 0x7C }
  - { offset: 0xB69E, size: 0x8, addend: 0x0, symName: __ZN4base13ScopedGenericINS_8FilePathEN8crashpad22ScopedRemoveFileTraitsEE15FreeIfNecessaryEv, symObjAddr: 0x1110, symBinAddr: 0x9E74, symSize: 0x84 }
  - { offset: 0xB6EA, size: 0x8, addend: 0x0, symName: __ZN8crashpad19CrashReportDatabase9NewReport6ReaderEv, symObjAddr: 0x464, symBinAddr: 0x930C, symSize: 0xA0 }
  - { offset: 0xB926, size: 0x8, addend: 0x0, symName: __ZN8crashpad19CrashReportDatabase9NewReport13AddAttachmentERKNSt3__112basic_stringIcNS2_11char_traitsIcEENS2_9allocatorIcEEEE, symObjAddr: 0x504, symBinAddr: 0x93AC, symSize: 0x33C }
  - { offset: 0xC0B5, size: 0x8, addend: 0x0, symName: __ZN8crashpad19CrashReportDatabase15AttachmentsPathERKNS_4UUIDE, symObjAddr: 0x840, symBinAddr: 0x96E8, symSize: 0xFC }
  - { offset: 0xC46C, size: 0x8, addend: 0x0, symName: __ZNSt3__119__allocate_at_leastB8ne190102INS_9allocatorINS_10unique_ptrIN8crashpad10FileWriterENS_14default_deleteIS4_EEEEEEEENS_19__allocation_resultINS_16allocator_traitsIT_E7pointerEEERSB_m, symObjAddr: 0x1310, symBinAddr: 0xA060, symSize: 0x34 }
  - { offset: 0xC4B8, size: 0x8, addend: 0x0, symName: __ZNSt3__114__split_bufferINS_10unique_ptrIN8crashpad10FileWriterENS_14default_deleteIS3_EEEERNS_9allocatorIS6_EEED2Ev, symObjAddr: 0x1344, symBinAddr: 0xA094, symSize: 0x60 }
  - { offset: 0xC4C2, size: 0x8, addend: 0x0, symName: __ZNSt3__114__split_bufferINS_10unique_ptrIN8crashpad10FileWriterENS_14default_deleteIS3_EEEERNS_9allocatorIS6_EEED2Ev, symObjAddr: 0x1344, symBinAddr: 0xA094, symSize: 0x60 }
  - { offset: 0xC60D, size: 0x8, addend: 0x0, symName: __ZN4base13ScopedGenericINS_8FilePathEN8crashpad22ScopedRemoveFileTraitsEEC2EOS4_, symObjAddr: 0x14D8, symBinAddr: 0xA228, symSize: 0x5C }
  - { offset: 0xC655, size: 0x8, addend: 0x0, symName: __ZNSt3__16vectorIN4base13ScopedGenericINS1_8FilePathEN8crashpad22ScopedRemoveFileTraitsEEENS_9allocatorIS6_EEE24__emplace_back_slow_pathIJS6_EEEPS6_DpOT_, symObjAddr: 0x13A4, symBinAddr: 0xA0F4, symSize: 0x134 }
  - { offset: 0xC818, size: 0x8, addend: 0x0, symName: __ZNSt3__119__allocate_at_leastB8ne190102INS_9allocatorINS_10unique_ptrIN8crashpad10FileWriterENS_14default_deleteIS4_EEEEEEEENS_19__allocation_resultINS_16allocator_traitsIT_E7pointerEEERSB_m, symObjAddr: 0x1310, symBinAddr: 0xA060, symSize: 0x34 }
  - { offset: 0xC958, size: 0x8, addend: 0x0, symName: __ZN8crashpad19CrashReportDatabase12UploadReport21InitializeAttachmentsEv, symObjAddr: 0x93C, symBinAddr: 0x97E4, symSize: 0x2B0 }
  - { offset: 0xCF4D, size: 0x8, addend: 0x0, symName: __ZNSt3__16__treeINS_12__value_typeINS_12basic_stringIcNS_11char_traitsIcEENS_9allocatorIcEEEEPN8crashpad10FileReaderEEENS_19__map_value_compareIS7_SB_NS_4lessIS7_EELb1EEENS5_ISB_EEE25__emplace_unique_key_argsIS7_JRKNS_21piecewise_construct_tENS_5tupleIJRKS7_EEENSM_IJEEEEEENS_4pairINS_15__tree_iteratorISB_PNS_11__tree_nodeISB_PvEElEEbEERKT_DpOT0_, symObjAddr: 0x1794, symBinAddr: 0xA3E4, symSize: 0x94 }
  - { offset: 0xD017, size: 0x8, addend: 0x0, symName: __ZN8crashpad19CrashReportDatabase12UploadReportC2Ev, symObjAddr: 0xBEC, symBinAddr: 0x9A94, symSize: 0xBC }
  - { offset: 0xD160, size: 0x8, addend: 0x0, symName: __ZN8crashpad19CrashReportDatabase6ReportD2Ev, symObjAddr: 0xCA8, symBinAddr: 0x9B50, symSize: 0x38 }
  - { offset: 0xD233, size: 0x8, addend: 0x0, symName: __ZN8crashpad19CrashReportDatabase12UploadReportC1Ev, symObjAddr: 0xCE0, symBinAddr: 0x9B88, symSize: 0x4 }
  - { offset: 0xD248, size: 0x8, addend: 0x0, symName: __ZN8crashpad19CrashReportDatabase12UploadReportC1Ev, symObjAddr: 0xCE0, symBinAddr: 0x9B88, symSize: 0x4 }
  - { offset: 0xD28E, size: 0x8, addend: 0x0, symName: __ZN8crashpad19CrashReportDatabase12UploadReportD2Ev, symObjAddr: 0xCE4, symBinAddr: 0x9B8C, symSize: 0x80 }
  - { offset: 0xD493, size: 0x8, addend: 0x0, symName: __ZNSt3__16__treeINS_12__value_typeINS_12basic_stringIcNS_11char_traitsIcEENS_9allocatorIcEEEEPN8crashpad10FileReaderEEENS_19__map_value_compareIS7_SB_NS_4lessIS7_EELb1EEENS5_ISB_EEE7destroyEPNS_11__tree_nodeISB_PvEE, symObjAddr: 0x1C88, symBinAddr: 0xA66C, symSize: 0x50 }
  - { offset: 0xD6D1, size: 0x8, addend: 0x0, symName: __ZN8crashpad19CrashReportDatabase12UploadReportD1Ev, symObjAddr: 0xD64, symBinAddr: 0x9C0C, symSize: 0x4 }
  - { offset: 0xD6E6, size: 0x8, addend: 0x0, symName: __ZN8crashpad19CrashReportDatabase12UploadReportD1Ev, symObjAddr: 0xD64, symBinAddr: 0x9C0C, symSize: 0x4 }
  - { offset: 0xD6F6, size: 0x8, addend: 0x0, symName: __ZN8crashpad19CrashReportDatabase12UploadReportD0Ev, symObjAddr: 0xD68, symBinAddr: 0x9C10, symSize: 0x14 }
  - { offset: 0xD72F, size: 0x8, addend: 0x0, symName: __ZN8crashpad19CrashReportDatabase12UploadReport10InitializeERKN4base8FilePathEPS0_, symObjAddr: 0xD7C, symBinAddr: 0x9C24, symSize: 0x30 }
  - { offset: 0xD762, size: 0x8, addend: 0x0, symName: __ZN8crashpad19CrashReportDatabase20RecordUploadCompleteENSt3__110unique_ptrIKNS0_12UploadReportENS1_14default_deleteIS4_EEEERKNS1_12basic_stringIcNS1_11char_traitsIcEENS1_9allocatorIcEEEE, symObjAddr: 0xDAC, symBinAddr: 0x9C54, symSize: 0x8 }
  - { offset: 0xD773, size: 0x8, addend: 0x0, symName: __ZN8crashpad19CrashReportDatabase19AttachmentsRootPathEv, symObjAddr: 0xDB4, symBinAddr: 0x9C5C, symSize: 0x98 }
  - { offset: 0xD933, size: 0x8, addend: 0x0, symName: __ZN8crashpad19CrashReportDatabase23RemoveAttachmentsByUUIDERKNS_4UUIDE, symObjAddr: 0xE4C, symBinAddr: 0x9CF4, symSize: 0x100 }
  - { offset: 0xDAD5, size: 0x8, addend: 0x0, symName: __ZNSt3__134__uninitialized_allocator_relocateB8ne190102INS_9allocatorIN4base13ScopedGenericINS2_8FilePathEN8crashpad22ScopedRemoveFileTraitsEEEEES7_EEvRT_PT0_SC_SC_, symObjAddr: 0x1600, symBinAddr: 0xA2F8, symSize: 0xA0 }
  - { offset: 0xDADF, size: 0x8, addend: 0x0, symName: __ZNSt3__134__uninitialized_allocator_relocateB8ne190102INS_9allocatorIN4base13ScopedGenericINS2_8FilePathEN8crashpad22ScopedRemoveFileTraitsEEEEES7_EEvRT_PT0_SC_SC_, symObjAddr: 0x1600, symBinAddr: 0xA2F8, symSize: 0xA0 }
  - { offset: 0xDC59, size: 0x8, addend: 0x0, symName: __ZNSt3__114__split_bufferIN4base13ScopedGenericINS1_8FilePathEN8crashpad22ScopedRemoveFileTraitsEEERNS_9allocatorIS6_EEED2Ev, symObjAddr: 0x16A0, symBinAddr: 0xA398, symSize: 0x4C }
  - { offset: 0xDD83, size: 0x8, addend: 0x0, symName: __ZN4base13ScopedGenericINS_8FilePathEN8crashpad22ScopedRemoveFileTraitsEE7releaseEv, symObjAddr: 0x1534, symBinAddr: 0xA284, symSize: 0x74 }
  - { offset: 0xDE21, size: 0x8, addend: 0x0, symName: __ZNSt3__16__treeINS_12__value_typeINS_12basic_stringIcNS_11char_traitsIcEENS_9allocatorIcEEEEPN8crashpad10FileReaderEEENS_19__map_value_compareIS7_SB_NS_4lessIS7_EELb1EEENS5_ISB_EEE12__find_equalIS7_EERPNS_16__tree_node_baseIPvEERPNS_15__tree_end_nodeISM_EERKT_, symObjAddr: 0x1828, symBinAddr: 0xA478, symSize: 0x98 }
  - { offset: 0xDE7C, size: 0x8, addend: 0x0, symName: __ZNSt3__16__treeINS_12__value_typeINS_12basic_stringIcNS_11char_traitsIcEENS_9allocatorIcEEEEPN8crashpad10FileReaderEEENS_19__map_value_compareIS7_SB_NS_4lessIS7_EELb1EEENS5_ISB_EEE16__construct_nodeIJRKNS_21piecewise_construct_tENS_5tupleIJRKS7_EEENSM_IJEEEEEENS_10unique_ptrINS_11__tree_nodeISB_PvEENS_22__tree_node_destructorINS5_ISU_EEEEEEDpOT_, symObjAddr: 0x18C0, symBinAddr: 0xA510, symSize: 0xA4 }
  - { offset: 0xE07A, size: 0x8, addend: 0x0, symName: __ZNKSt3__14lessINS_12basic_stringIcNS_11char_traitsIcEENS_9allocatorIcEEEEEclB8ne190102ERKS6_S9_, symObjAddr: 0x19B8, symBinAddr: 0xA5B4, symSize: 0x68 }
  - { offset: 0xE1B8, size: 0x8, addend: 0x0, symName: __ZNSt3__122__tree_node_destructorINS_9allocatorINS_11__tree_nodeINS_12__value_typeINS_12basic_stringIcNS_11char_traitsIcEENS1_IcEEEEPN8crashpad10FileReaderEEEPvEEEEEclB8ne190102EPSE_, symObjAddr: 0x1BBC, symBinAddr: 0xA61C, symSize: 0x50 }
  - { offset: 0xE4F7, size: 0x8, addend: 0x0, symName: __ZN8crashpad22CrashReportDatabaseMacC2ERKN4base8FilePathE, symObjAddr: 0x0, symBinAddr: 0xA6BC, symSize: 0x60 }
  - { offset: 0xE572, size: 0x8, addend: 0x0, symName: __ZN8crashpad22CrashReportDatabaseMacC1ERKN4base8FilePathE, symObjAddr: 0x60, symBinAddr: 0xA71C, symSize: 0x4 }
  - { offset: 0xE587, size: 0x8, addend: 0x0, symName: __ZN8crashpad22CrashReportDatabaseMacC1ERKN4base8FilePathE, symObjAddr: 0x60, symBinAddr: 0xA71C, symSize: 0x4 }
  - { offset: 0xE5A3, size: 0x8, addend: 0x0, symName: __ZN8crashpad22CrashReportDatabaseMacD2Ev, symObjAddr: 0x64, symBinAddr: 0xA720, symSize: 0x44 }
  - { offset: 0xE5FA, size: 0x8, addend: 0x0, symName: __ZN8crashpad22CrashReportDatabaseMacD1Ev, symObjAddr: 0xA8, symBinAddr: 0xA764, symSize: 0x44 }
  - { offset: 0xE667, size: 0x8, addend: 0x0, symName: __ZN8crashpad22CrashReportDatabaseMacD0Ev, symObjAddr: 0xEC, symBinAddr: 0xA7A8, symSize: 0x44 }
  - { offset: 0xE756, size: 0x8, addend: 0x0, symName: __ZN8crashpad22CrashReportDatabaseMac10InitializeEb, symObjAddr: 0x130, symBinAddr: 0xA7EC, symSize: 0x348 }
  - { offset: 0xF098, size: 0x8, addend: 0x0, symName: __ZN8crashpad12_GLOBAL__N_129CreateOrEnsureDirectoryExistsERKN4base8FilePathE, symObjAddr: 0x478, symBinAddr: 0xAB34, symSize: 0xF4 }
  - { offset: 0xF1D8, size: 0x8, addend: 0x0, symName: __ZN8crashpad12_GLOBAL__N_121EnsureDirectoryExistsERKN4base8FilePathE, symObjAddr: 0x56C, symBinAddr: 0xAC28, symSize: 0x15C }
  - { offset: 0xF44F, size: 0x8, addend: 0x0, symName: __ZN8crashpad12_GLOBAL__N_117XattrNameInternalERKN4base16BasicStringPieceINSt3__112basic_stringIcNS3_11char_traitsIcEENS3_9allocatorIcEEEEEEb, symObjAddr: 0x6C8, symBinAddr: 0xAD84, symSize: 0x9C }
  - { offset: 0xF753, size: 0x8, addend: 0x0, symName: __ZN8crashpad22CrashReportDatabaseMac9XattrNameERKN4base16BasicStringPieceINSt3__112basic_stringIcNS3_11char_traitsIcEENS3_9allocatorIcEEEEEE, symObjAddr: 0x764, symBinAddr: 0xAE20, symSize: 0x10 }
  - { offset: 0xF772, size: 0x8, addend: 0x0, symName: __ZN8crashpad22CrashReportDatabaseMac12DatabasePathEv, symObjAddr: 0x774, symBinAddr: 0xAE30, symSize: 0xC }
  - { offset: 0xF78F, size: 0x8, addend: 0x0, symName: __ZN8crashpad22CrashReportDatabaseMac11GetSettingsEv, symObjAddr: 0x780, symBinAddr: 0xAE3C, symSize: 0x84 }
  - { offset: 0xF7FA, size: 0x8, addend: 0x0, symName: __ZN8crashpad22CrashReportDatabaseMac16SettingsInternalEv, symObjAddr: 0x804, symBinAddr: 0xAEC0, symSize: 0x5C }
  - { offset: 0xF957, size: 0x8, addend: 0x0, symName: __ZN8crashpad22CrashReportDatabaseMac21PrepareNewCrashReportERKNSt3__112basic_stringIcNS1_11char_traitsIcEENS1_9allocatorIcEEEEPNS1_10unique_ptrINS_19CrashReportDatabase9NewReportENS1_14default_deleteISC_EEEE, symObjAddr: 0x860, symBinAddr: 0xAF1C, symSize: 0x320 }
  - { offset: 0x105FD, size: 0x8, addend: 0x0, symName: __ZNSt3__110unique_ptrIN8crashpad19CrashReportDatabase9NewReportENS_14default_deleteIS3_EEE5resetB8ne190102EPS3_, symObjAddr: 0xB80, symBinAddr: 0xB23C, symSize: 0x28 }
  - { offset: 0x1066C, size: 0x8, addend: 0x0, symName: __ZN8crashpad22CrashReportDatabaseMac26FinishedWritingCrashReportENSt3__110unique_ptrINS_19CrashReportDatabase9NewReportENS1_14default_deleteIS4_EEEEPNS_4UUIDE, symObjAddr: 0xBA8, symBinAddr: 0xB264, symSize: 0x518 }
  - { offset: 0x11435, size: 0x8, addend: 0x0, symName: __ZN8crashpad22CrashReportDatabaseMac17LookUpCrashReportERKNS_4UUIDEPNS_19CrashReportDatabase6ReportE, symObjAddr: 0x1134, symBinAddr: 0xB77C, symSize: 0x1B8 }
  - { offset: 0x11699, size: 0x8, addend: 0x0, symName: __ZN8crashpad22CrashReportDatabaseMac17LocateCrashReportERKNS_4UUIDEh, symObjAddr: 0x12EC, symBinAddr: 0xB934, symSize: 0x74C }
  - { offset: 0x12D75, size: 0x8, addend: 0x0, symName: __ZN8crashpad22CrashReportDatabaseMac16ObtainReportLockERKN4base8FilePathE, symObjAddr: 0x1A38, symBinAddr: 0xC080, symSize: 0xF4 }
  - { offset: 0x12F01, size: 0x8, addend: 0x0, symName: __ZN8crashpad22CrashReportDatabaseMac24ReadReportMetadataLockedERKN4base8FilePathEPNS_19CrashReportDatabase6ReportE, symObjAddr: 0x1B64, symBinAddr: 0xC174, symSize: 0x490 }
  - { offset: 0x141AF, size: 0x8, addend: 0x0, symName: __ZN8crashpad22CrashReportDatabaseMac17GetPendingReportsEPNSt3__16vectorINS_19CrashReportDatabase6ReportENS1_9allocatorIS4_EEEE, symObjAddr: 0x1FF4, symBinAddr: 0xC604, symSize: 0x104 }
  - { offset: 0x143C0, size: 0x8, addend: 0x0, symName: __ZN8crashpad22CrashReportDatabaseMac18ReportsInDirectoryERKN4base8FilePathEPNSt3__16vectorINS_19CrashReportDatabase6ReportENS5_9allocatorIS8_EEEE, symObjAddr: 0x20F8, symBinAddr: 0xC708, symSize: 0x50C }
  - { offset: 0x149D8, size: 0x8, addend: 0x0, symName: __ZNSt3__16vectorIN8crashpad19CrashReportDatabase6ReportENS_9allocatorIS3_EEE7reserveEm, symObjAddr: 0x3188, symBinAddr: 0xD798, symSize: 0xF8 }
  - { offset: 0x14B37, size: 0x8, addend: 0x0, symName: __ZNSt3__19allocatorIN8crashpad19CrashReportDatabase6ReportEE9constructB8ne190102IS3_JRKS3_EEEvPT_DpOT0_, symObjAddr: 0x4000, symBinAddr: 0xDD48, symSize: 0x80 }
  - { offset: 0x14BB5, size: 0x8, addend: 0x0, symName: __ZNSt3__16vectorIN8crashpad19CrashReportDatabase6ReportENS_9allocatorIS3_EEE21__push_back_slow_pathIRKS3_EEPS3_OT_, symObjAddr: 0x41A8, symBinAddr: 0xDEF0, symSize: 0x150 }
  - { offset: 0x14D44, size: 0x8, addend: 0x0, symName: __ZN8crashpad22CrashReportDatabaseMac19GetCompletedReportsEPNSt3__16vectorINS_19CrashReportDatabase6ReportENS1_9allocatorIS4_EEEE, symObjAddr: 0x2604, symBinAddr: 0xCC14, symSize: 0x104 }
  - { offset: 0x14F55, size: 0x8, addend: 0x0, symName: __ZN8crashpad22CrashReportDatabaseMac19RecordUploadAttemptEPNS_19CrashReportDatabase12UploadReportEbRKNSt3__112basic_stringIcNS4_11char_traitsIcEENS4_9allocatorIcEEEE, symObjAddr: 0x2708, symBinAddr: 0xCD18, symSize: 0x8 }
  - { offset: 0x14F66, size: 0x8, addend: 0x0, symName: __ZN8crashpad22CrashReportDatabaseMac12DeleteReportERKNS_4UUIDE, symObjAddr: 0x2710, symBinAddr: 0xCD20, symSize: 0x1C4 }
  - { offset: 0x151AE, size: 0x8, addend: 0x0, symName: __ZN8crashpad22CrashReportDatabaseMac13RequestUploadERKNS_4UUIDE, symObjAddr: 0x28D4, symBinAddr: 0xCEE4, symSize: 0x3B4 }
  - { offset: 0x15A65, size: 0x8, addend: 0x0, symName: __ZN8crashpad22CrashReportDatabaseMac13CleanDatabaseEl, symObjAddr: 0x2C88, symBinAddr: 0xD298, symSize: 0x178 }
  - { offset: 0x15C5F, size: 0x8, addend: 0x0, symName: __ZN8crashpad22CrashReportDatabaseMac24CleanOrphanedAttachmentsEv, symObjAddr: 0x2E00, symBinAddr: 0xD410, symSize: 0x388 }
  - { offset: 0x164F1, size: 0x8, addend: 0x0, symName: __ZNSt3__119__allocate_at_leastB8ne190102INS_9allocatorIN8crashpad19CrashReportDatabase6ReportEEEEENS_19__allocation_resultINS_16allocator_traitsIT_E7pointerEEERS8_m, symObjAddr: 0x3EF0, symBinAddr: 0xDC38, symSize: 0x48 }
  - { offset: 0x1653D, size: 0x8, addend: 0x0, symName: __ZNSt3__134__uninitialized_allocator_relocateB8ne190102INS_9allocatorIN8crashpad19CrashReportDatabase6ReportEEES4_EEvRT_PT0_S9_S9_, symObjAddr: 0x3F38, symBinAddr: 0xDC80, symSize: 0xC8 }
  - { offset: 0x16547, size: 0x8, addend: 0x0, symName: __ZNSt3__134__uninitialized_allocator_relocateB8ne190102INS_9allocatorIN8crashpad19CrashReportDatabase6ReportEEES4_EEvRT_PT0_S9_S9_, symObjAddr: 0x3F38, symBinAddr: 0xDC80, symSize: 0xC8 }
  - { offset: 0x16643, size: 0x8, addend: 0x0, symName: __ZNSt3__114__split_bufferIN8crashpad19CrashReportDatabase6ReportERNS_9allocatorIS3_EEED2Ev, symObjAddr: 0x4134, symBinAddr: 0xDE7C, symSize: 0x30 }
  - { offset: 0x166D7, size: 0x8, addend: 0x0, symName: __ZNSt3__119__allocate_at_leastB8ne190102INS_9allocatorIN8crashpad19CrashReportDatabase6ReportEEEEENS_19__allocation_resultINS_16allocator_traitsIT_E7pointerEEERS8_m, symObjAddr: 0x3EF0, symBinAddr: 0xDC38, symSize: 0x48 }
  - { offset: 0x166E1, size: 0x8, addend: 0x0, symName: __ZN8crashpad22CrashReportDatabaseMac25MarkReportCompletedLockedERKN4base8FilePathEPS2_, symObjAddr: 0x3280, symBinAddr: 0xD890, symSize: 0x264 }
  - { offset: 0x16D1C, size: 0x8, addend: 0x0, symName: __ZN8crashpad19CrashReportDatabase10InitializeERKN4base8FilePathE, symObjAddr: 0x34E4, symBinAddr: 0xDAF4, symSize: 0x8 }
  - { offset: 0x16D3B, size: 0x8, addend: 0x0, symName: __ZN8crashpadL18InitializeInternalERKN4base8FilePathEb, symObjAddr: 0x34EC, symBinAddr: 0xDAFC, symSize: 0x94 }
  - { offset: 0x16EB9, size: 0x8, addend: 0x0, symName: __ZN8crashpad19CrashReportDatabase25InitializeWithoutCreatingERKN4base8FilePathE, symObjAddr: 0x3580, symBinAddr: 0xDB90, symSize: 0x8 }
  - { offset: 0x16EDE, size: 0x8, addend: 0x0, symName: __ZNSt3__117__call_once_proxyB8ne190102INS_5tupleIJOZN8crashpad22CrashReportDatabaseMac16SettingsInternalEvEUlvE_EEEEEvPv, symObjAddr: 0x3598, symBinAddr: 0xDB98, symSize: 0x4 }
  - { offset: 0x16EF3, size: 0x8, addend: 0x0, symName: __ZNSt3__117__call_once_proxyB8ne190102INS_5tupleIJOZN8crashpad22CrashReportDatabaseMac16SettingsInternalEvEUlvE_EEEEEvPv, symObjAddr: 0x3598, symBinAddr: 0xDB98, symSize: 0x4 }
  - { offset: 0x16F07, size: 0x8, addend: 0x0, symName: __ZNSt3__117__call_once_proxyB8ne190102INS_5tupleIJOZN8crashpad22CrashReportDatabaseMac16SettingsInternalEvEUlvE_EEEEEvPv, symObjAddr: 0x3598, symBinAddr: 0xDB98, symSize: 0x4 }
  - { offset: 0x16F11, size: 0x8, addend: 0x0, symName: __ZNSt3__117__call_once_paramINS_5tupleIJOZN8crashpad22CrashReportDatabaseMac16SettingsInternalEvEUlvE_EEEE9__executeB8ne190102IJEEEvNS_15__tuple_indicesIJXspT_EEEE, symObjAddr: 0x359C, symBinAddr: 0xDB9C, symSize: 0x9C }
  - { offset: 0x17550, size: 0x8, addend: 0x0, symName: __ZNSt3__19allocatorIN8crashpad19CrashReportDatabase6ReportEE7destroyB8ne190102EPS3_, symObjAddr: 0x4080, symBinAddr: 0xDDC8, symSize: 0x30 }
  - { offset: 0x1764D, size: 0x8, addend: 0x0, symName: __ZNSt3__128__exception_guard_exceptionsINS_29_AllocatorDestroyRangeReverseINS_9allocatorIN8crashpad19CrashReportDatabase6ReportEEEPS5_EEED2B8ne190102Ev, symObjAddr: 0x40B0, symBinAddr: 0xDDF8, symSize: 0x34 }
  - { offset: 0x17678, size: 0x8, addend: 0x0, symName: __ZNKSt3__129_AllocatorDestroyRangeReverseINS_9allocatorIN8crashpad19CrashReportDatabase6ReportEEEPS4_EclB8ne190102Ev, symObjAddr: 0x40E4, symBinAddr: 0xDE2C, symSize: 0x50 }
  - { offset: 0x17740, size: 0x8, addend: 0x0, symName: __ZNSt3__114__split_bufferIN8crashpad19CrashReportDatabase6ReportERNS_9allocatorIS3_EEE5clearB8ne190102Ev, symObjAddr: 0x4164, symBinAddr: 0xDEAC, symSize: 0x44 }
  - { offset: 0x17849, size: 0x8, addend: 0x0, symName: __ZN8crashpad14CrashpadClientC2Ev, symObjAddr: 0x0, symBinAddr: 0xE040, symSize: 0x8 }
  - { offset: 0x1785E, size: 0x8, addend: 0x0, symName: __ZN8crashpad14CrashpadClientC2Ev, symObjAddr: 0x0, symBinAddr: 0xE040, symSize: 0x8 }
  - { offset: 0x17873, size: 0x8, addend: 0x0, symName: __ZN8crashpad14CrashpadClientC2Ev, symObjAddr: 0x0, symBinAddr: 0xE040, symSize: 0x8 }
  - { offset: 0x17887, size: 0x8, addend: 0x0, symName: __ZN8crashpad14CrashpadClientC2Ev, symObjAddr: 0x0, symBinAddr: 0xE040, symSize: 0x8 }
  - { offset: 0x1789B, size: 0x8, addend: 0x0, symName: __ZN8crashpad14CrashpadClientC2Ev, symObjAddr: 0x0, symBinAddr: 0xE040, symSize: 0x8 }
  - { offset: 0x178B5, size: 0x8, addend: 0x0, symName: __ZN8crashpad14CrashpadClientC1Ev, symObjAddr: 0x8, symBinAddr: 0xE048, symSize: 0x8 }
  - { offset: 0x178CA, size: 0x8, addend: 0x0, symName: __ZN8crashpad14CrashpadClientC1Ev, symObjAddr: 0x8, symBinAddr: 0xE048, symSize: 0x8 }
  - { offset: 0x178DF, size: 0x8, addend: 0x0, symName: __ZN8crashpad14CrashpadClientC1Ev, symObjAddr: 0x8, symBinAddr: 0xE048, symSize: 0x8 }
  - { offset: 0x178F4, size: 0x8, addend: 0x0, symName: __ZN8crashpad14CrashpadClientC1Ev, symObjAddr: 0x8, symBinAddr: 0xE048, symSize: 0x8 }
  - { offset: 0x17908, size: 0x8, addend: 0x0, symName: __ZN8crashpad14CrashpadClientC1Ev, symObjAddr: 0x8, symBinAddr: 0xE048, symSize: 0x8 }
  - { offset: 0x1791C, size: 0x8, addend: 0x0, symName: __ZN8crashpad14CrashpadClientC1Ev, symObjAddr: 0x8, symBinAddr: 0xE048, symSize: 0x8 }
  - { offset: 0x17937, size: 0x8, addend: 0x0, symName: __ZN8crashpad14CrashpadClientD2Ev, symObjAddr: 0x10, symBinAddr: 0xE050, symSize: 0x4 }
  - { offset: 0x1794C, size: 0x8, addend: 0x0, symName: __ZN8crashpad14CrashpadClientD2Ev, symObjAddr: 0x10, symBinAddr: 0xE050, symSize: 0x4 }
  - { offset: 0x17961, size: 0x8, addend: 0x0, symName: __ZN8crashpad14CrashpadClientD2Ev, symObjAddr: 0x10, symBinAddr: 0xE050, symSize: 0x4 }
  - { offset: 0x1796B, size: 0x8, addend: 0x0, symName: __ZN4base13ScopedGenericIjNS_3mac8internal15SendRightTraitsEED2Ev, symObjAddr: 0x20B8, symBinAddr: 0xF8F4, symSize: 0x34 }
  - { offset: 0x17997, size: 0x8, addend: 0x0, symName: __ZN8crashpad14CrashpadClientD1Ev, symObjAddr: 0x14, symBinAddr: 0xE054, symSize: 0x4 }
  - { offset: 0x179AC, size: 0x8, addend: 0x0, symName: __ZN8crashpad14CrashpadClientD1Ev, symObjAddr: 0x14, symBinAddr: 0xE054, symSize: 0x4 }
  - { offset: 0x179C1, size: 0x8, addend: 0x0, symName: __ZN8crashpad14CrashpadClientD1Ev, symObjAddr: 0x14, symBinAddr: 0xE054, symSize: 0x4 }
  - { offset: 0x179D7, size: 0x8, addend: 0x0, symName: __ZN8crashpad14CrashpadClientD1Ev, symObjAddr: 0x14, symBinAddr: 0xE054, symSize: 0x4 }
  - { offset: 0x17A17, size: 0x8, addend: 0x0, symName: __ZN8crashpad14CrashpadClient29StartCrashpadInProcessHandlerERKNSt3__112basic_stringIcNS1_11char_traitsIcEENS1_9allocatorIcEEEES9_RKN4base8FilePathES9_RKNS1_3mapIS7_S7_NS1_4lessIS7_EENS5_INS1_4pairIS8_S7_EEEEEENS1_8functionIFvvEEE, symObjAddr: 0x18, symBinAddr: 0xE058, symSize: 0x18C }
  - { offset: 0x17BA6, size: 0x8, addend: 0x0, symName: __ZN8crashpad12CrashHandler3GetEv, symObjAddr: 0x1A4, symBinAddr: 0xE1E4, symSize: 0x5C }
  - { offset: 0x17C79, size: 0x8, addend: 0x0, symName: __ZNSt3__110__function12__value_funcIFvvEEC2B8ne190102ERKS3_, symObjAddr: 0x1D10, symBinAddr: 0xF890, symSize: 0x64 }
  - { offset: 0x17CA1, size: 0x8, addend: 0x0, symName: __ZN8crashpad12CrashHandler16ahsdk_InitializeERKNSt3__112basic_stringIcNS1_11char_traitsIcEENS1_9allocatorIcEEEES9_RKN4base8FilePathES9_RKNS1_3mapIS7_S7_NS1_4lessIS7_EENS5_INS1_4pairIS8_S7_EEEEEENS1_8functionIFvvEEE, symObjAddr: 0x200, symBinAddr: 0xE240, symSize: 0x298 }
  - { offset: 0x17E71, size: 0x8, addend: 0x0, symName: __ZN8crashpad12CrashHandlerC2Ev, symObjAddr: 0xBA8, symBinAddr: 0xEBE8, symSize: 0xF8 }
  - { offset: 0x18244, size: 0x8, addend: 0x0, symName: __ZN8crashpad14CrashpadClient24ProcessIntermediateDumpsERKNSt3__13mapINS1_12basic_stringIcNS1_11char_traitsIcEENS1_9allocatorIcEEEES8_NS1_4lessIS8_EENS6_INS1_4pairIKS8_S8_EEEEEE, symObjAddr: 0x498, symBinAddr: 0xE4D8, symSize: 0xA8 }
  - { offset: 0x182CF, size: 0x8, addend: 0x0, symName: __ZN8crashpad14CrashpadClient28ProcessCallStackSymbolsDumpsEv, symObjAddr: 0x540, symBinAddr: 0xE580, symSize: 0xA0 }
  - { offset: 0x1835A, size: 0x8, addend: 0x0, symName: __ZN8crashpad14CrashpadClient23ProcessIntermediateDumpERKN4base8FilePathERKNSt3__13mapINS5_12basic_stringIcNS5_11char_traitsIcEENS5_9allocatorIcEEEESC_NS5_4lessISC_EENSA_INS5_4pairIKSC_SC_EEEEEE, symObjAddr: 0x5E0, symBinAddr: 0xE620, symSize: 0xB8 }
  - { offset: 0x183DF, size: 0x8, addend: 0x0, symName: __ZN8crashpad14CrashpadClient16DumpWithoutCrashEP24arm_unified_thread_state, symObjAddr: 0x698, symBinAddr: 0xE6D8, symSize: 0xAC }
  - { offset: 0x1845C, size: 0x8, addend: 0x0, symName: __ZN8crashpad12CrashHandler16DumpWithoutCrashEP24arm_unified_thread_stateb, symObjAddr: 0x744, symBinAddr: 0xE784, symSize: 0x110 }
  - { offset: 0x186FA, size: 0x8, addend: 0x0, symName: __ZN8crashpad14CrashpadClient34DumpWithoutCrashAndDeferProcessingEP24arm_unified_thread_state, symObjAddr: 0x854, symBinAddr: 0xE894, symSize: 0xAC }
  - { offset: 0x1877D, size: 0x8, addend: 0x0, symName: __ZN8crashpad14CrashpadClient40DumpWithoutCrashAndDeferProcessingAtPathEP24arm_unified_thread_stateN4base8FilePathE, symObjAddr: 0x900, symBinAddr: 0xE940, symSize: 0xC0 }
  - { offset: 0x18808, size: 0x8, addend: 0x0, symName: __ZN8crashpad14CrashpadClient15ResetForTestingEv, symObjAddr: 0x9C0, symBinAddr: 0xEA00, symSize: 0xA8 }
  - { offset: 0x188A4, size: 0x8, addend: 0x0, symName: __ZN8crashpad14CrashpadClient34SetMachExceptionCallbackForTestingEPFvvE, symObjAddr: 0xA68, symBinAddr: 0xEAA8, symSize: 0xA0 }
  - { offset: 0x18944, size: 0x8, addend: 0x0, symName: __ZN8crashpad14CrashpadClient21GetThreadIdForTestingEv, symObjAddr: 0xB08, symBinAddr: 0xEB48, symSize: 0xA0 }
  - { offset: 0x18AC3, size: 0x8, addend: 0x0, symName: __ZN4base13ScopedGenericIjNS_3mac8internal18ReceiveRightTraitsEED2Ev, symObjAddr: 0x13B0, symBinAddr: 0xF288, symSize: 0x34 }
  - { offset: 0x18AE9, size: 0x8, addend: 0x0, symName: __ZN8crashpad12CrashHandlerD1Ev, symObjAddr: 0xCA0, symBinAddr: 0xECE0, symSize: 0x4 }
  - { offset: 0x18AFE, size: 0x8, addend: 0x0, symName: __ZN8crashpad12CrashHandlerD1Ev, symObjAddr: 0xCA0, symBinAddr: 0xECE0, symSize: 0x4 }
  - { offset: 0x18B08, size: 0x8, addend: 0x0, symName: __ZN8crashpad12CrashHandlerD2Ev, symObjAddr: 0x13E4, symBinAddr: 0xF2BC, symSize: 0xA8 }
  - { offset: 0x18CA5, size: 0x8, addend: 0x0, symName: __ZN8crashpad12CrashHandlerD0Ev, symObjAddr: 0xCA4, symBinAddr: 0xECE4, symSize: 0x14 }
  - { offset: 0x18CEA, size: 0x8, addend: 0x0, symName: __ZN8crashpad12CrashHandler10ThreadMainEv, symObjAddr: 0xCB8, symBinAddr: 0xECF8, symSize: 0x160 }
  - { offset: 0x18DCA, size: 0x8, addend: 0x0, symName: __ZN8crashpad12CrashHandler18CatchMachExceptionEijjjiPKxjPiPKjjPjS6_PK18mach_msg_trailer_tPb, symObjAddr: 0xE18, symBinAddr: 0xEE58, symSize: 0xBC }
  - { offset: 0x18E19, size: 0x8, addend: 0x0, symName: __ZN8crashpad12CrashHandler25HandleUncaughtNSExceptionEPKym, symObjAddr: 0xED4, symBinAddr: 0xEF14, symSize: 0xE8 }
  - { offset: 0x18E89, size: 0x8, addend: 0x0, symName: __ZN8crashpad12CrashHandler22HandleCallstackSymbolsEP7NSArrayIP8NSStringEb, symObjAddr: 0x14D4, symBinAddr: 0xF3AC, symSize: 0x348 }
  - { offset: 0x194EE, size: 0x8, addend: 0x0, symName: __ZN8crashpad12CrashHandler36HandleUncaughtNSExceptionWithContextEP24arm_unified_thread_state, symObjAddr: 0xFBC, symBinAddr: 0xEFFC, symSize: 0x120 }
  - { offset: 0x1955E, size: 0x8, addend: 0x0, symName: __ZN8crashpad12CrashHandler42HandleUncaughtNSExceptionWithContextAtPathEP24arm_unified_thread_stateRKN4base8FilePathE, symObjAddr: 0x10DC, symBinAddr: 0xF11C, symSize: 0x70 }
  - { offset: 0x1957D, size: 0x8, addend: 0x0, symName: __ZN8crashpad12CrashHandler35MoveIntermediateDumpAtPathToPendingERKN4base8FilePathE, symObjAddr: 0x114C, symBinAddr: 0xF18C, symSize: 0xAC }
  - { offset: 0x195E0, size: 0x8, addend: 0x0, symName: __ZThn16_N8crashpad12CrashHandler18CatchMachExceptionEijjjiPKxjPiPKjjPjS6_PK18mach_msg_trailer_tPb, symObjAddr: 0x11F8, symBinAddr: 0xF238, symSize: 0x30 }
  - { offset: 0x195FB, size: 0x8, addend: 0x0, symName: __ZThn24_N8crashpad12CrashHandler36HandleUncaughtNSExceptionWithContextEP24arm_unified_thread_state, symObjAddr: 0x1228, symBinAddr: 0xF268, symSize: 0x8 }
  - { offset: 0x19616, size: 0x8, addend: 0x0, symName: __ZThn24_N8crashpad12CrashHandler25HandleUncaughtNSExceptionEPKym, symObjAddr: 0x1230, symBinAddr: 0xF270, symSize: 0x8 }
  - { offset: 0x19631, size: 0x8, addend: 0x0, symName: __ZThn24_N8crashpad12CrashHandler42HandleUncaughtNSExceptionWithContextAtPathEP24arm_unified_thread_stateRKN4base8FilePathE, symObjAddr: 0x1238, symBinAddr: 0xF278, symSize: 0x8 }
  - { offset: 0x1964C, size: 0x8, addend: 0x0, symName: __ZThn24_N8crashpad12CrashHandler35MoveIntermediateDumpAtPathToPendingERKN4base8FilePathE, symObjAddr: 0x1240, symBinAddr: 0xF280, symSize: 0x8 }
  - { offset: 0x1976E, size: 0x8, addend: 0x0, symName: __ZN4base13ScopedGenericIjNS_3mac8internal18ReceiveRightTraitsEE5resetERKj, symObjAddr: 0x148C, symBinAddr: 0xF364, symSize: 0x48 }
  - { offset: 0x19797, size: 0x8, addend: 0x0, symName: __ZN8crashpad12CrashHandler22HandleCallstackSymbolsEP7NSArrayIP8NSStringEb, symObjAddr: 0x14D4, symBinAddr: 0xF3AC, symSize: 0x348 }
  - { offset: 0x1983E, size: 0x8, addend: 0x0, symName: __ZNSt3__16vectorINS_12basic_stringIcNS_11char_traitsIcEENS_9allocatorIcEEEENS4_IS6_EEE7reserveEm, symObjAddr: 0x181C, symBinAddr: 0xF6F4, symSize: 0xBC }
  - { offset: 0x19B74, size: 0x8, addend: 0x0, symName: __ZN8crashpad12CrashHandler21CatchAndReraiseSignalEiP9__siginfoPv, symObjAddr: 0x1A44, symBinAddr: 0xF7B0, symSize: 0x58 }
  - { offset: 0x19BAD, size: 0x8, addend: 0x0, symName: __ZN8crashpad12CrashHandler22HandleAndReraiseSignalEiP9__siginfoP17__darwin_ucontextP9sigaction, symObjAddr: 0x1BFC, symBinAddr: 0xF808, symSize: 0x88 }
  - { offset: 0x19F19, size: 0x8, addend: 0x0, symName: __ZN4base13ScopedGenericIjNS_3mac8internal15SendRightTraitsEED2Ev, symObjAddr: 0x20B8, symBinAddr: 0xF8F4, symSize: 0x34 }
  - { offset: 0x19F63, size: 0x8, addend: 0x0, symName: __ZN8crashpad12CrashpadInfoC1Ev, symObjAddr: 0x0, symBinAddr: 0xF928, symSize: 0x28 }
  - { offset: 0x19F76, size: 0x8, addend: 0x0, symName: __ZN8crashpad12CrashpadInfoC1Ev, symObjAddr: 0x0, symBinAddr: 0xF928, symSize: 0x28 }
  - { offset: 0x19F9C, size: 0x8, addend: 0x0, symName: __ZN8crashpad12CrashpadInfo15GetCrashpadInfoEv, symObjAddr: 0x28, symBinAddr: 0xF950, symSize: 0xC }
  - { offset: 0x19FAD, size: 0x8, addend: 0x0, symName: __ZN8crashpad12CrashpadInfoC2Ev, symObjAddr: 0x34, symBinAddr: 0xF95C, symSize: 0x28 }
  - { offset: 0x19FBE, size: 0x8, addend: 0x0, symName: __ZN8crashpad12CrashpadInfo25AddUserDataMinidumpStreamEjPKvm, symObjAddr: 0x5C, symBinAddr: 0xF984, symSize: 0x4C }
  - { offset: 0x1A00A, size: 0x8, addend: 0x0, symName: __ZN8crashpad25CrashpadInfoClientOptions24TriStateFromCrashpadInfoEh, symObjAddr: 0x0, symBinAddr: 0xF9D0, symSize: 0x98 }
  - { offset: 0x1A0E9, size: 0x8, addend: 0x0, symName: __ZN8crashpad25CrashpadInfoClientOptionsC2Ev, symObjAddr: 0x98, symBinAddr: 0xFA68, symSize: 0x10 }
  - { offset: 0x1A100, size: 0x8, addend: 0x0, symName: __ZN8crashpad25CrashpadInfoClientOptionsC1Ev, symObjAddr: 0xA8, symBinAddr: 0xFA78, symSize: 0x10 }
  - { offset: 0x1A115, size: 0x8, addend: 0x0, symName: __ZN8crashpad25CrashpadInfoClientOptionsC1Ev, symObjAddr: 0xA8, symBinAddr: 0xFA78, symSize: 0x10 }
  - { offset: 0x1A460, size: 0x8, addend: 0x0, symName: __ZN8crashpad15DirectoryReaderC2Ev, symObjAddr: 0x0, symBinAddr: 0xFA88, symSize: 0x8 }
  - { offset: 0x1A475, size: 0x8, addend: 0x0, symName: __ZN8crashpad15DirectoryReaderC2Ev, symObjAddr: 0x0, symBinAddr: 0xFA88, symSize: 0x8 }
  - { offset: 0x1A489, size: 0x8, addend: 0x0, symName: __ZN8crashpad15DirectoryReaderC2Ev, symObjAddr: 0x0, symBinAddr: 0xFA88, symSize: 0x8 }
  - { offset: 0x1A49D, size: 0x8, addend: 0x0, symName: __ZN8crashpad15DirectoryReaderC2Ev, symObjAddr: 0x0, symBinAddr: 0xFA88, symSize: 0x8 }
  - { offset: 0x1A4B1, size: 0x8, addend: 0x0, symName: __ZN8crashpad15DirectoryReaderC2Ev, symObjAddr: 0x0, symBinAddr: 0xFA88, symSize: 0x8 }
  - { offset: 0x1A4CB, size: 0x8, addend: 0x0, symName: __ZN8crashpad15DirectoryReaderC1Ev, symObjAddr: 0x8, symBinAddr: 0xFA90, symSize: 0x8 }
  - { offset: 0x1A4E0, size: 0x8, addend: 0x0, symName: __ZN8crashpad15DirectoryReaderC1Ev, symObjAddr: 0x8, symBinAddr: 0xFA90, symSize: 0x8 }
  - { offset: 0x1A4F4, size: 0x8, addend: 0x0, symName: __ZN8crashpad15DirectoryReaderC1Ev, symObjAddr: 0x8, symBinAddr: 0xFA90, symSize: 0x8 }
  - { offset: 0x1A508, size: 0x8, addend: 0x0, symName: __ZN8crashpad15DirectoryReaderC1Ev, symObjAddr: 0x8, symBinAddr: 0xFA90, symSize: 0x8 }
  - { offset: 0x1A51C, size: 0x8, addend: 0x0, symName: __ZN8crashpad15DirectoryReaderC1Ev, symObjAddr: 0x8, symBinAddr: 0xFA90, symSize: 0x8 }
  - { offset: 0x1A530, size: 0x8, addend: 0x0, symName: __ZN8crashpad15DirectoryReaderC1Ev, symObjAddr: 0x8, symBinAddr: 0xFA90, symSize: 0x8 }
  - { offset: 0x1A54B, size: 0x8, addend: 0x0, symName: __ZN8crashpad15DirectoryReaderD2Ev, symObjAddr: 0x10, symBinAddr: 0xFA98, symSize: 0x4 }
  - { offset: 0x1A560, size: 0x8, addend: 0x0, symName: __ZN8crashpad15DirectoryReaderD2Ev, symObjAddr: 0x10, symBinAddr: 0xFA98, symSize: 0x4 }
  - { offset: 0x1A574, size: 0x8, addend: 0x0, symName: __ZN8crashpad15DirectoryReaderD2Ev, symObjAddr: 0x10, symBinAddr: 0xFA98, symSize: 0x4 }
  - { offset: 0x1A57E, size: 0x8, addend: 0x0, symName: __ZN4base13ScopedGenericIP3DIRN8crashpad8internal20ScopedDIRCloseTraitsEED2Ev, symObjAddr: 0x454, symBinAddr: 0xFECC, symSize: 0x34 }
  - { offset: 0x1A5AA, size: 0x8, addend: 0x0, symName: __ZN8crashpad15DirectoryReaderD1Ev, symObjAddr: 0x14, symBinAddr: 0xFA9C, symSize: 0x4 }
  - { offset: 0x1A5BF, size: 0x8, addend: 0x0, symName: __ZN8crashpad15DirectoryReaderD1Ev, symObjAddr: 0x14, symBinAddr: 0xFA9C, symSize: 0x4 }
  - { offset: 0x1A5D3, size: 0x8, addend: 0x0, symName: __ZN8crashpad15DirectoryReaderD1Ev, symObjAddr: 0x14, symBinAddr: 0xFA9C, symSize: 0x4 }
  - { offset: 0x1A5E8, size: 0x8, addend: 0x0, symName: __ZN8crashpad15DirectoryReaderD1Ev, symObjAddr: 0x14, symBinAddr: 0xFA9C, symSize: 0x4 }
  - { offset: 0x1A628, size: 0x8, addend: 0x0, symName: __ZN8crashpad15DirectoryReader4OpenERKN4base8FilePathE, symObjAddr: 0x18, symBinAddr: 0xFAA0, symSize: 0xF4 }
  - { offset: 0x1A782, size: 0x8, addend: 0x0, symName: __ZN4base13ScopedGenericIP3DIRN8crashpad8internal20ScopedDIRCloseTraitsEE5resetERKS2_, symObjAddr: 0x10C, symBinAddr: 0xFB94, symSize: 0x48 }
  - { offset: 0x1A7AB, size: 0x8, addend: 0x0, symName: __ZN8crashpad15DirectoryReader8NextFileEPN4base8FilePathE, symObjAddr: 0x154, symBinAddr: 0xFBDC, symSize: 0x1EC }
  - { offset: 0x1A898, size: 0x8, addend: 0x0, symName: __ZN8crashpad15DirectoryReader8NextFileEPN4base8FilePathE, symObjAddr: 0x154, symBinAddr: 0xFBDC, symSize: 0x1EC }
  - { offset: 0x1AC48, size: 0x8, addend: 0x0, symName: __ZN8crashpad15DirectoryReader11DirectoryFDEv, symObjAddr: 0x340, symBinAddr: 0xFDC8, symSize: 0x104 }
  - { offset: 0x1B022, size: 0x8, addend: 0x0, symName: ___MIG_check__Request__exception_raise_t, symObjAddr: 0x0, symBinAddr: 0xFF00, symSize: 0x80 }
  - { offset: 0x1B02F, size: 0x8, addend: 0x0, symName: ___MIG_check__Request__exception_raise_t, symObjAddr: 0x0, symBinAddr: 0xFF00, symSize: 0x80 }
  - { offset: 0x1B040, size: 0x8, addend: 0x0, symName: ___MIG_check__Request__exception_raise_state_t, symObjAddr: 0x80, symBinAddr: 0xFF80, symSize: 0x88 }
  - { offset: 0x1B051, size: 0x8, addend: 0x0, symName: ___MIG_check__Request__exception_raise_state_identity_t, symObjAddr: 0x108, symBinAddr: 0x10008, symSize: 0xC4 }
  - { offset: 0x1B062, size: 0x8, addend: 0x0, symName: _exc_server_routine, symObjAddr: 0x1CC, symBinAddr: 0x100CC, symSize: 0x34 }
  - { offset: 0x1B073, size: 0x8, addend: 0x0, symName: __Xexception_raise, symObjAddr: 0x200, symBinAddr: 0x10100, symSize: 0x44 }
  - { offset: 0x1B095, size: 0x8, addend: 0x0, symName: __Xexception_raise_state, symObjAddr: 0x244, symBinAddr: 0x10144, symSize: 0x58 }
  - { offset: 0x1B0A6, size: 0x8, addend: 0x0, symName: __Xexception_raise_state, symObjAddr: 0x244, symBinAddr: 0x10144, symSize: 0x58 }
  - { offset: 0x1B0C8, size: 0x8, addend: 0x0, symName: __Xexception_raise_state_identity, symObjAddr: 0x29C, symBinAddr: 0x1019C, symSize: 0x58 }
  - { offset: 0x1B0D2, size: 0x8, addend: 0x0, symName: __Xexception_raise_state_identity, symObjAddr: 0x29C, symBinAddr: 0x1019C, symSize: 0x58 }
  - { offset: 0x1B0F4, size: 0x8, addend: 0x0, symName: _exc_server, symObjAddr: 0x2F4, symBinAddr: 0x101F4, symSize: 0x88 }
  - { offset: 0x1B0FE, size: 0x8, addend: 0x0, symName: _exc_server, symObjAddr: 0x2F4, symBinAddr: 0x101F4, symSize: 0x88 }
  - { offset: 0x1B276, size: 0x8, addend: 0x0, symName: __ZN8crashpad22UniversalMachExcServerC2EPNS0_9InterfaceE, symObjAddr: 0x0, symBinAddr: 0x1027C, symSize: 0x64 }
  - { offset: 0x1B2A7, size: 0x8, addend: 0x0, symName: __ZN8crashpad22UniversalMachExcServerC2EPNS0_9InterfaceE, symObjAddr: 0x0, symBinAddr: 0x1027C, symSize: 0x64 }
  - { offset: 0x1B344, size: 0x8, addend: 0x0, symName: __ZN8crashpad8internal26UniversalMachExcServerImplC2EPNS_22UniversalMachExcServer9InterfaceE, symObjAddr: 0x17C, symBinAddr: 0x103F8, symSize: 0xC4 }
  - { offset: 0x1B3C8, size: 0x8, addend: 0x0, symName: __ZN8crashpad22UniversalMachExcServerC1EPNS0_9InterfaceE, symObjAddr: 0x64, symBinAddr: 0x102E0, symSize: 0x4 }
  - { offset: 0x1B3DD, size: 0x8, addend: 0x0, symName: __ZN8crashpad22UniversalMachExcServerC1EPNS0_9InterfaceE, symObjAddr: 0x64, symBinAddr: 0x102E0, symSize: 0x4 }
  - { offset: 0x1B3F3, size: 0x8, addend: 0x0, symName: __ZN8crashpad22UniversalMachExcServerD2Ev, symObjAddr: 0x68, symBinAddr: 0x102E4, symSize: 0x2C }
  - { offset: 0x1B43D, size: 0x8, addend: 0x0, symName: __ZNSt3__110unique_ptrIN8crashpad8internal26UniversalMachExcServerImplENS_14default_deleteIS3_EEE5resetB8ne190102EPS3_, symObjAddr: 0x15C0, symBinAddr: 0x11528, symSize: 0x28 }
  - { offset: 0x1B495, size: 0x8, addend: 0x0, symName: __ZN8crashpad22UniversalMachExcServerD1Ev, symObjAddr: 0x94, symBinAddr: 0x10310, symSize: 0x2C }
  - { offset: 0x1B4FB, size: 0x8, addend: 0x0, symName: __ZN8crashpad22UniversalMachExcServer25MachMessageServerFunctionEPK17mach_msg_header_tPS1_Pb, symObjAddr: 0xC0, symBinAddr: 0x1033C, symSize: 0x8 }
  - { offset: 0x1B510, size: 0x8, addend: 0x0, symName: __ZN8crashpad22UniversalMachExcServer25MachMessageServerFunctionEPK17mach_msg_header_tPS1_Pb, symObjAddr: 0xC0, symBinAddr: 0x1033C, symSize: 0x8 }
  - { offset: 0x1B522, size: 0x8, addend: 0x0, symName: __ZN8crashpad22UniversalMachExcServer27MachMessageServerRequestIDsEv, symObjAddr: 0xC8, symBinAddr: 0x10344, symSize: 0x8 }
  - { offset: 0x1B537, size: 0x8, addend: 0x0, symName: __ZN8crashpad22UniversalMachExcServer27MachMessageServerRequestIDsEv, symObjAddr: 0xC8, symBinAddr: 0x10344, symSize: 0x8 }
  - { offset: 0x1B549, size: 0x8, addend: 0x0, symName: __ZN8crashpad22UniversalMachExcServer28MachMessageServerRequestSizeEv, symObjAddr: 0xD0, symBinAddr: 0x1034C, symSize: 0x8 }
  - { offset: 0x1B55E, size: 0x8, addend: 0x0, symName: __ZN8crashpad22UniversalMachExcServer28MachMessageServerRequestSizeEv, symObjAddr: 0xD0, symBinAddr: 0x1034C, symSize: 0x8 }
  - { offset: 0x1B570, size: 0x8, addend: 0x0, symName: __ZN8crashpad22UniversalMachExcServer26MachMessageServerReplySizeEv, symObjAddr: 0xD8, symBinAddr: 0x10354, symSize: 0x8 }
  - { offset: 0x1B585, size: 0x8, addend: 0x0, symName: __ZN8crashpad22UniversalMachExcServer26MachMessageServerReplySizeEv, symObjAddr: 0xD8, symBinAddr: 0x10354, symSize: 0x8 }
  - { offset: 0x1B597, size: 0x8, addend: 0x0, symName: __ZN8crashpad30ExcServerSuccessfulReturnValueEiib, symObjAddr: 0xE0, symBinAddr: 0x1035C, symSize: 0x38 }
  - { offset: 0x1B5CF, size: 0x8, addend: 0x0, symName: __ZN8crashpad18ExcServerCopyStateEiPKjjPjS2_, symObjAddr: 0x118, symBinAddr: 0x10394, symSize: 0x64 }
  - { offset: 0x1B6F3, size: 0x8, addend: 0x0, symName: __ZN8crashpad8internal26UniversalMachExcServerImpl14CatchExceptionEijjjiPKijPiPKjjPjS7_PK18mach_msg_trailer_tPb, symObjAddr: 0x240, symBinAddr: 0x104BC, symSize: 0x1D8 }
  - { offset: 0x1BAD4, size: 0x8, addend: 0x0, symName: __ZNSt3__16vectorIxNS_9allocatorIxEEE7reserveEm, symObjAddr: 0x1474, symBinAddr: 0x11498, symSize: 0x90 }
  - { offset: 0x1BC66, size: 0x8, addend: 0x0, symName: __ZNSt3__110unique_ptrIN8crashpad8internal26UniversalMachExcServerImplENS_14default_deleteIS3_EEE5resetB8ne190102EPS3_, symObjAddr: 0x15C0, symBinAddr: 0x11528, symSize: 0x28 }
  - { offset: 0x1BC83, size: 0x8, addend: 0x0, symName: __ZN8crashpad8internal26UniversalMachExcServerImpl14CatchExceptionEijjjiPKxjPiPKjjPjS7_PK18mach_msg_trailer_tPb, symObjAddr: 0x418, symBinAddr: 0x10694, symSize: 0x48 }
  - { offset: 0x1BCA0, size: 0x8, addend: 0x0, symName: __ZThn40_N8crashpad8internal26UniversalMachExcServerImpl14CatchExceptionEijjjiPKijPiPKjjPjS7_PK18mach_msg_trailer_tPb, symObjAddr: 0x460, symBinAddr: 0x106DC, symSize: 0x30 }
  - { offset: 0x1BCC1, size: 0x8, addend: 0x0, symName: __ZThn48_N8crashpad8internal26UniversalMachExcServerImpl14CatchExceptionEijjjiPKxjPiPKjjPjS7_PK18mach_msg_trailer_tPb, symObjAddr: 0x490, symBinAddr: 0x1070C, symSize: 0x48 }
  - { offset: 0x1BCFF, size: 0x8, addend: 0x0, symName: __ZN8crashpad12_GLOBAL__N_19ExcServerINS0_9ExcTraitsEE25MachMessageServerFunctionEPK17mach_msg_header_tPS4_Pb, symObjAddr: 0x4D8, symBinAddr: 0x10754, symSize: 0x1D8 }
  - { offset: 0x1BDFF, size: 0x8, addend: 0x0, symName: __ZN8crashpad12_GLOBAL__N_19ExcServerINS0_9ExcTraitsEE27MachMessageServerRequestIDsEv, symObjAddr: 0x6B0, symBinAddr: 0x1092C, symSize: 0x70 }
  - { offset: 0x1BE2A, size: 0x8, addend: 0x0, symName: __ZNSt3__13setIiNS_4lessIiEENS_9allocatorIiEEEC2B8ne190102IPKiEET_S9_RKS2_, symObjAddr: 0xA20, symBinAddr: 0x10C9C, symSize: 0x80 }
  - { offset: 0x1BF2D, size: 0x8, addend: 0x0, symName: __ZN8crashpad12_GLOBAL__N_19ExcServerINS0_9ExcTraitsEE28MachMessageServerRequestSizeEv, symObjAddr: 0x720, symBinAddr: 0x1099C, symSize: 0x8 }
  - { offset: 0x1BF3E, size: 0x8, addend: 0x0, symName: __ZN8crashpad12_GLOBAL__N_19ExcServerINS0_9ExcTraitsEE26MachMessageServerReplySizeEv, symObjAddr: 0x728, symBinAddr: 0x109A4, symSize: 0x8 }
  - { offset: 0x1BF4F, size: 0x8, addend: 0x0, symName: __ZN8crashpad12_GLOBAL__N_119SimplifiedExcServerINS0_9ExcTraitsEE19CatchExceptionRaiseEjjjiPKijPK18mach_msg_trailer_tPb, symObjAddr: 0x730, symBinAddr: 0x109AC, symSize: 0x74 }
  - { offset: 0x1BF6C, size: 0x8, addend: 0x0, symName: __ZN8crashpad12_GLOBAL__N_119SimplifiedExcServerINS0_9ExcTraitsEE24CatchExceptionRaiseStateEjiPKijPiPKjjPjS9_PK18mach_msg_trailer_t, symObjAddr: 0x7A4, symBinAddr: 0x10A20, symSize: 0x84 }
  - { offset: 0x1BF89, size: 0x8, addend: 0x0, symName: __ZN8crashpad12_GLOBAL__N_119SimplifiedExcServerINS0_9ExcTraitsEE32CatchExceptionRaiseStateIdentityEjjjiPKijPiPKjjPjS9_PK18mach_msg_trailer_tPb, symObjAddr: 0x828, symBinAddr: 0x10AA4, symSize: 0x80 }
  - { offset: 0x1BFAC, size: 0x8, addend: 0x0, symName: __ZThn16_N8crashpad12_GLOBAL__N_119SimplifiedExcServerINS0_9ExcTraitsEE19CatchExceptionRaiseEjjjiPKijPK18mach_msg_trailer_tPb, symObjAddr: 0x8A8, symBinAddr: 0x10B24, symSize: 0x74 }
  - { offset: 0x1BFDE, size: 0x8, addend: 0x0, symName: __ZThn16_N8crashpad12_GLOBAL__N_119SimplifiedExcServerINS0_9ExcTraitsEE24CatchExceptionRaiseStateEjiPKijPiPKjjPjS9_PK18mach_msg_trailer_t, symObjAddr: 0x91C, symBinAddr: 0x10B98, symSize: 0x84 }
  - { offset: 0x1C010, size: 0x8, addend: 0x0, symName: __ZThn16_N8crashpad12_GLOBAL__N_119SimplifiedExcServerINS0_9ExcTraitsEE32CatchExceptionRaiseStateIdentityEjjjiPKijPiPKjjPjS9_PK18mach_msg_trailer_tPb, symObjAddr: 0x9A0, symBinAddr: 0x10C1C, symSize: 0x80 }
  - { offset: 0x1C078, size: 0x8, addend: 0x0, symName: __ZNSt3__16__treeIiNS_4lessIiEENS_9allocatorIiEEE30__emplace_hint_unique_key_argsIiJRKiEEENS_4pairINS_15__tree_iteratorIiPNS_11__tree_nodeIiPvEElEEbEENS_21__tree_const_iteratorIiSE_lEERKT_DpOT0_, symObjAddr: 0xAA0, symBinAddr: 0x10D1C, symSize: 0x84 }
  - { offset: 0x1C1B5, size: 0x8, addend: 0x0, symName: __ZNSt3__16__treeIiNS_4lessIiEENS_9allocatorIiEEE12__find_equalIiEERPNS_16__tree_node_baseIPvEENS_21__tree_const_iteratorIiPNS_11__tree_nodeIiS8_EElEERPNS_15__tree_end_nodeISA_EESB_RKT_, symObjAddr: 0xB24, symBinAddr: 0x10DA0, symSize: 0x1A8 }
  - { offset: 0x1C1CA, size: 0x8, addend: 0x0, symName: __ZNSt3__16__treeIiNS_4lessIiEENS_9allocatorIiEEE12__find_equalIiEERPNS_16__tree_node_baseIPvEENS_21__tree_const_iteratorIiPNS_11__tree_nodeIiS8_EElEERPNS_15__tree_end_nodeISA_EESB_RKT_, symObjAddr: 0xB24, symBinAddr: 0x10DA0, symSize: 0x1A8 }
  - { offset: 0x1C1DF, size: 0x8, addend: 0x0, symName: __ZNSt3__16__treeIiNS_4lessIiEENS_9allocatorIiEEE12__find_equalIiEERPNS_16__tree_node_baseIPvEENS_21__tree_const_iteratorIiPNS_11__tree_nodeIiS8_EElEERPNS_15__tree_end_nodeISA_EESB_RKT_, symObjAddr: 0xB24, symBinAddr: 0x10DA0, symSize: 0x1A8 }
  - { offset: 0x1C4D7, size: 0x8, addend: 0x0, symName: __ZN8crashpad12_GLOBAL__N_19ExcServerINS0_13MachExcTraitsEE25MachMessageServerFunctionEPK17mach_msg_header_tPS4_Pb, symObjAddr: 0xF24, symBinAddr: 0x10F48, symSize: 0x1D8 }
  - { offset: 0x1C5BC, size: 0x8, addend: 0x0, symName: __ZN8crashpad12_GLOBAL__N_19ExcServerINS0_13MachExcTraitsEE27MachMessageServerRequestIDsEv, symObjAddr: 0x10FC, symBinAddr: 0x11120, symSize: 0x70 }
  - { offset: 0x1C5E7, size: 0x8, addend: 0x0, symName: __ZN8crashpad12_GLOBAL__N_19ExcServerINS0_13MachExcTraitsEE28MachMessageServerRequestSizeEv, symObjAddr: 0x116C, symBinAddr: 0x11190, symSize: 0x8 }
  - { offset: 0x1C5F8, size: 0x8, addend: 0x0, symName: __ZN8crashpad12_GLOBAL__N_19ExcServerINS0_13MachExcTraitsEE26MachMessageServerReplySizeEv, symObjAddr: 0x1174, symBinAddr: 0x11198, symSize: 0x8 }
  - { offset: 0x1C609, size: 0x8, addend: 0x0, symName: __ZN8crashpad12_GLOBAL__N_119SimplifiedExcServerINS0_13MachExcTraitsEE19CatchExceptionRaiseEjjjiPKxjPK18mach_msg_trailer_tPb, symObjAddr: 0x117C, symBinAddr: 0x111A0, symSize: 0x74 }
  - { offset: 0x1C626, size: 0x8, addend: 0x0, symName: __ZN8crashpad12_GLOBAL__N_119SimplifiedExcServerINS0_13MachExcTraitsEE24CatchExceptionRaiseStateEjiPKxjPiPKjjPjS9_PK18mach_msg_trailer_t, symObjAddr: 0x11F0, symBinAddr: 0x11214, symSize: 0x88 }
  - { offset: 0x1C643, size: 0x8, addend: 0x0, symName: __ZN8crashpad12_GLOBAL__N_119SimplifiedExcServerINS0_13MachExcTraitsEE32CatchExceptionRaiseStateIdentityEjjjiPKxjPiPKjjPjS9_PK18mach_msg_trailer_tPb, symObjAddr: 0x1278, symBinAddr: 0x1129C, symSize: 0x80 }
  - { offset: 0x1C666, size: 0x8, addend: 0x0, symName: __ZThn16_N8crashpad12_GLOBAL__N_119SimplifiedExcServerINS0_13MachExcTraitsEE19CatchExceptionRaiseEjjjiPKxjPK18mach_msg_trailer_tPb, symObjAddr: 0x12F8, symBinAddr: 0x1131C, symSize: 0x74 }
  - { offset: 0x1C698, size: 0x8, addend: 0x0, symName: __ZThn16_N8crashpad12_GLOBAL__N_119SimplifiedExcServerINS0_13MachExcTraitsEE24CatchExceptionRaiseStateEjiPKxjPiPKjjPjS9_PK18mach_msg_trailer_t, symObjAddr: 0x136C, symBinAddr: 0x11390, symSize: 0x88 }
  - { offset: 0x1C6CA, size: 0x8, addend: 0x0, symName: __ZThn16_N8crashpad12_GLOBAL__N_119SimplifiedExcServerINS0_13MachExcTraitsEE32CatchExceptionRaiseStateIdentityEjjjiPKxjPiPKjjPjS9_PK18mach_msg_trailer_tPb, symObjAddr: 0x13F4, symBinAddr: 0x11418, symSize: 0x80 }
  - { offset: 0x1C757, size: 0x8, addend: 0x0, symName: __ZN8crashpad25ExceptionBehaviorHasStateEi, symObjAddr: 0x0, symBinAddr: 0x11550, symSize: 0x10 }
  - { offset: 0x1C764, size: 0x8, addend: 0x0, symName: __ZN8crashpad25ExceptionBehaviorHasStateEi, symObjAddr: 0x0, symBinAddr: 0x11550, symSize: 0x10 }
  - { offset: 0x1C775, size: 0x8, addend: 0x0, symName: __ZN8crashpad22ExceptionBehaviorBasicEi, symObjAddr: 0x10, symBinAddr: 0x11560, symSize: 0x8 }
  - { offset: 0x1C786, size: 0x8, addend: 0x0, symName: __ZN8crashpad28ExceptionBehaviorHasIdentityEi, symObjAddr: 0x18, symBinAddr: 0x11568, symSize: 0x14 }
  - { offset: 0x1C797, size: 0x8, addend: 0x0, symName: __ZN8crashpad38ExceptionBehaviorHasMachExceptionCodesEi, symObjAddr: 0x2C, symBinAddr: 0x1157C, symSize: 0x8 }
  - { offset: 0x1C7E3, size: 0x8, addend: 0x0, symName: __ZN8crashpad14ExceptionPorts22ExceptionHandlerVectorC2Ev, symObjAddr: 0x0, symBinAddr: 0x11584, symSize: 0xC }
  - { offset: 0x1C7F8, size: 0x8, addend: 0x0, symName: __ZN8crashpad14ExceptionPorts22ExceptionHandlerVectorC2Ev, symObjAddr: 0x0, symBinAddr: 0x11584, symSize: 0xC }
  - { offset: 0x1C80C, size: 0x8, addend: 0x0, symName: __ZN8crashpad14ExceptionPorts22ExceptionHandlerVectorC2Ev, symObjAddr: 0x0, symBinAddr: 0x11584, symSize: 0xC }
  - { offset: 0x1C825, size: 0x8, addend: 0x0, symName: __ZN8crashpad14ExceptionPorts22ExceptionHandlerVectorC1Ev, symObjAddr: 0xC, symBinAddr: 0x11590, symSize: 0xC }
  - { offset: 0x1C83A, size: 0x8, addend: 0x0, symName: __ZN8crashpad14ExceptionPorts22ExceptionHandlerVectorC1Ev, symObjAddr: 0xC, symBinAddr: 0x11590, symSize: 0xC }
  - { offset: 0x1C84E, size: 0x8, addend: 0x0, symName: __ZN8crashpad14ExceptionPorts22ExceptionHandlerVectorC1Ev, symObjAddr: 0xC, symBinAddr: 0x11590, symSize: 0xC }
  - { offset: 0x1C862, size: 0x8, addend: 0x0, symName: __ZN8crashpad14ExceptionPorts22ExceptionHandlerVectorC1Ev, symObjAddr: 0xC, symBinAddr: 0x11590, symSize: 0xC }
  - { offset: 0x1C8B2, size: 0x8, addend: 0x0, symName: __ZN8crashpad14ExceptionPorts22ExceptionHandlerVectorD2Ev, symObjAddr: 0x18, symBinAddr: 0x1159C, symSize: 0x38 }
  - { offset: 0x1C9A9, size: 0x8, addend: 0x0, symName: __ZN8crashpad14ExceptionPorts22ExceptionHandlerVector10DeallocateEv, symObjAddr: 0x50, symBinAddr: 0x115D4, symSize: 0xD0 }
  - { offset: 0x1CACA, size: 0x8, addend: 0x0, symName: __ZN8crashpad14ExceptionPorts22ExceptionHandlerVectorD1Ev, symObjAddr: 0x130, symBinAddr: 0x116A4, symSize: 0x4 }
  - { offset: 0x1CADF, size: 0x8, addend: 0x0, symName: __ZN8crashpad14ExceptionPorts22ExceptionHandlerVectorD1Ev, symObjAddr: 0x130, symBinAddr: 0x116A4, symSize: 0x4 }
  - { offset: 0x1CAF5, size: 0x8, addend: 0x0, symName: __ZN8crashpad14ExceptionPorts22ExceptionHandlerVector5clearEv, symObjAddr: 0x134, symBinAddr: 0x116A8, symSize: 0x28 }
  - { offset: 0x1CB6F, size: 0x8, addend: 0x0, symName: __ZN8crashpad14ExceptionPortsC2ENS0_10TargetTypeEj, symObjAddr: 0x15C, symBinAddr: 0x116D0, symSize: 0x170 }
  - { offset: 0x1CBF7, size: 0x8, addend: 0x0, symName: __ZN8crashpad14ExceptionPortsC1ENS0_10TargetTypeEj, symObjAddr: 0x2CC, symBinAddr: 0x11840, symSize: 0x4 }
  - { offset: 0x1CC0C, size: 0x8, addend: 0x0, symName: __ZN8crashpad14ExceptionPortsC1ENS0_10TargetTypeEj, symObjAddr: 0x2CC, symBinAddr: 0x11840, symSize: 0x4 }
  - { offset: 0x1CC16, size: 0x8, addend: 0x0, symName: __ZN8crashpad14ExceptionPortsD2Ev, symObjAddr: 0x2D0, symBinAddr: 0x11844, symSize: 0x9C }
  - { offset: 0x1CC62, size: 0x8, addend: 0x0, symName: __ZN8crashpad14ExceptionPortsD1Ev, symObjAddr: 0x36C, symBinAddr: 0x118E0, symSize: 0x4 }
  - { offset: 0x1CC77, size: 0x8, addend: 0x0, symName: __ZN8crashpad14ExceptionPortsD1Ev, symObjAddr: 0x36C, symBinAddr: 0x118E0, symSize: 0x4 }
  - { offset: 0x1CC99, size: 0x8, addend: 0x0, symName: __ZNK8crashpad14ExceptionPorts17GetExceptionPortsEjPNS0_22ExceptionHandlerVectorE, symObjAddr: 0x370, symBinAddr: 0x118E4, symSize: 0x184 }
  - { offset: 0x1CDDB, size: 0x8, addend: 0x0, symName: __ZN8crashpad14ExceptionPorts22ExceptionHandlerVector9push_backERNS0_16ExceptionHandlerE, symObjAddr: 0x4FC, symBinAddr: 0x11A70, symSize: 0xD8 }
  - { offset: 0x1CFD4, size: 0x8, addend: 0x0, symName: __ZNK8crashpad14ExceptionPorts16SetExceptionPortEjjii, symObjAddr: 0x5D4, symBinAddr: 0x11B48, symSize: 0xB8 }
  - { offset: 0x1CFDE, size: 0x8, addend: 0x0, symName: __ZNK8crashpad14ExceptionPorts14TargetTypeNameEv, symObjAddr: 0x4F4, symBinAddr: 0x11A68, symSize: 0x8 }
  - { offset: 0x1D043, size: 0x8, addend: 0x0, symName: __ZNSt3__119__allocate_at_leastB8ne190102INS_9allocatorIN8crashpad14ExceptionPorts16ExceptionHandlerEEEEENS_19__allocation_resultINS_16allocator_traitsIT_E7pointerEEERS8_m, symObjAddr: 0x89C, symBinAddr: 0x11D88, symSize: 0x34 }
  - { offset: 0x1D0AC, size: 0x8, addend: 0x0, symName: __ZNK8crashpad14ExceptionPorts16SetExceptionPortEjjii, symObjAddr: 0x5D4, symBinAddr: 0x11B48, symSize: 0xB8 }
  - { offset: 0x1D163, size: 0x8, addend: 0x0, symName: __ZNK8crashpad14ExceptionPorts18SwapExceptionPortsEjjiiPNS0_22ExceptionHandlerVectorE, symObjAddr: 0x68C, symBinAddr: 0x11C00, symSize: 0x188 }
  - { offset: 0x1D5CC, size: 0x8, addend: 0x0, symName: __ZN8crashpad32InstallObjcExceptionPreprocessorEPNS_21ObjcExceptionDelegateE, symObjAddr: 0x0, symBinAddr: 0x11DBC, symSize: 0xC8 }
  - { offset: 0x1D671, size: 0x8, addend: 0x0, symName: __ZN8crashpad12_GLOBAL__N_126ExceptionPreprocessorState3GetEv, symObjAddr: 0xC8, symBinAddr: 0x11E84, symSize: 0x70 }
  - { offset: 0x1D745, size: 0x8, addend: 0x0, symName: __ZZN8crashpad12_GLOBAL__N_126ExceptionPreprocessorState3GetEvENKUlvE_clEv, symObjAddr: 0x1F0, symBinAddr: 0x11FAC, symSize: 0x5C }
  - { offset: 0x1D777, size: 0x8, addend: 0x0, symName: __ZN8crashpad34UninstallObjcExceptionPreprocessorEv, symObjAddr: 0x138, symBinAddr: 0x11EF4, symSize: 0xB8 }
  - { offset: 0x1D9B9, size: 0x8, addend: 0x0, symName: __ZN8crashpad12_GLOBAL__N_125ObjcExceptionPreprocessorEP11objc_object, symObjAddr: 0x24C, symBinAddr: 0x12008, symSize: 0x9BC }
  - { offset: 0x1EDBA, size: 0x8, addend: 0x0, symName: __ZN8crashpad16StringAnnotationILj256EE3SetEN4base16BasicStringPieceINSt3__112basic_stringIcNS4_11char_traitsIcEENS4_9allocatorIcEEEEEE, symObjAddr: 0x1550, symBinAddr: 0x12F08, symSize: 0x110 }
  - { offset: 0x1EF18, size: 0x8, addend: 0x0, symName: __ZN8crashpad12_GLOBAL__N_126ExceptionPreprocessorState25MaybeCallNextPreprocessorEP11objc_object, symObjAddr: 0x14E0, symBinAddr: 0x12E98, symSize: 0x70 }
  - { offset: 0x1EF43, size: 0x8, addend: 0x0, symName: __ZN8crashpad12_GLOBAL__N_114LoggingUnwStepEP12unw_cursor_t, symObjAddr: 0x1770, symBinAddr: 0x13128, symSize: 0x94 }
  - { offset: 0x1F01E, size: 0x8, addend: 0x0, symName: __ZN8crashpad12_GLOBAL__N_125SetNSExceptionAnnotationsEP11NSExceptionRNSt3__112basic_stringIcNS3_11char_traitsIcEENS3_9allocatorIcEEEESA_, symObjAddr: 0x1DAC, symBinAddr: 0x136A0, symSize: 0x39C }
  - { offset: 0x1F028, size: 0x8, addend: 0x0, symName: __ZN8crashpad16StringAnnotationILj1024EE3SetEN4base16BasicStringPieceINSt3__112basic_stringIcNS4_11char_traitsIcEENS4_9allocatorIcEEEEEE, symObjAddr: 0x1660, symBinAddr: 0x13018, symSize: 0x110 }
  - { offset: 0x1F1C5, size: 0x8, addend: 0x0, symName: __ZN8crashpad12_GLOBAL__N_125ModulePathMatchesSinkholeEPKcS2_, symObjAddr: 0x1BB0, symBinAddr: 0x13568, symSize: 0x64 }
  - { offset: 0x1F1FE, size: 0x8, addend: 0x0, symName: __ZN8crashpad12_GLOBAL__N_127HANDLE_UNCAUGHT_NSEXCEPTIONEP11objc_objectPKc, symObjAddr: 0x1804, symBinAddr: 0x131BC, symSize: 0x3AC }
  - { offset: 0x1F998, size: 0x8, addend: 0x0, symName: '__ZZN8crashpad12_GLOBAL__N_125ObjcExceptionPreprocessorEP11objc_objectENK3$_1clEPPFvvE', symObjAddr: 0x1C14, symBinAddr: 0x135CC, symSize: 0xD4 }
  - { offset: 0x1FB17, size: 0x8, addend: 0x0, symName: __ZN8crashpad12_GLOBAL__N_128ObjcUncaughtExceptionHandlerEP11NSException, symObjAddr: 0xC08, symBinAddr: 0x129C4, symSize: 0x4D4 }
  - { offset: 0x20563, size: 0x8, addend: 0x0, symName: __ZN8crashpad12_GLOBAL__N_125SetNSExceptionAnnotationsEP11NSExceptionRNSt3__112basic_stringIcNS3_11char_traitsIcEENS3_9allocatorIcEEEESA_, symObjAddr: 0x1DAC, symBinAddr: 0x136A0, symSize: 0x39C }
  - { offset: 0x20B1C, size: 0x8, addend: 0x0, symName: __ZN8crashpad16StringAnnotationILj256EE3SetEPKc, symObjAddr: 0x21A0, symBinAddr: 0x13A94, symSize: 0x58 }
  - { offset: 0x20E9C, size: 0x8, addend: 0x0, symName: __ZN8crashpad16StringAnnotationILj5EE3SetEPKc, symObjAddr: 0x2148, symBinAddr: 0x13A3C, symSize: 0x58 }
  - { offset: 0x20F7F, size: 0x8, addend: 0x0, symName: __ZN8crashpad8internal36ExceptionSnapshotIOSIntermediateDumpC2Ev, symObjAddr: 0x0, symBinAddr: 0x13AEC, symSize: 0x4C }
  - { offset: 0x20FD5, size: 0x8, addend: 0x0, symName: __ZN8crashpad8internal36ExceptionSnapshotIOSIntermediateDumpC1Ev, symObjAddr: 0x4C, symBinAddr: 0x13B38, symSize: 0x4C }
  - { offset: 0x21088, size: 0x8, addend: 0x0, symName: __ZN8crashpad8internal36ExceptionSnapshotIOSIntermediateDumpD2Ev, symObjAddr: 0x98, symBinAddr: 0x13B84, symSize: 0x38 }
  - { offset: 0x211B6, size: 0x8, addend: 0x0, symName: __ZN8crashpad8internal36ExceptionSnapshotIOSIntermediateDumpD1Ev, symObjAddr: 0xD0, symBinAddr: 0x13BBC, symSize: 0x38 }
  - { offset: 0x212F9, size: 0x8, addend: 0x0, symName: __ZN8crashpad8internal36ExceptionSnapshotIOSIntermediateDumpD0Ev, symObjAddr: 0x108, symBinAddr: 0x13BF4, symSize: 0x38 }
  - { offset: 0x214BD, size: 0x8, addend: 0x0, symName: __ZN8crashpad8internal36ExceptionSnapshotIOSIntermediateDump20InitializeFromSignalEPKNS0_22IOSIntermediateDumpMapE, symObjAddr: 0x140, symBinAddr: 0x13C2C, symSize: 0x4CC }
  - { offset: 0x21F25, size: 0x8, addend: 0x0, symName: __ZN8crashpad8internal19GetDataValueFromMapIyEEbPKNS0_22IOSIntermediateDumpMapERKNS0_19IntermediateDumpKeyEPT_NS0_26LogMissingDataValueFromMapE, symObjAddr: 0x60C, symBinAddr: 0x140F8, symSize: 0x50 }
  - { offset: 0x21F65, size: 0x8, addend: 0x0, symName: __ZN8crashpad8internal19GetDataValueFromMapI27__darwin_arm_thread_state64EEbPKNS0_22IOSIntermediateDumpMapERKNS0_19IntermediateDumpKeyEPT_NS0_26LogMissingDataValueFromMapE, symObjAddr: 0x65C, symBinAddr: 0x14148, symSize: 0x50 }
  - { offset: 0x21FA5, size: 0x8, addend: 0x0, symName: __ZN8crashpad8internal19GetDataValueFromMapI25__darwin_arm_neon_state64EEbPKNS0_22IOSIntermediateDumpMapERKNS0_19IntermediateDumpKeyEPT_NS0_26LogMissingDataValueFromMapE, symObjAddr: 0x6AC, symBinAddr: 0x14198, symSize: 0x50 }
  - { offset: 0x21FEC, size: 0x8, addend: 0x0, symName: __ZN8crashpad8internal19GetDataValueFromMapIjEEbPKNS0_22IOSIntermediateDumpMapERKNS0_19IntermediateDumpKeyEPT_NS0_26LogMissingDataValueFromMapE, symObjAddr: 0x6FC, symBinAddr: 0x141E8, symSize: 0x50 }
  - { offset: 0x22078, size: 0x8, addend: 0x0, symName: __ZN7logging17MakeCheckOpStringIjjEEPNSt3__112basic_stringIcNS1_11char_traitsIcEENS1_9allocatorIcEEEERKT_RKT0_PKc, symObjAddr: 0x1C34, symBinAddr: 0x1502C, symSize: 0x168 }
  - { offset: 0x220EB, size: 0x8, addend: 0x0, symName: __ZN8crashpad8internal36ExceptionSnapshotIOSIntermediateDump27InitializeFromMachExceptionEPKNS0_22IOSIntermediateDumpMapEPKNS0_23IOSIntermediateDumpListE, symObjAddr: 0x79C, symBinAddr: 0x14238, symSize: 0x4FC }
  - { offset: 0x22739, size: 0x8, addend: 0x0, symName: __ZN8crashpad8internal36ExceptionSnapshotIOSIntermediateDump21LoadContextFromThreadEPKNS0_22IOSIntermediateDumpMapES4_, symObjAddr: 0xCE8, symBinAddr: 0x14734, symSize: 0x248 }
  - { offset: 0x22A4B, size: 0x8, addend: 0x0, symName: __ZN7logging17MakeCheckOpStringIjjEEPNSt3__112basic_stringIcNS1_11char_traitsIcEENS1_9allocatorIcEEEERKT_RKT0_PKc, symObjAddr: 0x1C34, symBinAddr: 0x1502C, symSize: 0x168 }
  - { offset: 0x22FB3, size: 0x8, addend: 0x0, symName: __ZN8crashpad8internal19GetDataValueFromMapI26__darwin_arm_debug_state64EEbPKNS0_22IOSIntermediateDumpMapERKNS0_19IntermediateDumpKeyEPT_NS0_26LogMissingDataValueFromMapE, symObjAddr: 0x1568, symBinAddr: 0x14FB4, symSize: 0x50 }
  - { offset: 0x230DF, size: 0x8, addend: 0x0, symName: __ZNSt3__16vectorIhNS_9allocatorIhEEE6resizeEmRKh, symObjAddr: 0x15B8, symBinAddr: 0x15004, symSize: 0x28 }
  - { offset: 0x230F4, size: 0x8, addend: 0x0, symName: __ZNSt3__16vectorIhNS_9allocatorIhEEE6resizeEmRKh, symObjAddr: 0x15B8, symBinAddr: 0x15004, symSize: 0x28 }
  - { offset: 0x2314A, size: 0x8, addend: 0x0, symName: __ZN8crashpad8internal36ExceptionSnapshotIOSIntermediateDump25InitializeFromNSExceptionEPKNS0_22IOSIntermediateDumpMapEPKNS0_23IOSIntermediateDumpListE, symObjAddr: 0xF30, symBinAddr: 0x1497C, symSize: 0x280 }
  - { offset: 0x232F8, size: 0x8, addend: 0x0, symName: __ZN8crashpad8internal36ExceptionSnapshotIOSIntermediateDump40LoadContextFromUncaughtNSExceptionFramesEPKNS0_23IOSIntermediateDumpDataEPKNS0_22IOSIntermediateDumpMapE, symObjAddr: 0x11B0, symBinAddr: 0x14BFC, symSize: 0x34 }
  - { offset: 0x2330D, size: 0x8, addend: 0x0, symName: __ZN8crashpad8internal36ExceptionSnapshotIOSIntermediateDump40LoadContextFromUncaughtNSExceptionFramesEPKNS0_23IOSIntermediateDumpDataEPKNS0_22IOSIntermediateDumpMapE, symObjAddr: 0x11B0, symBinAddr: 0x14BFC, symSize: 0x34 }
  - { offset: 0x23340, size: 0x8, addend: 0x0, symName: __ZNK8crashpad8internal36ExceptionSnapshotIOSIntermediateDump7ContextEv, symObjAddr: 0x11E4, symBinAddr: 0x14C30, symSize: 0x80 }
  - { offset: 0x2339C, size: 0x8, addend: 0x0, symName: __ZNK8crashpad8internal36ExceptionSnapshotIOSIntermediateDump8ThreadIDEv, symObjAddr: 0x1264, symBinAddr: 0x14CB0, symSize: 0x80 }
  - { offset: 0x233FA, size: 0x8, addend: 0x0, symName: __ZNK8crashpad8internal36ExceptionSnapshotIOSIntermediateDump9ExceptionEv, symObjAddr: 0x12E4, symBinAddr: 0x14D30, symSize: 0x80 }
  - { offset: 0x23458, size: 0x8, addend: 0x0, symName: __ZNK8crashpad8internal36ExceptionSnapshotIOSIntermediateDump13ExceptionInfoEv, symObjAddr: 0x1364, symBinAddr: 0x14DB0, symSize: 0x80 }
  - { offset: 0x234B6, size: 0x8, addend: 0x0, symName: __ZNK8crashpad8internal36ExceptionSnapshotIOSIntermediateDump16ExceptionAddressEv, symObjAddr: 0x13E4, symBinAddr: 0x14E30, symSize: 0x80 }
  - { offset: 0x23514, size: 0x8, addend: 0x0, symName: __ZNK8crashpad8internal36ExceptionSnapshotIOSIntermediateDump5CodesEv, symObjAddr: 0x1464, symBinAddr: 0x14EB0, symSize: 0x80 }
  - { offset: 0x2357E, size: 0x8, addend: 0x0, symName: __ZNK8crashpad8internal36ExceptionSnapshotIOSIntermediateDump11ExtraMemoryEv, symObjAddr: 0x14E4, symBinAddr: 0x14F30, symSize: 0x84 }
  - { offset: 0x23613, size: 0x8, addend: 0x0, symName: __ZNSt3__16vectorIhNS_9allocatorIhEEE8__appendEmRKh, symObjAddr: 0x1E68, symBinAddr: 0x15194, symSize: 0x110 }
  - { offset: 0x23D84, size: 0x8, addend: 0x0, symName: __ZNSt3__16vectorIhNS_9allocatorIhEEE8__appendEmRKh, symObjAddr: 0x1E68, symBinAddr: 0x15194, symSize: 0x110 }
  - { offset: 0x23E2F, size: 0x8, addend: 0x0, symName: __ZN8crashpad8internal25ExceptionSnapshotMinidumpC2Ev, symObjAddr: 0x0, symBinAddr: 0x152A4, symSize: 0x70 }
  - { offset: 0x23E9A, size: 0x8, addend: 0x0, symName: __ZN8crashpad8internal25ExceptionSnapshotMinidumpC1Ev, symObjAddr: 0x70, symBinAddr: 0x15314, symSize: 0x70 }
  - { offset: 0x23F9E, size: 0x8, addend: 0x0, symName: __ZN8crashpad8internal25ExceptionSnapshotMinidumpD2Ev, symObjAddr: 0xE0, symBinAddr: 0x15384, symSize: 0x4C }
  - { offset: 0x241F1, size: 0x8, addend: 0x0, symName: __ZN8crashpad8internal25ExceptionSnapshotMinidumpD1Ev, symObjAddr: 0x12C, symBinAddr: 0x153D0, symSize: 0x4 }
  - { offset: 0x24206, size: 0x8, addend: 0x0, symName: __ZN8crashpad8internal25ExceptionSnapshotMinidumpD1Ev, symObjAddr: 0x12C, symBinAddr: 0x153D0, symSize: 0x4 }
  - { offset: 0x24216, size: 0x8, addend: 0x0, symName: __ZN8crashpad8internal25ExceptionSnapshotMinidumpD0Ev, symObjAddr: 0x130, symBinAddr: 0x153D4, symSize: 0x14 }
  - { offset: 0x242DF, size: 0x8, addend: 0x0, symName: __ZN8crashpad8internal25ExceptionSnapshotMinidump10InitializeEPNS_19FileReaderInterfaceENS_15CPUArchitectureEj, symObjAddr: 0x144, symBinAddr: 0x153E8, symSize: 0x27C }
  - { offset: 0x2482B, size: 0x8, addend: 0x0, symName: __ZNSt3__16vectorIhNS_9allocatorIhEEE8__appendEm, symObjAddr: 0xEFC, symBinAddr: 0x15B4C, symSize: 0x100 }
  - { offset: 0x24835, size: 0x8, addend: 0x0, symName: __ZNSt3__16vectorIhNS_9allocatorIhEEE8__appendEm, symObjAddr: 0xEFC, symBinAddr: 0x15B4C, symSize: 0x100 }
  - { offset: 0x24B05, size: 0x8, addend: 0x0, symName: __ZNK8crashpad8internal25ExceptionSnapshotMinidump7ContextEv, symObjAddr: 0x3C0, symBinAddr: 0x15664, symSize: 0xA4 }
  - { offset: 0x24B86, size: 0x8, addend: 0x0, symName: __ZNK8crashpad8internal24MinidumpContextConverter3GetEv, symObjAddr: 0x464, symBinAddr: 0x15708, symSize: 0x80 }
  - { offset: 0x24E56, size: 0x8, addend: 0x0, symName: __ZNK8crashpad8internal25ExceptionSnapshotMinidump8ThreadIDEv, symObjAddr: 0x4E4, symBinAddr: 0x15788, symSize: 0xA0 }
  - { offset: 0x24ECA, size: 0x8, addend: 0x0, symName: __ZNK8crashpad8internal25ExceptionSnapshotMinidump9ExceptionEv, symObjAddr: 0x584, symBinAddr: 0x15828, symSize: 0xA0 }
  - { offset: 0x24F3E, size: 0x8, addend: 0x0, symName: __ZNK8crashpad8internal25ExceptionSnapshotMinidump13ExceptionInfoEv, symObjAddr: 0x624, symBinAddr: 0x158C8, symSize: 0xA0 }
  - { offset: 0x24FB2, size: 0x8, addend: 0x0, symName: __ZNK8crashpad8internal25ExceptionSnapshotMinidump16ExceptionAddressEv, symObjAddr: 0x6C4, symBinAddr: 0x15968, symSize: 0xA0 }
  - { offset: 0x25026, size: 0x8, addend: 0x0, symName: __ZNK8crashpad8internal25ExceptionSnapshotMinidump5CodesEv, symObjAddr: 0x764, symBinAddr: 0x15A08, symSize: 0xA0 }
  - { offset: 0x250A6, size: 0x8, addend: 0x0, symName: __ZNK8crashpad8internal25ExceptionSnapshotMinidump11ExtraMemoryEv, symObjAddr: 0x804, symBinAddr: 0x15AA8, symSize: 0xA4 }
  - { offset: 0x2561B, size: 0x8, addend: 0x0, symName: __ZN8crashpad8internal19ReadExactlyInternal11ReadExactlyEPvmb, symObjAddr: 0x0, symBinAddr: 0x15C4C, symSize: 0x18C }
  - { offset: 0x2599D, size: 0x8, addend: 0x0, symName: __ZN8crashpad8internal16WriteAllInternal8WriteAllEPKvm, symObjAddr: 0x18C, symBinAddr: 0x15DD8, symSize: 0xE0 }
  - { offset: 0x259DB, size: 0x8, addend: 0x0, symName: __ZN7logging17MakeCheckOpStringIliEEPNSt3__112basic_stringIcNS1_11char_traitsIcEENS1_9allocatorIcEEEERKT_RKT0_PKc, symObjAddr: 0xD68, symBinAddr: 0x16470, symSize: 0x168 }
  - { offset: 0x25F07, size: 0x8, addend: 0x0, symName: __ZN8crashpad15ReadFileExactlyEiPvm, symObjAddr: 0x26C, symBinAddr: 0x15EB8, symSize: 0x34 }
  - { offset: 0x25F4F, size: 0x8, addend: 0x0, symName: __ZN8crashpad22LoggingReadFileExactlyEiPvm, symObjAddr: 0x2A0, symBinAddr: 0x15EEC, symSize: 0x34 }
  - { offset: 0x25FA3, size: 0x8, addend: 0x0, symName: __ZN8crashpad9WriteFileEiPKvm, symObjAddr: 0x2D4, symBinAddr: 0x15F20, symSize: 0x30 }
  - { offset: 0x25FF1, size: 0x8, addend: 0x0, symName: __ZN8crashpad16LoggingWriteFileEiPKvm, symObjAddr: 0x304, symBinAddr: 0x15F50, symSize: 0x30 }
  - { offset: 0x26054, size: 0x8, addend: 0x0, symName: __ZN8crashpad22CheckedReadFileExactlyEiPvm, symObjAddr: 0x334, symBinAddr: 0x15F80, symSize: 0xA4 }
  - { offset: 0x26105, size: 0x8, addend: 0x0, symName: __ZN8crashpad16CheckedWriteFileEiPKvm, symObjAddr: 0x3D8, symBinAddr: 0x16024, symSize: 0xA0 }
  - { offset: 0x261D1, size: 0x8, addend: 0x0, symName: __ZN8crashpad20CheckedReadFileAtEOFEi, symObjAddr: 0x478, symBinAddr: 0x160C4, symSize: 0x124 }
  - { offset: 0x2633C, size: 0x8, addend: 0x0, symName: __ZN8crashpad16LoggingReadToEOFEiPNSt3__112basic_stringIcNS0_11char_traitsIcEENS0_9allocatorIcEEEE, symObjAddr: 0x59C, symBinAddr: 0x161E8, symSize: 0x16C }
  - { offset: 0x265B0, size: 0x8, addend: 0x0, symName: __ZN8crashpad21LoggingReadEntireFileERKN4base8FilePathEPNSt3__112basic_stringIcNS4_11char_traitsIcEENS4_9allocatorIcEEEE, symObjAddr: 0x708, symBinAddr: 0x16354, symSize: 0x68 }
  - { offset: 0x26687, size: 0x8, addend: 0x0, symName: __ZN8crashpad16CheckedCloseFileEi, symObjAddr: 0x770, symBinAddr: 0x163BC, symSize: 0x8C }
  - { offset: 0x266FC, size: 0x8, addend: 0x0, symName: __ZN8crashpad12_GLOBAL__N_117FileIOReadExactly4ReadEPvmb, symObjAddr: 0x7FC, symBinAddr: 0x16448, symSize: 0x20 }
  - { offset: 0x2671B, size: 0x8, addend: 0x0, symName: __ZN8crashpad12_GLOBAL__N_114FileIOWriteAll5WriteEPKvm, symObjAddr: 0x81C, symBinAddr: 0x16468, symSize: 0x8 }
  - { offset: 0x26AA0, size: 0x8, addend: 0x0, symName: __ZN8crashpad8internal15NativeWriteFileEiPKvm, symObjAddr: 0x0, symBinAddr: 0x165D8, symSize: 0xD8 }
  - { offset: 0x26D81, size: 0x8, addend: 0x0, symName: __ZN8crashpad8ReadFileEiPvm, symObjAddr: 0xD8, symBinAddr: 0x166B0, symSize: 0xD8 }
  - { offset: 0x26E17, size: 0x8, addend: 0x0, symName: __ZN8crashpad15OpenFileForReadERKN4base8FilePathE, symObjAddr: 0x1B0, symBinAddr: 0x16788, symSize: 0x54 }
  - { offset: 0x26EA1, size: 0x8, addend: 0x0, symName: __ZN8crashpad16OpenFileForWriteERKN4base8FilePathENS_13FileWriteModeENS_15FilePermissionsE, symObjAddr: 0x204, symBinAddr: 0x167DC, symSize: 0x14 }
  - { offset: 0x26EC0, size: 0x8, addend: 0x0, symName: __ZN8crashpad12_GLOBAL__N_117OpenFileForOutputEiRKN4base8FilePathENS_13FileWriteModeENS_15FilePermissionsE, symObjAddr: 0x218, symBinAddr: 0x167F0, symSize: 0x12C }
  - { offset: 0x2703C, size: 0x8, addend: 0x0, symName: __ZN8crashpad23OpenFileForReadAndWriteERKN4base8FilePathENS_13FileWriteModeENS_15FilePermissionsE, symObjAddr: 0x344, symBinAddr: 0x1691C, symSize: 0x14 }
  - { offset: 0x27067, size: 0x8, addend: 0x0, symName: __ZN8crashpad22LoggingOpenFileForReadERKN4base8FilePathE, symObjAddr: 0x358, symBinAddr: 0x16930, symSize: 0xB4 }
  - { offset: 0x2713D, size: 0x8, addend: 0x0, symName: __ZN8crashpad23LoggingOpenFileForWriteERKN4base8FilePathENS_13FileWriteModeENS_15FilePermissionsE, symObjAddr: 0x40C, symBinAddr: 0x169E4, symSize: 0xC4 }
  - { offset: 0x27227, size: 0x8, addend: 0x0, symName: __ZN8crashpad30LoggingOpenFileForReadAndWriteERKN4base8FilePathENS_13FileWriteModeENS_15FilePermissionsE, symObjAddr: 0x4D0, symBinAddr: 0x16AA8, symSize: 0xC4 }
  - { offset: 0x2730B, size: 0x8, addend: 0x0, symName: __ZN8crashpad15LoggingLockFileEiNS_11FileLockingENS_19FileLockingBlockingE, symObjAddr: 0x594, symBinAddr: 0x16B6C, symSize: 0xE8 }
  - { offset: 0x2739A, size: 0x8, addend: 0x0, symName: __ZN8crashpad17LoggingUnlockFileEi, symObjAddr: 0x67C, symBinAddr: 0x16C54, symSize: 0x9C }
  - { offset: 0x27407, size: 0x8, addend: 0x0, symName: __ZN8crashpad15LoggingSeekFileEixi, symObjAddr: 0x718, symBinAddr: 0x16CF0, symSize: 0x94 }
  - { offset: 0x2747F, size: 0x8, addend: 0x0, symName: __ZN8crashpad19LoggingTruncateFileEi, symObjAddr: 0x7AC, symBinAddr: 0x16D84, symSize: 0xB8 }
  - { offset: 0x27504, size: 0x8, addend: 0x0, symName: __ZN8crashpad16LoggingCloseFileEi, symObjAddr: 0x864, symBinAddr: 0x16E3C, symSize: 0xA8 }
  - { offset: 0x27589, size: 0x8, addend: 0x0, symName: __ZN8crashpad23LoggingFileSizeByHandleEi, symObjAddr: 0x90C, symBinAddr: 0x16EE4, symSize: 0x94 }
  - { offset: 0x27601, size: 0x8, addend: 0x0, symName: __ZN8crashpad15StdioFileHandleENS_11StdioStreamE, symObjAddr: 0x9A0, symBinAddr: 0x16F78, symSize: 0x90 }
  - { offset: 0x27A9D, size: 0x8, addend: 0x0, symName: __ZN8crashpad25RecordFileLimitAnnotationEv, symObjAddr: 0x0, symBinAddr: 0x17008, symSize: 0x4A4 }
  - { offset: 0x28C06, size: 0x8, addend: 0x0, symName: __ZN8crashpad12_GLOBAL__N_116FormatFromSysctlEiPKiPKm, symObjAddr: 0x4A4, symBinAddr: 0x174AC, symSize: 0x74 }
  - { offset: 0x28C6C, size: 0x8, addend: 0x0, symName: __ZN8crashpad12_GLOBAL__N_113StringForRLimEy, symObjAddr: 0x518, symBinAddr: 0x17520, symSize: 0x44 }
  - { offset: 0x28CB3, size: 0x8, addend: 0x0, symName: __ZN8crashpad23TSimpleStringDictionaryILm256ELm256ELm64EE11SetKeyValueEN4base16BasicStringPieceINSt3__112basic_stringIcNS4_11char_traitsIcEENS4_9allocatorIcEEEEEESB_, symObjAddr: 0x55C, symBinAddr: 0x17564, symSize: 0x3A0 }
  - { offset: 0x29339, size: 0x8, addend: 0x0, symName: __ZN8crashpad23TSimpleStringDictionaryILm256ELm256ELm64EE9RemoveKeyEN4base16BasicStringPieceINSt3__112basic_stringIcNS4_11char_traitsIcEENS4_9allocatorIcEEEEEE, symObjAddr: 0xA70, symBinAddr: 0x17904, symSize: 0x1EC }
  - { offset: 0x2956B, size: 0x8, addend: 0x0, symName: __ZN7logging17MakeCheckOpStringIccEEPNSt3__112basic_stringIcNS1_11char_traitsIcEENS1_9allocatorIcEEEERKT_RKT0_PKc, symObjAddr: 0x1268, symBinAddr: 0x17AF0, symSize: 0x168 }
  - { offset: 0x29A8B, size: 0x8, addend: 0x0, symName: __ZNK8crashpad23TSimpleStringDictionaryILm256ELm256ELm64EE19GetConstEntryForKeyEN4base16BasicStringPieceINSt3__112basic_stringIcNS4_11char_traitsIcEENS4_9allocatorIcEEEEEE, symObjAddr: 0x13D0, symBinAddr: 0x17C58, symSize: 0x68 }
  - { offset: 0x29AC6, size: 0x8, addend: 0x0, symName: __ZN7logging17MakeCheckOpStringIiiEEPNSt3__112basic_stringIcNS1_11char_traitsIcEENS1_9allocatorIcEEEERKT_RKT0_PKc, symObjAddr: 0x1438, symBinAddr: 0x17CC0, symSize: 0x168 }
  - { offset: 0x2A5B6, size: 0x8, addend: 0x0, symName: __ZN4base8FilePathC2Ev, symObjAddr: 0x0, symBinAddr: 0x17E28, symSize: 0xC }
  - { offset: 0x2A5CB, size: 0x8, addend: 0x0, symName: __ZN4base8FilePathC2Ev, symObjAddr: 0x0, symBinAddr: 0x17E28, symSize: 0xC }
  - { offset: 0x2A5DF, size: 0x8, addend: 0x0, symName: __ZN4base8FilePathC2Ev, symObjAddr: 0x0, symBinAddr: 0x17E28, symSize: 0xC }
  - { offset: 0x2A5F4, size: 0x8, addend: 0x0, symName: __ZN4base8FilePathC2Ev, symObjAddr: 0x0, symBinAddr: 0x17E28, symSize: 0xC }
  - { offset: 0x2A609, size: 0x8, addend: 0x0, symName: __ZN4base8FilePathC2Ev, symObjAddr: 0x0, symBinAddr: 0x17E28, symSize: 0xC }
  - { offset: 0x2A61D, size: 0x8, addend: 0x0, symName: __ZN4base8FilePathC2Ev, symObjAddr: 0x0, symBinAddr: 0x17E28, symSize: 0xC }
  - { offset: 0x2A638, size: 0x8, addend: 0x0, symName: __ZN4base8FilePathC1Ev, symObjAddr: 0xC, symBinAddr: 0x17E34, symSize: 0xC }
  - { offset: 0x2A64D, size: 0x8, addend: 0x0, symName: __ZN4base8FilePathC1Ev, symObjAddr: 0xC, symBinAddr: 0x17E34, symSize: 0xC }
  - { offset: 0x2A661, size: 0x8, addend: 0x0, symName: __ZN4base8FilePathC1Ev, symObjAddr: 0xC, symBinAddr: 0x17E34, symSize: 0xC }
  - { offset: 0x2A675, size: 0x8, addend: 0x0, symName: __ZN4base8FilePathC1Ev, symObjAddr: 0xC, symBinAddr: 0x17E34, symSize: 0xC }
  - { offset: 0x2A68A, size: 0x8, addend: 0x0, symName: __ZN4base8FilePathC1Ev, symObjAddr: 0xC, symBinAddr: 0x17E34, symSize: 0xC }
  - { offset: 0x2A69F, size: 0x8, addend: 0x0, symName: __ZN4base8FilePathC1Ev, symObjAddr: 0xC, symBinAddr: 0x17E34, symSize: 0xC }
  - { offset: 0x2A6B3, size: 0x8, addend: 0x0, symName: __ZN4base8FilePathC1Ev, symObjAddr: 0xC, symBinAddr: 0x17E34, symSize: 0xC }
  - { offset: 0x2A6E1, size: 0x8, addend: 0x0, symName: __ZN4base8FilePathC2ERKS0_, symObjAddr: 0x18, symBinAddr: 0x17E40, symSize: 0x4C }
  - { offset: 0x2A7C9, size: 0x8, addend: 0x0, symName: __ZN4base8FilePathC1ERKS0_, symObjAddr: 0x64, symBinAddr: 0x17E8C, symSize: 0x4C }
  - { offset: 0x2A882, size: 0x8, addend: 0x0, symName: __ZN4base8FilePathC2ERKNSt3__112basic_stringIcNS1_11char_traitsIcEENS1_9allocatorIcEEEE, symObjAddr: 0xB0, symBinAddr: 0x17ED8, symSize: 0x90 }
  - { offset: 0x2A9B7, size: 0x8, addend: 0x0, symName: __ZN4base8FilePathC1ERKNSt3__112basic_stringIcNS1_11char_traitsIcEENS1_9allocatorIcEEEE, symObjAddr: 0x140, symBinAddr: 0x17F68, symSize: 0x4 }
  - { offset: 0x2A9CC, size: 0x8, addend: 0x0, symName: __ZN4base8FilePathC1ERKNSt3__112basic_stringIcNS1_11char_traitsIcEENS1_9allocatorIcEEEE, symObjAddr: 0x140, symBinAddr: 0x17F68, symSize: 0x4 }
  - { offset: 0x2A9D6, size: 0x8, addend: 0x0, symName: __ZN4base8FilePathD2Ev, symObjAddr: 0x144, symBinAddr: 0x17F6C, symSize: 0x30 }
  - { offset: 0x2AAAF, size: 0x8, addend: 0x0, symName: __ZN4base8FilePathD1Ev, symObjAddr: 0x174, symBinAddr: 0x17F9C, symSize: 0x30 }
  - { offset: 0x2AB97, size: 0x8, addend: 0x0, symName: __ZN4base8FilePathaSERKS0_, symObjAddr: 0x1A4, symBinAddr: 0x17FCC, symSize: 0x24 }
  - { offset: 0x2ABC6, size: 0x8, addend: 0x0, symName: __ZNK4base8FilePatheqERKS0_, symObjAddr: 0x1C8, symBinAddr: 0x17FF0, symSize: 0x6C }
  - { offset: 0x2ABDB, size: 0x8, addend: 0x0, symName: __ZNK4base8FilePatheqERKS0_, symObjAddr: 0x1C8, symBinAddr: 0x17FF0, symSize: 0x6C }
  - { offset: 0x2ABEF, size: 0x8, addend: 0x0, symName: __ZNK4base8FilePatheqERKS0_, symObjAddr: 0x1C8, symBinAddr: 0x17FF0, symSize: 0x6C }
  - { offset: 0x2AC04, size: 0x8, addend: 0x0, symName: __ZNK4base8FilePatheqERKS0_, symObjAddr: 0x1C8, symBinAddr: 0x17FF0, symSize: 0x6C }
  - { offset: 0x2ACC8, size: 0x8, addend: 0x0, symName: __ZNK4base8FilePathneERKS0_, symObjAddr: 0x234, symBinAddr: 0x1805C, symSize: 0x6C }
  - { offset: 0x2ACDD, size: 0x8, addend: 0x0, symName: __ZNK4base8FilePathneERKS0_, symObjAddr: 0x234, symBinAddr: 0x1805C, symSize: 0x6C }
  - { offset: 0x2ACF1, size: 0x8, addend: 0x0, symName: __ZNK4base8FilePathneERKS0_, symObjAddr: 0x234, symBinAddr: 0x1805C, symSize: 0x6C }
  - { offset: 0x2AD06, size: 0x8, addend: 0x0, symName: __ZNK4base8FilePathneERKS0_, symObjAddr: 0x234, symBinAddr: 0x1805C, symSize: 0x6C }
  - { offset: 0x2AD1B, size: 0x8, addend: 0x0, symName: __ZNK4base8FilePathneERKS0_, symObjAddr: 0x234, symBinAddr: 0x1805C, symSize: 0x6C }
  - { offset: 0x2ADD3, size: 0x8, addend: 0x0, symName: __ZN4base8FilePath11IsSeparatorEc, symObjAddr: 0x2A0, symBinAddr: 0x180C8, symSize: 0xC }
  - { offset: 0x2AE14, size: 0x8, addend: 0x0, symName: __ZNK4base8FilePath7DirNameEv, symObjAddr: 0x2AC, symBinAddr: 0x180D4, symSize: 0xF0 }
  - { offset: 0x2B034, size: 0x8, addend: 0x0, symName: __ZN4base8FilePath31StripTrailingSeparatorsInternalEv, symObjAddr: 0x39C, symBinAddr: 0x181C4, symSize: 0xC4 }
  - { offset: 0x2B13D, size: 0x8, addend: 0x0, symName: __ZNK4base8FilePath8BaseNameEv, symObjAddr: 0x460, symBinAddr: 0x18288, symSize: 0xA8 }
  - { offset: 0x2B301, size: 0x8, addend: 0x0, symName: __ZNK4base8FilePath14FinalExtensionEv, symObjAddr: 0x508, symBinAddr: 0x18330, symSize: 0x148 }
  - { offset: 0x2B812, size: 0x8, addend: 0x0, symName: __ZNK4base8FilePath20RemoveFinalExtensionEv, symObjAddr: 0x650, symBinAddr: 0x18478, symSize: 0x128 }
  - { offset: 0x2BD88, size: 0x8, addend: 0x0, symName: __ZNK4base8FilePath6AppendERKNSt3__112basic_stringIcNS1_11char_traitsIcEENS1_9allocatorIcEEEE, symObjAddr: 0x778, symBinAddr: 0x185A0, symSize: 0x234 }
  - { offset: 0x2C37B, size: 0x8, addend: 0x0, symName: __ZNK4base8FilePath6AppendERKS0_, symObjAddr: 0x9AC, symBinAddr: 0x187D4, symSize: 0x4 }
  - { offset: 0x2C390, size: 0x8, addend: 0x0, symName: __ZNK4base8FilePath6AppendERKS0_, symObjAddr: 0x9AC, symBinAddr: 0x187D4, symSize: 0x4 }
  - { offset: 0x2C3A0, size: 0x8, addend: 0x0, symName: __ZNK4base8FilePath10IsAbsoluteEv, symObjAddr: 0x9B0, symBinAddr: 0x187D8, symSize: 0x34 }
  - { offset: 0x2C3B5, size: 0x8, addend: 0x0, symName: __ZNK4base8FilePath10IsAbsoluteEv, symObjAddr: 0x9B0, symBinAddr: 0x187D8, symSize: 0x34 }
  - { offset: 0x2C3E3, size: 0x8, addend: 0x0, symName: __ZNK4base8FilePath10IsAbsoluteEv, symObjAddr: 0x9B0, symBinAddr: 0x187D8, symSize: 0x34 }
  - { offset: 0x2C447, size: 0x8, addend: 0x0, symName: __Z7PrintToRKN4base8FilePathEPNSt3__113basic_ostreamIcNS3_11char_traitsIcEEEE, symObjAddr: 0x9E4, symBinAddr: 0x1880C, symSize: 0x40 }
  - { offset: 0x2C80F, size: 0x8, addend: 0x0, symName: __ZN8crashpad19FileReaderInterface11ReadExactlyEPvm, symObjAddr: 0x0, symBinAddr: 0x1884C, symSize: 0x30 }
  - { offset: 0x2C850, size: 0x8, addend: 0x0, symName: __ZN8crashpad24WeakFileHandleFileReaderC2Ei, symObjAddr: 0x30, symBinAddr: 0x1887C, symSize: 0x30 }
  - { offset: 0x2C865, size: 0x8, addend: 0x0, symName: __ZN8crashpad24WeakFileHandleFileReaderC2Ei, symObjAddr: 0x30, symBinAddr: 0x1887C, symSize: 0x30 }
  - { offset: 0x2C876, size: 0x8, addend: 0x0, symName: __ZN8crashpad24WeakFileHandleFileReaderC1Ei, symObjAddr: 0x60, symBinAddr: 0x188AC, symSize: 0x14 }
  - { offset: 0x2C887, size: 0x8, addend: 0x0, symName: __ZN8crashpad24WeakFileHandleFileReaderD2Ev, symObjAddr: 0x74, symBinAddr: 0x188C0, symSize: 0x4 }
  - { offset: 0x2C898, size: 0x8, addend: 0x0, symName: __ZN8crashpad24WeakFileHandleFileReaderD1Ev, symObjAddr: 0x78, symBinAddr: 0x188C4, symSize: 0x4 }
  - { offset: 0x2C8A9, size: 0x8, addend: 0x0, symName: __ZN8crashpad24WeakFileHandleFileReaderD0Ev, symObjAddr: 0x7C, symBinAddr: 0x188C8, symSize: 0x4 }
  - { offset: 0x2C8DE, size: 0x8, addend: 0x0, symName: __ZN8crashpad24WeakFileHandleFileReader4ReadEPvm, symObjAddr: 0x80, symBinAddr: 0x188CC, symSize: 0x108 }
  - { offset: 0x2CC8B, size: 0x8, addend: 0x0, symName: __ZN8crashpad24WeakFileHandleFileReader4SeekExi, symObjAddr: 0x188, symBinAddr: 0x189D4, symSize: 0x9C }
  - { offset: 0x2CCD3, size: 0x8, addend: 0x0, symName: __ZTv0_n24_N8crashpad24WeakFileHandleFileReader4SeekExi, symObjAddr: 0x224, symBinAddr: 0x18A70, symSize: 0x10 }
  - { offset: 0x2CD0C, size: 0x8, addend: 0x0, symName: __ZN8crashpad10FileReaderC2Ev, symObjAddr: 0x234, symBinAddr: 0x18A80, symSize: 0x44 }
  - { offset: 0x2CD21, size: 0x8, addend: 0x0, symName: __ZN8crashpad10FileReaderC2Ev, symObjAddr: 0x234, symBinAddr: 0x18A80, symSize: 0x44 }
  - { offset: 0x2CD99, size: 0x8, addend: 0x0, symName: __ZN8crashpad10FileReaderC1Ev, symObjAddr: 0x278, symBinAddr: 0x18AC4, symSize: 0x28 }
  - { offset: 0x2CE18, size: 0x8, addend: 0x0, symName: __ZN8crashpad10FileReaderD2Ev, symObjAddr: 0x2A0, symBinAddr: 0x18AEC, symSize: 0x3C }
  - { offset: 0x2CE5F, size: 0x8, addend: 0x0, symName: __ZN8crashpad10FileReaderD1Ev, symObjAddr: 0x2DC, symBinAddr: 0x18B28, symSize: 0x30 }
  - { offset: 0x2CEAD, size: 0x8, addend: 0x0, symName: __ZN8crashpad10FileReaderD0Ev, symObjAddr: 0x30C, symBinAddr: 0x18B58, symSize: 0x30 }
  - { offset: 0x2CF16, size: 0x8, addend: 0x0, symName: __ZN8crashpad10FileReader4OpenERKN4base8FilePathE, symObjAddr: 0x33C, symBinAddr: 0x18B88, symSize: 0xDC }
  - { offset: 0x2CFCC, size: 0x8, addend: 0x0, symName: __ZN4base13ScopedGenericIiNS_8internal19ScopedFDCloseTraitsEE5resetERKi, symObjAddr: 0x418, symBinAddr: 0x18C64, symSize: 0x50 }
  - { offset: 0x2CFF5, size: 0x8, addend: 0x0, symName: __ZN8crashpad10FileReader5CloseEv, symObjAddr: 0x468, symBinAddr: 0x18CB4, symSize: 0xB8 }
  - { offset: 0x2D00C, size: 0x8, addend: 0x0, symName: __ZN8crashpad10FileReader5CloseEv, symObjAddr: 0x468, symBinAddr: 0x18CB4, symSize: 0xB8 }
  - { offset: 0x2D0A1, size: 0x8, addend: 0x0, symName: __ZN8crashpad10FileReader4ReadEPvm, symObjAddr: 0x520, symBinAddr: 0x18D6C, symSize: 0xBC }
  - { offset: 0x2D122, size: 0x8, addend: 0x0, symName: __ZN8crashpad10FileReader4SeekExi, symObjAddr: 0x5DC, symBinAddr: 0x18E28, symSize: 0xBC }
  - { offset: 0x2D1A3, size: 0x8, addend: 0x0, symName: __ZTv0_n24_N8crashpad10FileReader4SeekExi, symObjAddr: 0x698, symBinAddr: 0x18EE4, symSize: 0x10 }
  - { offset: 0x2D1BE, size: 0x8, addend: 0x0, symName: __ZN8crashpad19FileReaderInterfaceD1Ev, symObjAddr: 0x6A8, symBinAddr: 0x1B7F64, symSize: 0x4 }
  - { offset: 0x2D1CF, size: 0x8, addend: 0x0, symName: __ZN8crashpad19FileReaderInterfaceD0Ev, symObjAddr: 0x6AC, symBinAddr: 0x1B7F68, symSize: 0x4 }
  - { offset: 0x2D1E0, size: 0x8, addend: 0x0, symName: __ZN8crashpad12_GLOBAL__N_121FileReaderReadExactly4ReadEPvmb, symObjAddr: 0x6B0, symBinAddr: 0x18EF4, symSize: 0xBC }
  - { offset: 0x2D5CA, size: 0x8, addend: 0x0, symName: __ZN8crashpad19FileSeekerInterface7SeekGetEv, symObjAddr: 0x0, symBinAddr: 0x18FB0, symSize: 0x14 }
  - { offset: 0x2D5F3, size: 0x8, addend: 0x0, symName: __ZN8crashpad19FileSeekerInterface7SeekSetEx, symObjAddr: 0x14, symBinAddr: 0x18FC4, symSize: 0xCC }
  - { offset: 0x2DA13, size: 0x8, addend: 0x0, symName: __ZN4base10ReadFromFDEiPcm, symObjAddr: 0x0, symBinAddr: 0x19090, symSize: 0x84 }
  - { offset: 0x2DA20, size: 0x8, addend: 0x0, symName: __ZN4base10ReadFromFDEiPcm, symObjAddr: 0x0, symBinAddr: 0x19090, symSize: 0x84 }
  - { offset: 0x2DA90, size: 0x8, addend: 0x0, symName: __ZN8crashpad24WeakFileHandleFileWriterC2Ei, symObjAddr: 0x0, symBinAddr: 0x19114, symSize: 0x30 }
  - { offset: 0x2DAA5, size: 0x8, addend: 0x0, symName: __ZN8crashpad24WeakFileHandleFileWriterC2Ei, symObjAddr: 0x0, symBinAddr: 0x19114, symSize: 0x30 }
  - { offset: 0x2DAB6, size: 0x8, addend: 0x0, symName: __ZN8crashpad24WeakFileHandleFileWriterC1Ei, symObjAddr: 0x30, symBinAddr: 0x19144, symSize: 0x14 }
  - { offset: 0x2DAC7, size: 0x8, addend: 0x0, symName: __ZN8crashpad24WeakFileHandleFileWriterD2Ev, symObjAddr: 0x44, symBinAddr: 0x19158, symSize: 0x4 }
  - { offset: 0x2DAD8, size: 0x8, addend: 0x0, symName: __ZN8crashpad24WeakFileHandleFileWriterD1Ev, symObjAddr: 0x48, symBinAddr: 0x1915C, symSize: 0x4 }
  - { offset: 0x2DAE9, size: 0x8, addend: 0x0, symName: __ZN8crashpad24WeakFileHandleFileWriterD0Ev, symObjAddr: 0x4C, symBinAddr: 0x19160, symSize: 0x4 }
  - { offset: 0x2DB00, size: 0x8, addend: 0x0, symName: __ZN8crashpad24WeakFileHandleFileWriter5WriteEPKvm, symObjAddr: 0x50, symBinAddr: 0x19164, symSize: 0x9C }
  - { offset: 0x2DDCE, size: 0x8, addend: 0x0, symName: __ZN8crashpad24WeakFileHandleFileWriter10WriteIoVecEPNSt3__16vectorINS_13WritableIoVecENS1_9allocatorIS3_EEEE, symObjAddr: 0xEC, symBinAddr: 0x19200, symSize: 0x234 }
  - { offset: 0x2E15D, size: 0x8, addend: 0x0, symName: __ZN7logging17MakeCheckOpStringImjEEPNSt3__112basic_stringIcNS1_11char_traitsIcEENS1_9allocatorIcEEEERKT_RKT0_PKc, symObjAddr: 0xBEC, symBinAddr: 0x199C8, symSize: 0x168 }
  - { offset: 0x2E67D, size: 0x8, addend: 0x0, symName: __ZN8crashpad24WeakFileHandleFileWriter4SeekExi, symObjAddr: 0x320, symBinAddr: 0x19434, symSize: 0x9C }
  - { offset: 0x2E6C5, size: 0x8, addend: 0x0, symName: __ZTv0_n24_N8crashpad24WeakFileHandleFileWriter4SeekExi, symObjAddr: 0x3BC, symBinAddr: 0x194D0, symSize: 0x10 }
  - { offset: 0x2E6FE, size: 0x8, addend: 0x0, symName: __ZN8crashpad10FileWriterC2Ev, symObjAddr: 0x3CC, symBinAddr: 0x194E0, symSize: 0x44 }
  - { offset: 0x2E713, size: 0x8, addend: 0x0, symName: __ZN8crashpad10FileWriterC2Ev, symObjAddr: 0x3CC, symBinAddr: 0x194E0, symSize: 0x44 }
  - { offset: 0x2E78B, size: 0x8, addend: 0x0, symName: __ZN8crashpad10FileWriterC1Ev, symObjAddr: 0x410, symBinAddr: 0x19524, symSize: 0x28 }
  - { offset: 0x2E80A, size: 0x8, addend: 0x0, symName: __ZN8crashpad10FileWriterD2Ev, symObjAddr: 0x438, symBinAddr: 0x1954C, symSize: 0x3C }
  - { offset: 0x2E851, size: 0x8, addend: 0x0, symName: __ZN8crashpad10FileWriterD1Ev, symObjAddr: 0x474, symBinAddr: 0x19588, symSize: 0x30 }
  - { offset: 0x2E89F, size: 0x8, addend: 0x0, symName: __ZN8crashpad10FileWriterD0Ev, symObjAddr: 0x4A4, symBinAddr: 0x195B8, symSize: 0x30 }
  - { offset: 0x2E914, size: 0x8, addend: 0x0, symName: __ZN8crashpad10FileWriter4OpenERKN4base8FilePathENS_13FileWriteModeENS_15FilePermissionsE, symObjAddr: 0x4D4, symBinAddr: 0x195E8, symSize: 0xF4 }
  - { offset: 0x2EA7B, size: 0x8, addend: 0x0, symName: __ZN8crashpad10FileWriter5CloseEv, symObjAddr: 0x618, symBinAddr: 0x196DC, symSize: 0xB8 }
  - { offset: 0x2EA92, size: 0x8, addend: 0x0, symName: __ZN8crashpad10FileWriter5CloseEv, symObjAddr: 0x618, symBinAddr: 0x196DC, symSize: 0xB8 }
  - { offset: 0x2EB27, size: 0x8, addend: 0x0, symName: __ZN8crashpad10FileWriter5WriteEPKvm, symObjAddr: 0x6D0, symBinAddr: 0x19794, symSize: 0xBC }
  - { offset: 0x2EBA8, size: 0x8, addend: 0x0, symName: __ZN8crashpad10FileWriter10WriteIoVecEPNSt3__16vectorINS_13WritableIoVecENS1_9allocatorIS3_EEEE, symObjAddr: 0x78C, symBinAddr: 0x19850, symSize: 0xAC }
  - { offset: 0x2EC29, size: 0x8, addend: 0x0, symName: __ZN8crashpad10FileWriter4SeekExi, symObjAddr: 0x838, symBinAddr: 0x198FC, symSize: 0xBC }
  - { offset: 0x2ECAA, size: 0x8, addend: 0x0, symName: __ZTv0_n24_N8crashpad10FileWriter4SeekExi, symObjAddr: 0x8F4, symBinAddr: 0x199B8, symSize: 0x10 }
  - { offset: 0x2ECC5, size: 0x8, addend: 0x0, symName: __ZN8crashpad19FileWriterInterfaceD1Ev, symObjAddr: 0x904, symBinAddr: 0x1B7F6C, symSize: 0x4 }
  - { offset: 0x2ECD6, size: 0x8, addend: 0x0, symName: __ZN8crashpad19FileWriterInterfaceD0Ev, symObjAddr: 0x908, symBinAddr: 0x1B7F70, symSize: 0x4 }
  - { offset: 0x2F0C0, size: 0x8, addend: 0x0, symName: __ZN8crashpad20FileModificationTimeERKN4base8FilePathEP8timespec, symObjAddr: 0x0, symBinAddr: 0x19B30, symSize: 0xDC }
  - { offset: 0x2F295, size: 0x8, addend: 0x0, symName: __ZN8crashpad22LoggingCreateDirectoryERKN4base8FilePathENS_15FilePermissionsEb, symObjAddr: 0xDC, symBinAddr: 0x19C0C, symSize: 0x178 }
  - { offset: 0x2F46D, size: 0x8, addend: 0x0, symName: __ZN8crashpad11IsDirectoryERKN4base8FilePathEb, symObjAddr: 0x254, symBinAddr: 0x19D84, symSize: 0x16C }
  - { offset: 0x2F67E, size: 0x8, addend: 0x0, symName: __ZN8crashpad19MoveFileOrDirectoryERKN4base8FilePathES3_, symObjAddr: 0x3C0, symBinAddr: 0x19EF0, symSize: 0x130 }
  - { offset: 0x2F925, size: 0x8, addend: 0x0, symName: __ZN8crashpad13IsRegularFileERKN4base8FilePathE, symObjAddr: 0x4F0, symBinAddr: 0x1A020, symSize: 0xE8 }
  - { offset: 0x2FA58, size: 0x8, addend: 0x0, symName: __ZN8crashpad17LoggingRemoveFileERKN4base8FilePathE, symObjAddr: 0x5D8, symBinAddr: 0x1A108, symSize: 0xC8 }
  - { offset: 0x2FB86, size: 0x8, addend: 0x0, symName: __ZN8crashpad22LoggingRemoveDirectoryERKN4base8FilePathE, symObjAddr: 0x6A0, symBinAddr: 0x1A1D0, symSize: 0xC8 }
  - { offset: 0x2FCB4, size: 0x8, addend: 0x0, symName: __ZN8crashpad11GetFileSizeERKN4base8FilePathE, symObjAddr: 0x768, symBinAddr: 0x1A298, symSize: 0xE4 }
  - { offset: 0x2FE33, size: 0x8, addend: 0x0, symName: __ZN8crashpad16GetDirectorySizeERKN4base8FilePathE, symObjAddr: 0x84C, symBinAddr: 0x1A37C, symSize: 0x104 }
  - { offset: 0x30196, size: 0x8, addend: 0x0, symName: __ZN4base3mac6CFCastIPK9__CFArrayEET_RKPKv, symObjAddr: 0x0, symBinAddr: 0x1A480, symSize: 0x3C }
  - { offset: 0x301DD, size: 0x8, addend: 0x0, symName: __ZN4base3mac12CFCastStrictIPK9__CFArrayEET_RKPKv, symObjAddr: 0x3C, symBinAddr: 0x1A4BC, symSize: 0xAC }
  - { offset: 0x302EA, size: 0x8, addend: 0x0, symName: __ZN4base3mac6CFCastIPK7__CFBagEET_RKPKv, symObjAddr: 0xE8, symBinAddr: 0x1A568, symSize: 0x3C }
  - { offset: 0x3031D, size: 0x8, addend: 0x0, symName: __ZN4base3mac12CFCastStrictIPK7__CFBagEET_RKPKv, symObjAddr: 0x124, symBinAddr: 0x1A5A4, symSize: 0xAC }
  - { offset: 0x3038A, size: 0x8, addend: 0x0, symName: __ZN4base3mac6CFCastIPK11__CFBooleanEET_RKPKv, symObjAddr: 0x1D0, symBinAddr: 0x1A650, symSize: 0x3C }
  - { offset: 0x303BD, size: 0x8, addend: 0x0, symName: __ZN4base3mac12CFCastStrictIPK11__CFBooleanEET_RKPKv, symObjAddr: 0x20C, symBinAddr: 0x1A68C, symSize: 0xAC }
  - { offset: 0x3042A, size: 0x8, addend: 0x0, symName: __ZN4base3mac6CFCastIPK8__CFDataEET_RKPKv, symObjAddr: 0x2B8, symBinAddr: 0x1A738, symSize: 0x3C }
  - { offset: 0x3045D, size: 0x8, addend: 0x0, symName: __ZN4base3mac12CFCastStrictIPK8__CFDataEET_RKPKv, symObjAddr: 0x2F4, symBinAddr: 0x1A774, symSize: 0xAC }
  - { offset: 0x304CA, size: 0x8, addend: 0x0, symName: __ZN4base3mac6CFCastIPK8__CFDateEET_RKPKv, symObjAddr: 0x3A0, symBinAddr: 0x1A820, symSize: 0x3C }
  - { offset: 0x304FD, size: 0x8, addend: 0x0, symName: __ZN4base3mac12CFCastStrictIPK8__CFDateEET_RKPKv, symObjAddr: 0x3DC, symBinAddr: 0x1A85C, symSize: 0xAC }
  - { offset: 0x3056A, size: 0x8, addend: 0x0, symName: __ZN4base3mac6CFCastIPK14__CFDictionaryEET_RKPKv, symObjAddr: 0x488, symBinAddr: 0x1A908, symSize: 0x3C }
  - { offset: 0x3059D, size: 0x8, addend: 0x0, symName: __ZN4base3mac12CFCastStrictIPK14__CFDictionaryEET_RKPKv, symObjAddr: 0x4C4, symBinAddr: 0x1A944, symSize: 0xAC }
  - { offset: 0x3060A, size: 0x8, addend: 0x0, symName: __ZN4base3mac6CFCastIPK8__CFNullEET_RKPKv, symObjAddr: 0x570, symBinAddr: 0x1A9F0, symSize: 0x3C }
  - { offset: 0x3063E, size: 0x8, addend: 0x0, symName: __ZN4base3mac12CFCastStrictIPK8__CFNullEET_RKPKv, symObjAddr: 0x5AC, symBinAddr: 0x1AA2C, symSize: 0xAC }
  - { offset: 0x306AB, size: 0x8, addend: 0x0, symName: __ZN4base3mac6CFCastIPK10__CFNumberEET_RKPKv, symObjAddr: 0x658, symBinAddr: 0x1AAD8, symSize: 0x3C }
  - { offset: 0x306DE, size: 0x8, addend: 0x0, symName: __ZN4base3mac12CFCastStrictIPK10__CFNumberEET_RKPKv, symObjAddr: 0x694, symBinAddr: 0x1AB14, symSize: 0xAC }
  - { offset: 0x3074B, size: 0x8, addend: 0x0, symName: __ZN4base3mac6CFCastIPK7__CFSetEET_RKPKv, symObjAddr: 0x740, symBinAddr: 0x1ABC0, symSize: 0x3C }
  - { offset: 0x3077E, size: 0x8, addend: 0x0, symName: __ZN4base3mac12CFCastStrictIPK7__CFSetEET_RKPKv, symObjAddr: 0x77C, symBinAddr: 0x1ABFC, symSize: 0xAC }
  - { offset: 0x307EB, size: 0x8, addend: 0x0, symName: __ZN4base3mac6CFCastIPK10__CFStringEET_RKPKv, symObjAddr: 0x828, symBinAddr: 0x1ACA8, symSize: 0x3C }
  - { offset: 0x3081E, size: 0x8, addend: 0x0, symName: __ZN4base3mac12CFCastStrictIPK10__CFStringEET_RKPKv, symObjAddr: 0x864, symBinAddr: 0x1ACE4, symSize: 0xAC }
  - { offset: 0x3088B, size: 0x8, addend: 0x0, symName: __ZN4base3mac6CFCastIPK7__CFURLEET_RKPKv, symObjAddr: 0x910, symBinAddr: 0x1AD90, symSize: 0x3C }
  - { offset: 0x308BE, size: 0x8, addend: 0x0, symName: __ZN4base3mac12CFCastStrictIPK7__CFURLEET_RKPKv, symObjAddr: 0x94C, symBinAddr: 0x1ADCC, symSize: 0xAC }
  - { offset: 0x3092B, size: 0x8, addend: 0x0, symName: __ZN4base3mac6CFCastIPK8__CFUUIDEET_RKPKv, symObjAddr: 0x9F8, symBinAddr: 0x1AE78, symSize: 0x3C }
  - { offset: 0x3095E, size: 0x8, addend: 0x0, symName: __ZN4base3mac12CFCastStrictIPK8__CFUUIDEET_RKPKv, symObjAddr: 0xA34, symBinAddr: 0x1AEB4, symSize: 0xAC }
  - { offset: 0x309CB, size: 0x8, addend: 0x0, symName: __ZN4base3mac6CFCastIP7CGColorEET_RKPKv, symObjAddr: 0xAE0, symBinAddr: 0x1AF60, symSize: 0x3C }
  - { offset: 0x309FE, size: 0x8, addend: 0x0, symName: __ZN4base3mac12CFCastStrictIP7CGColorEET_RKPKv, symObjAddr: 0xB1C, symBinAddr: 0x1AF9C, symSize: 0xAC }
  - { offset: 0x30A6B, size: 0x8, addend: 0x0, symName: __ZN4base3mac6CFCastIPK8__CTFontEET_RKPKv, symObjAddr: 0xBC8, symBinAddr: 0x1B048, symSize: 0x3C }
  - { offset: 0x30A9E, size: 0x8, addend: 0x0, symName: __ZN4base3mac12CFCastStrictIPK8__CTFontEET_RKPKv, symObjAddr: 0xC04, symBinAddr: 0x1B084, symSize: 0xAC }
  - { offset: 0x30B0B, size: 0x8, addend: 0x0, symName: __ZN4base3mac6CFCastIPK7__CTRunEET_RKPKv, symObjAddr: 0xCB0, symBinAddr: 0x1B130, symSize: 0x3C }
  - { offset: 0x30B3E, size: 0x8, addend: 0x0, symName: __ZN4base3mac12CFCastStrictIPK7__CTRunEET_RKPKv, symObjAddr: 0xCEC, symBinAddr: 0x1B16C, symSize: 0xAC }
  - { offset: 0x30EC0, size: 0x8, addend: 0x0, symName: __ZN8crashpad14HandleSnapshotC2Ev, symObjAddr: 0x0, symBinAddr: 0x1B218, symSize: 0x10 }
  - { offset: 0x30ECD, size: 0x8, addend: 0x0, symName: __ZN8crashpad14HandleSnapshotC2Ev, symObjAddr: 0x0, symBinAddr: 0x1B218, symSize: 0x10 }
  - { offset: 0x30EE4, size: 0x8, addend: 0x0, symName: __ZN8crashpad14HandleSnapshotC1Ev, symObjAddr: 0x10, symBinAddr: 0x1B228, symSize: 0x10 }
  - { offset: 0x30EF9, size: 0x8, addend: 0x0, symName: __ZN8crashpad14HandleSnapshotC1Ev, symObjAddr: 0x10, symBinAddr: 0x1B228, symSize: 0x10 }
  - { offset: 0x30F40, size: 0x8, addend: 0x0, symName: __ZN8crashpad14HandleSnapshotD2Ev, symObjAddr: 0x20, symBinAddr: 0x1B238, symSize: 0x30 }
  - { offset: 0x31019, size: 0x8, addend: 0x0, symName: __ZN8crashpad14HandleSnapshotD1Ev, symObjAddr: 0x50, symBinAddr: 0x1B268, symSize: 0x30 }
  - { offset: 0x31123, size: 0x8, addend: 0x0, symName: __ZN8base_icu21utf8_nextCharSafeBodyEPKhPiiia, symObjAddr: 0x0, symBinAddr: 0x1B298, symSize: 0x210 }
  - { offset: 0x31136, size: 0x8, addend: 0x0, symName: __ZN8base_icu21utf8_nextCharSafeBodyEPKhPiiia, symObjAddr: 0x0, symBinAddr: 0x1B298, symSize: 0x210 }
  - { offset: 0x31255, size: 0x8, addend: 0x0, symName: __ZN8crashpad8internal16InProcessHandlerC2Ev, symObjAddr: 0x0, symBinAddr: 0x1B4A8, symSize: 0x184 }
  - { offset: 0x31AA0, size: 0x8, addend: 0x0, symName: __ZNSt3__110unique_ptrIN8crashpad8internal25IOSIntermediateDumpWriterENS_14default_deleteIS3_EEE5resetB8ne190102EPS3_, symObjAddr: 0x288C, symBinAddr: 0x1D818, symSize: 0x28 }
  - { offset: 0x31B2D, size: 0x8, addend: 0x0, symName: __ZN8crashpad8internal16InProcessHandlerC1Ev, symObjAddr: 0x184, symBinAddr: 0x1B62C, symSize: 0x4 }
  - { offset: 0x31B42, size: 0x8, addend: 0x0, symName: __ZN8crashpad8internal16InProcessHandlerC1Ev, symObjAddr: 0x184, symBinAddr: 0x1B62C, symSize: 0x4 }
  - { offset: 0x31B64, size: 0x8, addend: 0x0, symName: __ZN8crashpad8internal16InProcessHandlerD2Ev, symObjAddr: 0x188, symBinAddr: 0x1B630, symSize: 0x100 }
  - { offset: 0x32237, size: 0x8, addend: 0x0, symName: __ZN8crashpad8internal16InProcessHandlerD1Ev, symObjAddr: 0x298, symBinAddr: 0x1B730, symSize: 0x4 }
  - { offset: 0x3224C, size: 0x8, addend: 0x0, symName: __ZN8crashpad8internal16InProcessHandlerD1Ev, symObjAddr: 0x298, symBinAddr: 0x1B730, symSize: 0x4 }
  - { offset: 0x322DA, size: 0x8, addend: 0x0, symName: __ZN8crashpad8internal16InProcessHandler10InitializeERKNSt3__112basic_stringIcNS2_11char_traitsIcEENS2_9allocatorIcEEEESA_RKN4base8FilePathESA_RKNS2_3mapIS8_S8_NS2_4lessIS8_EENS6_INS2_4pairIS9_S8_EEEEEENS2_8functionIFvvEEE, symObjAddr: 0x29C, symBinAddr: 0x1B734, symSize: 0x414 }
  - { offset: 0x32BEA, size: 0x8, addend: 0x0, symName: __ZNSt3__16__treeINS_12__value_typeINS_12basic_stringIcNS_11char_traitsIcEENS_9allocatorIcEEEES7_EENS_19__map_value_compareIS7_S8_NS_4lessIS7_EELb1EEENS5_IS8_EEE14__assign_multiINS_21__tree_const_iteratorIS8_PNS_11__tree_nodeIS8_PvEElEEEEvT_SM_, symObjAddr: 0x2A14, symBinAddr: 0x1D840, symSize: 0x18C }
  - { offset: 0x32EA7, size: 0x8, addend: 0x0, symName: __ZN12_GLOBAL__N_115CreateDirectoryERKN4base8FilePathE, symObjAddr: 0x6B0, symBinAddr: 0x1BB48, symSize: 0xDC }
  - { offset: 0x33070, size: 0x8, addend: 0x0, symName: __ZNSt3__16vectorIN4base8FilePathENS_9allocatorIS2_EEE16__destroy_vectorclB8ne190102Ev, symObjAddr: 0x326C, symBinAddr: 0x1DC98, symSize: 0x70 }
  - { offset: 0x3307A, size: 0x8, addend: 0x0, symName: __ZN8crashpad8internal16InProcessHandler17NewLockedFilePathEv, symObjAddr: 0x78C, symBinAddr: 0x1BC24, symSize: 0x134 }
  - { offset: 0x335AF, size: 0x8, addend: 0x0, symName: __ZN8crashpad8internal16InProcessHandler20CreateWriterWithPathERKN4base8FilePathE, symObjAddr: 0x8C0, symBinAddr: 0x1BD58, symSize: 0xFC }
  - { offset: 0x33814, size: 0x8, addend: 0x0, symName: __ZN8crashpad8internal16InProcessHandler23CallstackSymbolFilePathEv, symObjAddr: 0x9BC, symBinAddr: 0x1BE54, symSize: 0x134 }
  - { offset: 0x33EC4, size: 0x8, addend: 0x0, symName: __ZN8crashpad8internal16InProcessHandler23DumpExceptionFromSignalEP9__siginfoP17__darwin_ucontext, symObjAddr: 0xAF0, symBinAddr: 0x1BF88, symSize: 0x148 }
  - { offset: 0x340EB, size: 0x8, addend: 0x0, symName: __ZN8crashpad8internal16InProcessHandler15GetCachedWriterEv, symObjAddr: 0xC38, symBinAddr: 0x1C0D0, symSize: 0x6C }
  - { offset: 0x34161, size: 0x8, addend: 0x0, symName: __ZN8crashpad8internal16InProcessHandler12ScopedReportC2EPNS0_25IOSIntermediateDumpWriterERKNS0_22IOSSystemDataCollectorERKNSt3__13mapINS8_12basic_stringIcNS8_11char_traitsIcEENS8_9allocatorIcEEEESF_NS8_4lessISF_EENSD_INS8_4pairIKSF_SF_EEEEEEPKym, symObjAddr: 0x1FC0, symBinAddr: 0x1D458, symSize: 0x10C }
  - { offset: 0x34208, size: 0x8, addend: 0x0, symName: __ZN8crashpad8internal16InProcessHandler12ScopedReportD2Ev, symObjAddr: 0x20CC, symBinAddr: 0x1D564, symSize: 0x44 }
  - { offset: 0x3423B, size: 0x8, addend: 0x0, symName: __ZN8crashpad8internal16InProcessHandler18ScopedLockedWriterD2Ev, symObjAddr: 0x211C, symBinAddr: 0x1D5B4, symSize: 0x88 }
  - { offset: 0x342AB, size: 0x8, addend: 0x0, symName: __ZN8crashpad8internal16InProcessHandler18ScopedLockedWriterC1EPNS0_25IOSIntermediateDumpWriterEPKcS6_, symObjAddr: 0xCA4, symBinAddr: 0x1C13C, symSize: 0xC }
  - { offset: 0x342C0, size: 0x8, addend: 0x0, symName: __ZN8crashpad8internal16InProcessHandler18ScopedLockedWriterC1EPNS0_25IOSIntermediateDumpWriterEPKcS6_, symObjAddr: 0xCA4, symBinAddr: 0x1C13C, symSize: 0xC }
  - { offset: 0x342D2, size: 0x8, addend: 0x0, symName: __ZN8crashpad8internal16InProcessHandler12ScopedReportC1EPNS0_25IOSIntermediateDumpWriterERKNS0_22IOSSystemDataCollectorERKNSt3__13mapINS8_12basic_stringIcNS8_11char_traitsIcEENS8_9allocatorIcEEEESF_NS8_4lessISF_EENSD_INS8_4pairIKSF_SF_EEEEEEPKym, symObjAddr: 0xCB0, symBinAddr: 0x1C148, symSize: 0x4 }
  - { offset: 0x342E7, size: 0x8, addend: 0x0, symName: __ZN8crashpad8internal16InProcessHandler12ScopedReportC1EPNS0_25IOSIntermediateDumpWriterERKNS0_22IOSSystemDataCollectorERKNSt3__13mapINS8_12basic_stringIcNS8_11char_traitsIcEENS8_9allocatorIcEEEESF_NS8_4lessISF_EENSD_INS8_4pairIKSF_SF_EEEEEEPKym, symObjAddr: 0xCB0, symBinAddr: 0x1C148, symSize: 0x4 }
  - { offset: 0x342F1, size: 0x8, addend: 0x0, symName: __ZN8crashpad8internal16InProcessHandler12ScopedReportD1Ev, symObjAddr: 0xCB4, symBinAddr: 0x1C14C, symSize: 0x4 }
  - { offset: 0x34306, size: 0x8, addend: 0x0, symName: __ZN8crashpad8internal16InProcessHandler12ScopedReportD1Ev, symObjAddr: 0xCB4, symBinAddr: 0x1C14C, symSize: 0x4 }
  - { offset: 0x34310, size: 0x8, addend: 0x0, symName: __ZN8crashpad8internal16InProcessHandler18ScopedLockedWriterD1Ev, symObjAddr: 0xCB8, symBinAddr: 0x1C150, symSize: 0x4 }
  - { offset: 0x34325, size: 0x8, addend: 0x0, symName: __ZN8crashpad8internal16InProcessHandler18ScopedLockedWriterD1Ev, symObjAddr: 0xCB8, symBinAddr: 0x1C150, symSize: 0x4 }
  - { offset: 0x3432F, size: 0x8, addend: 0x0, symName: __ZN8crashpad8internal16InProcessHandler30DumpExceptionFromMachExceptionEijiPKxjiPKjj, symObjAddr: 0xCBC, symBinAddr: 0x1C154, symSize: 0x19C }
  - { offset: 0x34575, size: 0x8, addend: 0x0, symName: __ZN8crashpad8internal16InProcessHandler38DumpExceptionFromNSExceptionWithFramesEPKym, symObjAddr: 0xE58, symBinAddr: 0x1C2F0, symSize: 0x13C }
  - { offset: 0x3479C, size: 0x8, addend: 0x0, symName: __ZN8crashpad8internal16InProcessHandler39DumpExceptionFromSimulatedMachExceptionEPK24arm_unified_thread_stateiPN4base8FilePathE, symObjAddr: 0xF94, symBinAddr: 0x1C42C, symSize: 0xAC }
  - { offset: 0x347C8, size: 0x8, addend: 0x0, symName: __ZN8crashpad8internal16InProcessHandler45DumpExceptionFromSimulatedMachExceptionAtPathEPK24arm_unified_thread_stateiRKN4base8FilePathE, symObjAddr: 0x1040, symBinAddr: 0x1C4D8, symSize: 0x17C }
  - { offset: 0x34A55, size: 0x8, addend: 0x0, symName: __ZN8crashpad8internal16InProcessHandler20DumpCallStackSymbolsERKNSt3__16vectorINS2_12basic_stringIcNS2_11char_traitsIcEENS2_9allocatorIcEEEENS7_IS9_EEEERKS9_SF_, symObjAddr: 0x11BC, symBinAddr: 0x1C654, symSize: 0xC8 }
  - { offset: 0x34C56, size: 0x8, addend: 0x0, symName: __ZN8crashpad8internal16InProcessHandler31GetCachedCallStackSymbolsWriterEv, symObjAddr: 0x1284, symBinAddr: 0x1C71C, symSize: 0x8 }
  - { offset: 0x34C6B, size: 0x8, addend: 0x0, symName: __ZN8crashpad8internal16InProcessHandler31GetCachedCallStackSymbolsWriterEv, symObjAddr: 0x1284, symBinAddr: 0x1C71C, symSize: 0x8 }
  - { offset: 0x34C7D, size: 0x8, addend: 0x0, symName: __ZN8crashpad8internal25IOSIntermediateDumpWriter13ScopedRootMapD1Ev, symObjAddr: 0x128C, symBinAddr: 0x1C724, symSize: 0x2C }
  - { offset: 0x34C9B, size: 0x8, addend: 0x0, symName: __ZN8crashpad8internal16InProcessHandler35MoveIntermediateDumpAtPathToPendingERKN4base8FilePathE, symObjAddr: 0x12B8, symBinAddr: 0x1C750, symSize: 0x7C }
  - { offset: 0x34CF2, size: 0x8, addend: 0x0, symName: __ZN8crashpad8internal16InProcessHandler24ProcessIntermediateDumpsERKNSt3__13mapINS2_12basic_stringIcNS2_11char_traitsIcEENS2_9allocatorIcEEEES9_NS2_4lessIS9_EENS7_INS2_4pairIKS9_S9_EEEEEE, symObjAddr: 0x1334, symBinAddr: 0x1C7CC, symSize: 0xEC }
  - { offset: 0x34E5C, size: 0x8, addend: 0x0, symName: __ZN8crashpad8internal16InProcessHandler12PendingFilesEv, symObjAddr: 0x1420, symBinAddr: 0x1C8B8, symSize: 0x338 }
  - { offset: 0x35383, size: 0x8, addend: 0x0, symName: __ZN8crashpad8internal16InProcessHandler23ProcessIntermediateDumpERKN4base8FilePathERKNSt3__13mapINS6_12basic_stringIcNS6_11char_traitsIcEENS6_9allocatorIcEEEESD_NS6_4lessISD_EENSB_INS6_4pairIKSD_SD_EEEEEE, symObjAddr: 0x1758, symBinAddr: 0x1CBF0, symSize: 0x128 }
  - { offset: 0x35653, size: 0x8, addend: 0x0, symName: __ZNSt3__16vectorIN4base8FilePathENS_9allocatorIS2_EEE16__destroy_vectorclB8ne190102Ev, symObjAddr: 0x326C, symBinAddr: 0x1DC98, symSize: 0x70 }
  - { offset: 0x3577F, size: 0x8, addend: 0x0, symName: __ZNSt3__16vectorIN4base8FilePathENS_9allocatorIS2_EEE21__push_back_slow_pathIRKS2_EEPS2_OT_, symObjAddr: 0x3364, symBinAddr: 0x1DD90, symSize: 0x134 }
  - { offset: 0x35917, size: 0x8, addend: 0x0, symName: __ZNSt3__16vectorIN4base8FilePathENS_9allocatorIS2_EEE18__insert_with_sizeB8ne190102INS_11__wrap_iterIPS2_EES9_EES9_NS7_IPKS2_EET_T0_l, symObjAddr: 0x35DC, symBinAddr: 0x1DFB0, symSize: 0x1FC }
  - { offset: 0x35C19, size: 0x8, addend: 0x0, symName: __ZNKSt3__112basic_stringIcNS_11char_traitsIcEENS_9allocatorIcEEE20__throw_out_of_rangeB8ne190102Ev, symObjAddr: 0x32DC, symBinAddr: 0x1DD08, symSize: 0x14 }
  - { offset: 0x35C2E, size: 0x8, addend: 0x0, symName: __ZNSt3__120__throw_out_of_rangeB8ne190102EPKc, symObjAddr: 0x32F0, symBinAddr: 0x1DD1C, symSize: 0x50 }
  - { offset: 0x35C9E, size: 0x8, addend: 0x0, symName: __ZN8crashpad8internal34ProcessSnapshotIOSIntermediateDumpC2Ev, symObjAddr: 0x2230, symBinAddr: 0x1D63C, symSize: 0x7C }
  - { offset: 0x35E4E, size: 0x8, addend: 0x0, symName: __ZN8crashpad8internal16InProcessHandler12SaveSnapshotERNS0_34ProcessSnapshotIOSIntermediateDumpE, symObjAddr: 0x1DE8, symBinAddr: 0x1D280, symSize: 0x15C }
  - { offset: 0x3616B, size: 0x8, addend: 0x0, symName: __ZNSt3__16vectorINS_10unique_ptrIN8crashpad8internal33ModuleSnapshotIOSIntermediateDumpENS_14default_deleteIS4_EEEENS_9allocatorIS7_EEE16__destroy_vectorclB8ne190102Ev, symObjAddr: 0x22D4, symBinAddr: 0x1D6E0, symSize: 0x74 }
  - { offset: 0x36268, size: 0x8, addend: 0x0, symName: __ZNSt3__16vectorINS_10unique_ptrIN8crashpad8internal33ThreadSnapshotIOSIntermediateDumpENS_14default_deleteIS4_EEEENS_9allocatorIS7_EEE16__destroy_vectorclB8ne190102Ev, symObjAddr: 0x2370, symBinAddr: 0x1D77C, symSize: 0x74 }
  - { offset: 0x36365, size: 0x8, addend: 0x0, symName: __ZN8crashpad8internal34ProcessSnapshotIOSIntermediateDumpD1Ev, symObjAddr: 0x1F44, symBinAddr: 0x1D3DC, symSize: 0x7C }
  - { offset: 0x365B4, size: 0x8, addend: 0x0, symName: __ZN8crashpad8internal16InProcessHandler40ProcessIntermediateCallStackSymbolsDumpsEv, symObjAddr: 0x1880, symBinAddr: 0x1CD18, symSize: 0x1D4 }
  - { offset: 0x36A70, size: 0x8, addend: 0x0, symName: __ZN8crashpad8internal16InProcessHandler21PendingCallstackFilesEv, symObjAddr: 0x1A54, symBinAddr: 0x1CEEC, symSize: 0x33C }
  - { offset: 0x36FDA, size: 0x8, addend: 0x0, symName: __ZN5ahsdk8crashpad22CallStackSymbolHandlerD1Ev, symObjAddr: 0x1D90, symBinAddr: 0x1D228, symSize: 0x58 }
  - { offset: 0x37243, size: 0x8, addend: 0x0, symName: __ZNSt3__110unique_ptrIN8crashpad8internal36ExceptionSnapshotIOSIntermediateDumpENS_14default_deleteIS3_EEE5resetB8ne190102EPS3_, symObjAddr: 0x22AC, symBinAddr: 0x1D6B8, symSize: 0x28 }
  - { offset: 0x37271, size: 0x8, addend: 0x0, symName: __ZN8crashpad8internal16InProcessHandler18ScopedLockedWriterC2EPNS0_25IOSIntermediateDumpWriterEPKcS6_, symObjAddr: 0x2110, symBinAddr: 0x1D5A8, symSize: 0xC }
  - { offset: 0x3735D, size: 0x8, addend: 0x0, symName: __ZNSt3__110unique_ptrIN8crashpad8internal33ModuleSnapshotIOSIntermediateDumpENS_14default_deleteIS3_EEE5resetB8ne190102EPS3_, symObjAddr: 0x2348, symBinAddr: 0x1D754, symSize: 0x28 }
  - { offset: 0x373BA, size: 0x8, addend: 0x0, symName: __ZNSt3__110unique_ptrIN8crashpad8internal33ThreadSnapshotIOSIntermediateDumpENS_14default_deleteIS3_EEE5resetB8ne190102EPS3_, symObjAddr: 0x23E4, symBinAddr: 0x1D7F0, symSize: 0x28 }
  - { offset: 0x37802, size: 0x8, addend: 0x0, symName: __ZNSt3__16__treeINS_12__value_typeINS_12basic_stringIcNS_11char_traitsIcEENS_9allocatorIcEEEES7_EENS_19__map_value_compareIS7_S8_NS_4lessIS7_EELb1EEENS5_IS8_EEE18_DetachedTreeCache13__detach_nextEPNS_11__tree_nodeIS8_PvEE, symObjAddr: 0x2E70, symBinAddr: 0x1DA44, symSize: 0x54 }
  - { offset: 0x37853, size: 0x8, addend: 0x0, symName: __ZNSt3__16__treeINS_12__value_typeINS_12basic_stringIcNS_11char_traitsIcEENS_9allocatorIcEEEES7_EENS_19__map_value_compareIS7_S8_NS_4lessIS7_EELb1EEENS5_IS8_EEE16__find_leaf_highERPNS_15__tree_end_nodeIPNS_16__tree_node_baseIPvEEEERKS7_, symObjAddr: 0x2BA0, symBinAddr: 0x1D9CC, symSize: 0x78 }
  - { offset: 0x378A7, size: 0x8, addend: 0x0, symName: __ZNSt3__16__treeINS_12__value_typeINS_12basic_stringIcNS_11char_traitsIcEENS_9allocatorIcEEEES7_EENS_19__map_value_compareIS7_S8_NS_4lessIS7_EELb1EEENS5_IS8_EEE18_DetachedTreeCacheD2B8ne190102Ev, symObjAddr: 0x2EC4, symBinAddr: 0x1DA98, symSize: 0x54 }
  - { offset: 0x378D3, size: 0x8, addend: 0x0, symName: __ZNSt3__16__treeINS_12__value_typeINS_12basic_stringIcNS_11char_traitsIcEENS_9allocatorIcEEEES7_EENS_19__map_value_compareIS7_S8_NS_4lessIS7_EELb1EEENS5_IS8_EEE15__emplace_multiIJRKNS_4pairIKS7_S7_EEEEENS_15__tree_iteratorIS8_PNS_11__tree_nodeIS8_PvEElEEDpOT_, symObjAddr: 0x2F18, symBinAddr: 0x1DAEC, symSize: 0x6C }
  - { offset: 0x37B00, size: 0x8, addend: 0x0, symName: __ZNSt3__16__treeINS_12__value_typeINS_12basic_stringIcNS_11char_traitsIcEENS_9allocatorIcEEEES7_EENS_19__map_value_compareIS7_S8_NS_4lessIS7_EELb1EEENS5_IS8_EEE16__construct_nodeIJRKNS_4pairIKS7_S7_EEEEENS_10unique_ptrINS_11__tree_nodeIS8_PvEENS_22__tree_node_destructorINS5_ISO_EEEEEEDpOT_, symObjAddr: 0x2F84, symBinAddr: 0x1DB58, symSize: 0x68 }
  - { offset: 0x37C7F, size: 0x8, addend: 0x0, symName: __ZNSt3__110unique_ptrINS_11__tree_nodeINS_12__value_typeINS_12basic_stringIcNS_11char_traitsIcEENS_9allocatorIcEEEES8_EEPvEENS_22__tree_node_destructorINS6_ISB_EEEEE5resetB8ne190102EPSB_, symObjAddr: 0x3100, symBinAddr: 0x1DC50, symSize: 0x48 }
  - { offset: 0x37D7D, size: 0x8, addend: 0x0, symName: __ZNSt3__14pairIKNS_12basic_stringIcNS_11char_traitsIcEENS_9allocatorIcEEEES6_EC2B8ne190102ERKS8_, symObjAddr: 0x2FEC, symBinAddr: 0x1DBC0, symSize: 0x90 }
  - { offset: 0x37F74, size: 0x8, addend: 0x0, symName: __ZNSt3__110unique_ptrINS_11__tree_nodeINS_12__value_typeINS_12basic_stringIcNS_11char_traitsIcEENS_9allocatorIcEEEES8_EEPvEENS_22__tree_node_destructorINS6_ISB_EEEEE5resetB8ne190102EPSB_, symObjAddr: 0x3100, symBinAddr: 0x1DC50, symSize: 0x48 }
  - { offset: 0x37FC0, size: 0x8, addend: 0x0, symName: __ZNSt3__120__throw_out_of_rangeB8ne190102EPKc, symObjAddr: 0x32F0, symBinAddr: 0x1DD1C, symSize: 0x50 }
  - { offset: 0x37FDF, size: 0x8, addend: 0x0, symName: __ZNSt12out_of_rangeC1B8ne190102EPKc, symObjAddr: 0x3340, symBinAddr: 0x1DD6C, symSize: 0x24 }
  - { offset: 0x3806B, size: 0x8, addend: 0x0, symName: __ZNSt3__134__uninitialized_allocator_relocateB8ne190102INS_9allocatorIN4base8FilePathEEES3_EEvRT_PT0_S8_S8_, symObjAddr: 0x34F0, symBinAddr: 0x1DEC4, symSize: 0xA0 }
  - { offset: 0x38075, size: 0x8, addend: 0x0, symName: __ZNSt3__134__uninitialized_allocator_relocateB8ne190102INS_9allocatorIN4base8FilePathEEES3_EEvRT_PT0_S8_S8_, symObjAddr: 0x34F0, symBinAddr: 0x1DEC4, symSize: 0xA0 }
  - { offset: 0x38189, size: 0x8, addend: 0x0, symName: __ZNSt3__114__split_bufferIN4base8FilePathERNS_9allocatorIS2_EEED2Ev, symObjAddr: 0x3590, symBinAddr: 0x1DF64, symSize: 0x4C }
  - { offset: 0x38321, size: 0x8, addend: 0x0, symName: __ZNSt3__135__uninitialized_allocator_copy_implB8ne190102INS_9allocatorIN4base8FilePathEEEPS3_S5_S5_EET2_RT_T0_T1_S6_, symObjAddr: 0x3950, symBinAddr: 0x1E324, symSize: 0x80 }
  - { offset: 0x383F4, size: 0x8, addend: 0x0, symName: __ZNSt3__16vectorIN4base8FilePathENS_9allocatorIS2_EEE12__move_rangeEPS2_S6_S6_, symObjAddr: 0x37D8, symBinAddr: 0x1E1AC, symSize: 0xBC }
  - { offset: 0x384DB, size: 0x8, addend: 0x0, symName: __ZNSt3__16vectorIN4base8FilePathENS_9allocatorIS2_EEE26__swap_out_circular_bufferERNS_14__split_bufferIS2_RS4_EEPS2_, symObjAddr: 0x3894, symBinAddr: 0x1E268, symSize: 0xBC }
  - { offset: 0x385BE, size: 0x8, addend: 0x0, symName: __ZN8crashpad8internal32InProcessIntermediateDumpHandler11WriteHeaderEPNS0_25IOSIntermediateDumpWriterE, symObjAddr: 0x0, symBinAddr: 0x1E3A4, symSize: 0x70 }
  - { offset: 0x386ED, size: 0x8, addend: 0x0, symName: __ZN8crashpad8internal32InProcessIntermediateDumpHandler16WriteProcessInfoEPNS0_25IOSIntermediateDumpWriterERKNSt3__13mapINS4_12basic_stringIcNS4_11char_traitsIcEENS4_9allocatorIcEEEESB_NS4_4lessISB_EENS9_INS4_4pairIKSB_SB_EEEEEE, symObjAddr: 0x70, symBinAddr: 0x1E414, symSize: 0x604 }
  - { offset: 0x38F3A, size: 0x8, addend: 0x0, symName: __ZN8crashpad8internal32InProcessIntermediateDumpHandler15WriteSystemInfoEPNS0_25IOSIntermediateDumpWriterERKNS0_22IOSSystemDataCollectorEy, symObjAddr: 0x674, symBinAddr: 0x1EA18, symSize: 0x828 }
  - { offset: 0x399E0, size: 0x8, addend: 0x0, symName: __ZN8crashpad8internal32InProcessIntermediateDumpHandler15WriteThreadInfoEPNS0_25IOSIntermediateDumpWriterEPKym, symObjAddr: 0xE9C, symBinAddr: 0x1F240, symSize: 0x87C }
  - { offset: 0x3A083, size: 0x8, addend: 0x0, symName: __ZN8crashpad8internal12_GLOBAL__N_113WritePropertyI27__darwin_arm_thread_state64EEvPNS0_25IOSIntermediateDumpWriterENS0_19IntermediateDumpKeyEPKT_m, symObjAddr: 0x1718, symBinAddr: 0x1FABC, symSize: 0x6C }
  - { offset: 0x3A0D7, size: 0x8, addend: 0x0, symName: __ZN8crashpad8internal12_GLOBAL__N_113WritePropertyI25__darwin_arm_neon_state64EEvPNS0_25IOSIntermediateDumpWriterENS0_19IntermediateDumpKeyEPKT_m, symObjAddr: 0x1784, symBinAddr: 0x1FB28, symSize: 0x6C }
  - { offset: 0x3A12B, size: 0x8, addend: 0x0, symName: __ZN8crashpad8internal12_GLOBAL__N_126MachVMRegionRecurseDeepestEjPmS2_PjPiS3_, symObjAddr: 0x2F68, symBinAddr: 0x212FC, symSize: 0xD4 }
  - { offset: 0x3A157, size: 0x8, addend: 0x0, symName: __ZN8crashpad8internal12_GLOBAL__N_124MaybeCaptureMemoryAroundEPNS0_25IOSIntermediateDumpWriterEy, symObjAddr: 0x31A4, symBinAddr: 0x213D0, symSize: 0xC4 }
  - { offset: 0x3A494, size: 0x8, addend: 0x0, symName: __ZN8crashpad8internal12_GLOBAL__N_117ScopedTaskThreadsD1Ev, symObjAddr: 0x17F0, symBinAddr: 0x1FB94, symSize: 0x7C }
  - { offset: 0x3A552, size: 0x8, addend: 0x0, symName: __ZN8crashpad8internal32InProcessIntermediateDumpHandler15WriteModuleInfoEPNS0_25IOSIntermediateDumpWriterE, symObjAddr: 0x186C, symBinAddr: 0x1FC10, symSize: 0x3B8 }
  - { offset: 0x3AB31, size: 0x8, addend: 0x0, symName: __ZN8crashpad8internal32InProcessIntermediateDumpHandler24WriteModuleInfoAtAddressEPNS0_25IOSIntermediateDumpWriterEyb, symObjAddr: 0x1C24, symBinAddr: 0x1FFC8, symSize: 0x364 }
  - { offset: 0x3AFA5, size: 0x8, addend: 0x0, symName: __ZN8crashpad8internal32InProcessIntermediateDumpHandler27WriteDataSegmentAnnotationsEPNS0_25IOSIntermediateDumpWriterEPK18segment_command_64m, symObjAddr: 0x2650, symBinAddr: 0x209F4, symSize: 0x3F4 }
  - { offset: 0x3B618, size: 0x8, addend: 0x0, symName: __ZN8crashpad8internal32InProcessIntermediateDumpHandler24WriteExceptionFromSignalEPNS0_25IOSIntermediateDumpWriterERKNS0_22IOSSystemDataCollectorEP9__siginfoP17__darwin_ucontext, symObjAddr: 0x1F88, symBinAddr: 0x2032C, symSize: 0x1F8 }
  - { offset: 0x3B838, size: 0x8, addend: 0x0, symName: __ZN8crashpad8internal32InProcessIntermediateDumpHandler31WriteExceptionFromMachExceptionEPNS0_25IOSIntermediateDumpWriterEijiPKxjiPKjj, symObjAddr: 0x2180, symBinAddr: 0x20524, symSize: 0x240 }
  - { offset: 0x3BA7D, size: 0x8, addend: 0x0, symName: __ZN8crashpad8internal32InProcessIntermediateDumpHandler29WriteExceptionFromNSExceptionEPNS0_25IOSIntermediateDumpWriterE, symObjAddr: 0x23C0, symBinAddr: 0x20764, symSize: 0xD4 }
  - { offset: 0x3BB7B, size: 0x8, addend: 0x0, symName: __ZN8crashpad8internal32InProcessIntermediateDumpHandler21WriteCallStackSymbolsEPNS0_25IOSIntermediateDumpWriterERKNSt3__16vectorINS4_12basic_stringIcNS4_11char_traitsIcEENS4_9allocatorIcEEEENS9_ISB_EEEERKSB_SH_, symObjAddr: 0x2494, symBinAddr: 0x20838, symSize: 0x1BC }
  - { offset: 0x3BF23, size: 0x8, addend: 0x0, symName: __ZN8crashpad8internal32InProcessIntermediateDumpHandler28WriteCrashpadAnnotationsListEPNS0_25IOSIntermediateDumpWriterEPNS_12CrashpadInfoE, symObjAddr: 0x2A44, symBinAddr: 0x20DE8, symSize: 0x448 }
  - { offset: 0x3CD37, size: 0x8, addend: 0x0, symName: __ZN8crashpad10Annotation24TryCreateScopedSpinGuardEy, symObjAddr: 0x2E8C, symBinAddr: 0x21230, symSize: 0xCC }
  - { offset: 0x3CE52, size: 0x8, addend: 0x0, symName: __ZNSt3__123__optional_storage_baseIN8crashpad15ScopedSpinGuardELb0EE13__assign_fromB8ne190102INS_27__optional_move_assign_baseIS2_Lb0EEEEEvOT_, symObjAddr: 0x3760, symBinAddr: 0x215C0, symSize: 0x60 }
  - { offset: 0x3CF45, size: 0x8, addend: 0x0, symName: __ZN8crashpad15ScopedSpinGuardD2Ev, symObjAddr: 0x37C0, symBinAddr: 0x21620, symSize: 0x94 }
  - { offset: 0x3D086, size: 0x8, addend: 0x0, symName: __ZN8crashpad15ScopedSpinGuard24TryCreateScopedSpinGuardEyRNS_14SpinGuardStateE, symObjAddr: 0x3268, symBinAddr: 0x21494, symSize: 0x8C }
  - { offset: 0x3D34C, size: 0x8, addend: 0x0, symName: __ZN8crashpad15ScopedSpinGuardC2ERNS_14SpinGuardStateE, symObjAddr: 0x36C0, symBinAddr: 0x21520, symSize: 0xA0 }
  - { offset: 0x3D711, size: 0x8, addend: 0x0, symName: __ZN8crashpad25InitializationStateDcheck15SetInitializingEv, symObjAddr: 0x0, symBinAddr: 0x216B4, symSize: 0x1C }
  - { offset: 0x3D730, size: 0x8, addend: 0x0, symName: __ZN8crashpad25InitializationStateDcheck15SetInitializingEv, symObjAddr: 0x0, symBinAddr: 0x216B4, symSize: 0x1C }
  - { offset: 0x3D785, size: 0x8, addend: 0x0, symName: __ZN8crashpad25InitializationStateDcheck8SetValidEv, symObjAddr: 0x1C, symBinAddr: 0x216D0, symSize: 0x1C }
  - { offset: 0x3D809, size: 0x8, addend: 0x0, symName: __ZN8crashpad8internallsERNSt3__113basic_ostreamIcNS1_11char_traitsIcEEEERKNS0_19IntermediateDumpKeyE, symObjAddr: 0x0, symBinAddr: 0x216EC, symSize: 0x62C }
  - { offset: 0x3DEFA, size: 0x8, addend: 0x0, symName: __ZN8crashpad8internal14GetDataFromMapEPKNS0_22IOSIntermediateDumpMapERKNS0_19IntermediateDumpKeyENS0_26LogMissingDataValueFromMapE, symObjAddr: 0x62C, symBinAddr: 0x21D18, symSize: 0xA0 }
  - { offset: 0x3DF46, size: 0x8, addend: 0x0, symName: __ZN8crashpad8internal13GetMapFromMapEPKNS0_22IOSIntermediateDumpMapERKNS0_19IntermediateDumpKeyE, symObjAddr: 0x6CC, symBinAddr: 0x21DB8, symSize: 0x98 }
  - { offset: 0x3DF92, size: 0x8, addend: 0x0, symName: __ZN8crashpad8internal14GetListFromMapEPKNS0_22IOSIntermediateDumpMapERKNS0_19IntermediateDumpKeyE, symObjAddr: 0x764, symBinAddr: 0x21E50, symSize: 0x98 }
  - { offset: 0x3E014, size: 0x8, addend: 0x0, symName: __ZN8crashpad8internal20GetDataStringFromMapEPKNS0_22IOSIntermediateDumpMapERKNS0_19IntermediateDumpKeyEPNSt3__112basic_stringIcNS7_11char_traitsIcEENS7_9allocatorIcEEEE, symObjAddr: 0x7FC, symBinAddr: 0x21EE8, symSize: 0xD4 }
  - { offset: 0x3E12E, size: 0x8, addend: 0x0, symName: __ZN8crashpad8internal32GetDataValueFromMapErrorInternalERKNS0_19IntermediateDumpKeyE, symObjAddr: 0x8D0, symBinAddr: 0x21FBC, symSize: 0x88 }
  - { offset: 0x3E465, size: 0x8, addend: 0x0, symName: __ZN8crashpad8internal23IOSIntermediateDumpDataC2Ev, symObjAddr: 0x0, symBinAddr: 0x22044, symSize: 0x24 }
  - { offset: 0x3E47E, size: 0x8, addend: 0x0, symName: __ZN8crashpad8internal23IOSIntermediateDumpDataC2Ev, symObjAddr: 0x0, symBinAddr: 0x22044, symSize: 0x24 }
  - { offset: 0x3E4C0, size: 0x8, addend: 0x0, symName: __ZN8crashpad8internal23IOSIntermediateDumpDataC1Ev, symObjAddr: 0x24, symBinAddr: 0x22068, symSize: 0x24 }
  - { offset: 0x3E54D, size: 0x8, addend: 0x0, symName: __ZN8crashpad8internal23IOSIntermediateDumpDataD2Ev, symObjAddr: 0x48, symBinAddr: 0x2208C, symSize: 0x3C }
  - { offset: 0x3E637, size: 0x8, addend: 0x0, symName: __ZN8crashpad8internal23IOSIntermediateDumpDataD1Ev, symObjAddr: 0x84, symBinAddr: 0x220C8, symSize: 0x4 }
  - { offset: 0x3E64C, size: 0x8, addend: 0x0, symName: __ZN8crashpad8internal23IOSIntermediateDumpDataD1Ev, symObjAddr: 0x84, symBinAddr: 0x220C8, symSize: 0x4 }
  - { offset: 0x3E65C, size: 0x8, addend: 0x0, symName: __ZN8crashpad8internal23IOSIntermediateDumpDataD0Ev, symObjAddr: 0x88, symBinAddr: 0x220CC, symSize: 0x14 }
  - { offset: 0x3E68F, size: 0x8, addend: 0x0, symName: __ZNK8crashpad8internal23IOSIntermediateDumpData7GetTypeEv, symObjAddr: 0x9C, symBinAddr: 0x220E0, symSize: 0x8 }
  - { offset: 0x3E6B2, size: 0x8, addend: 0x0, symName: __ZNK8crashpad8internal23IOSIntermediateDumpData9GetStringEv, symObjAddr: 0xA4, symBinAddr: 0x220E8, symSize: 0x10 }
  - { offset: 0x3E6C7, size: 0x8, addend: 0x0, symName: __ZNK8crashpad8internal23IOSIntermediateDumpData9GetStringEv, symObjAddr: 0xA4, symBinAddr: 0x220E8, symSize: 0x10 }
  - { offset: 0x3E70D, size: 0x8, addend: 0x0, symName: __ZNSt3__112basic_stringIcNS_11char_traitsIcEENS_9allocatorIcEEEC2B8ne190102EPKcm, symObjAddr: 0xF8, symBinAddr: 0x2213C, symSize: 0xA0 }
  - { offset: 0x3E812, size: 0x8, addend: 0x0, symName: __ZNK8crashpad8internal23IOSIntermediateDumpData16GetValueInternalEPvm, symObjAddr: 0xB4, symBinAddr: 0x220F8, symSize: 0x44 }
  - { offset: 0x3E92B, size: 0x8, addend: 0x0, symName: __ZN8crashpad8internal27IOSIntermediateDumpFilePath10InitializeERKN4base8FilePathE, symObjAddr: 0x0, symBinAddr: 0x221DC, symSize: 0x184 }
  - { offset: 0x3ED0B, size: 0x8, addend: 0x0, symName: __ZNK8crashpad8internal27IOSIntermediateDumpFilePath10FileReaderEv, symObjAddr: 0x1D4, symBinAddr: 0x22360, symSize: 0x80 }
  - { offset: 0x3ED58, size: 0x8, addend: 0x0, symName: __ZNK8crashpad8internal27IOSIntermediateDumpFilePath10FileReaderEv, symObjAddr: 0x1D4, symBinAddr: 0x22360, symSize: 0x80 }
  - { offset: 0x3EDC8, size: 0x8, addend: 0x0, symName: __ZNK8crashpad8internal27IOSIntermediateDumpFilePath4SizeEv, symObjAddr: 0x254, symBinAddr: 0x223E0, symSize: 0x84 }
  - { offset: 0x3EE9F, size: 0x8, addend: 0x0, symName: __ZN8crashpad8internal28IOSIntermediateDumpByteArrayC2EPKvm, symObjAddr: 0x2D8, symBinAddr: 0x22464, symSize: 0xF0 }
  - { offset: 0x3F134, size: 0x8, addend: 0x0, symName: __ZN8crashpad8internal28IOSIntermediateDumpByteArrayC1EPKvm, symObjAddr: 0x3C8, symBinAddr: 0x22554, symSize: 0x4 }
  - { offset: 0x3F149, size: 0x8, addend: 0x0, symName: __ZN8crashpad8internal28IOSIntermediateDumpByteArrayC1EPKvm, symObjAddr: 0x3C8, symBinAddr: 0x22554, symSize: 0x4 }
  - { offset: 0x3F159, size: 0x8, addend: 0x0, symName: __ZNK8crashpad8internal28IOSIntermediateDumpByteArray10FileReaderEv, symObjAddr: 0x3CC, symBinAddr: 0x22558, symSize: 0x8 }
  - { offset: 0x3F16E, size: 0x8, addend: 0x0, symName: __ZNK8crashpad8internal28IOSIntermediateDumpByteArray10FileReaderEv, symObjAddr: 0x3CC, symBinAddr: 0x22558, symSize: 0x8 }
  - { offset: 0x3F18B, size: 0x8, addend: 0x0, symName: __ZNK8crashpad8internal28IOSIntermediateDumpByteArray4SizeEv, symObjAddr: 0x3D4, symBinAddr: 0x22560, symSize: 0x18 }
  - { offset: 0x3F1A0, size: 0x8, addend: 0x0, symName: __ZNK8crashpad8internal28IOSIntermediateDumpByteArray4SizeEv, symObjAddr: 0x3D4, symBinAddr: 0x22560, symSize: 0x18 }
  - { offset: 0x3F3BB, size: 0x8, addend: 0x0, symName: __ZN8crashpad8internal23IOSIntermediateDumpListC2Ev, symObjAddr: 0x0, symBinAddr: 0x22578, symSize: 0x24 }
  - { offset: 0x3F3D4, size: 0x8, addend: 0x0, symName: __ZN8crashpad8internal23IOSIntermediateDumpListC2Ev, symObjAddr: 0x0, symBinAddr: 0x22578, symSize: 0x24 }
  - { offset: 0x3F416, size: 0x8, addend: 0x0, symName: __ZN8crashpad8internal23IOSIntermediateDumpListC1Ev, symObjAddr: 0x24, symBinAddr: 0x2259C, symSize: 0x24 }
  - { offset: 0x3F47F, size: 0x8, addend: 0x0, symName: __ZN8crashpad8internal23IOSIntermediateDumpListD2Ev, symObjAddr: 0x48, symBinAddr: 0x225C0, symSize: 0x48 }
  - { offset: 0x3F4F4, size: 0x8, addend: 0x0, symName: __ZNSt3__16vectorINS_10unique_ptrIKN8crashpad8internal22IOSIntermediateDumpMapENS_14default_deleteIS5_EEEENS_9allocatorIS8_EEE16__destroy_vectorclB8ne190102Ev, symObjAddr: 0x12C, symBinAddr: 0x226A4, symSize: 0x7C }
  - { offset: 0x3F621, size: 0x8, addend: 0x0, symName: __ZN8crashpad8internal23IOSIntermediateDumpListD1Ev, symObjAddr: 0x90, symBinAddr: 0x22608, symSize: 0x48 }
  - { offset: 0x3F6B1, size: 0x8, addend: 0x0, symName: __ZN8crashpad8internal23IOSIntermediateDumpListD0Ev, symObjAddr: 0xD8, symBinAddr: 0x22650, symSize: 0x4C }
  - { offset: 0x3F750, size: 0x8, addend: 0x0, symName: __ZNK8crashpad8internal23IOSIntermediateDumpList7GetTypeEv, symObjAddr: 0x124, symBinAddr: 0x2269C, symSize: 0x8 }
  - { offset: 0x3F7D1, size: 0x8, addend: 0x0, symName: __ZN8crashpad8internal22IOSIntermediateDumpMapC2Ev, symObjAddr: 0x0, symBinAddr: 0x22720, symSize: 0x2C }
  - { offset: 0x3F808, size: 0x8, addend: 0x0, symName: __ZN8crashpad8internal22IOSIntermediateDumpMapC2Ev, symObjAddr: 0x0, symBinAddr: 0x22720, symSize: 0x2C }
  - { offset: 0x3F8B6, size: 0x8, addend: 0x0, symName: __ZN8crashpad8internal22IOSIntermediateDumpMapC1Ev, symObjAddr: 0x2C, symBinAddr: 0x2274C, symSize: 0x2C }
  - { offset: 0x3F991, size: 0x8, addend: 0x0, symName: __ZN8crashpad8internal22IOSIntermediateDumpMapD2Ev, symObjAddr: 0x58, symBinAddr: 0x22778, symSize: 0x38 }
  - { offset: 0x3F9FC, size: 0x8, addend: 0x0, symName: __ZNSt3__16__treeINS_12__value_typeIN8crashpad8internal19IntermediateDumpKeyENS_10unique_ptrINS3_25IOSIntermediateDumpObjectENS_14default_deleteIS6_EEEEEENS_19__map_value_compareIS4_SA_NS_4lessIS4_EELb1EEENS_9allocatorISA_EEE7destroyEPNS_11__tree_nodeISA_PvEE, symObjAddr: 0x270, symBinAddr: 0x22990, symSize: 0x58 }
  - { offset: 0x3FB51, size: 0x8, addend: 0x0, symName: __ZN8crashpad8internal22IOSIntermediateDumpMapD1Ev, symObjAddr: 0x90, symBinAddr: 0x227B0, symSize: 0x38 }
  - { offset: 0x3FBD7, size: 0x8, addend: 0x0, symName: __ZN8crashpad8internal22IOSIntermediateDumpMapD0Ev, symObjAddr: 0xC8, symBinAddr: 0x227E8, symSize: 0x3C }
  - { offset: 0x3FC6C, size: 0x8, addend: 0x0, symName: __ZNK8crashpad8internal22IOSIntermediateDumpMap7GetTypeEv, symObjAddr: 0x104, symBinAddr: 0x22824, symSize: 0x8 }
  - { offset: 0x3FCA7, size: 0x8, addend: 0x0, symName: __ZNK8crashpad8internal22IOSIntermediateDumpMap9GetAsDataERKNS0_19IntermediateDumpKeyE, symObjAddr: 0x10C, symBinAddr: 0x2282C, symSize: 0x74 }
  - { offset: 0x3FD84, size: 0x8, addend: 0x0, symName: __ZNK8crashpad8internal22IOSIntermediateDumpMap9GetAsListERKNS0_19IntermediateDumpKeyE, symObjAddr: 0x180, symBinAddr: 0x228A0, symSize: 0x78 }
  - { offset: 0x3FE61, size: 0x8, addend: 0x0, symName: __ZNK8crashpad8internal22IOSIntermediateDumpMap8GetAsMapERKNS0_19IntermediateDumpKeyE, symObjAddr: 0x1F8, symBinAddr: 0x22918, symSize: 0x78 }
  - { offset: 0x3FFAE, size: 0x8, addend: 0x0, symName: __ZN8crashpad8internal25IOSIntermediateDumpObjectC2Ev, symObjAddr: 0x0, symBinAddr: 0x229E8, symSize: 0x10 }
  - { offset: 0x3FFBB, size: 0x8, addend: 0x0, symName: __ZN8crashpad8internal25IOSIntermediateDumpObjectC2Ev, symObjAddr: 0x0, symBinAddr: 0x229E8, symSize: 0x10 }
  - { offset: 0x3FFCC, size: 0x8, addend: 0x0, symName: __ZN8crashpad8internal25IOSIntermediateDumpObjectD2Ev, symObjAddr: 0x10, symBinAddr: 0x229F8, symSize: 0x4 }
  - { offset: 0x3FFDD, size: 0x8, addend: 0x0, symName: __ZN8crashpad8internal25IOSIntermediateDumpObjectD1Ev, symObjAddr: 0x14, symBinAddr: 0x229FC, symSize: 0x4 }
  - { offset: 0x3FFEE, size: 0x8, addend: 0x0, symName: __ZN8crashpad8internal25IOSIntermediateDumpObjectD0Ev, symObjAddr: 0x18, symBinAddr: 0x22A00, symSize: 0x4 }
  - { offset: 0x40040, size: 0x8, addend: 0x0, symName: __ZN8crashpad8internal25IOSIntermediateDumpReader10InitializeERKNS0_28IOSIntermediateDumpInterfaceE, symObjAddr: 0x0, symBinAddr: 0x22A04, symSize: 0x188 }
  - { offset: 0x40346, size: 0x8, addend: 0x0, symName: __ZN8crashpad8internal25IOSIntermediateDumpReader5ParseEPNS_19FileReaderInterfaceEx, symObjAddr: 0x188, symBinAddr: 0x22B8C, symSize: 0x978 }
  - { offset: 0x40FDF, size: 0x8, addend: 0x0, symName: __ZNSt3__15dequeIPN8crashpad8internal25IOSIntermediateDumpObjectENS_9allocatorIS4_EEE9push_backEOS4_, symObjAddr: 0x14A4, symBinAddr: 0x23854, symSize: 0x84 }
  - { offset: 0x41092, size: 0x8, addend: 0x0, symName: __ZNSt3__16__treeINS_12__value_typeIN8crashpad8internal19IntermediateDumpKeyENS_10unique_ptrINS3_25IOSIntermediateDumpObjectENS_14default_deleteIS6_EEEEEENS_19__map_value_compareIS4_SA_NS_4lessIS4_EELb1EEENS_9allocatorISA_EEE25__emplace_unique_key_argsIS4_JRKNS_21piecewise_construct_tENS_5tupleIJRKS4_EEENSM_IJEEEEEENS_4pairINS_15__tree_iteratorISA_PNS_11__tree_nodeISA_PvEElEEbEERKT_DpOT0_, symObjAddr: 0x1C6C, symBinAddr: 0x23FE8, symSize: 0xE4 }
  - { offset: 0x412FE, size: 0x8, addend: 0x0, symName: __ZNSt3__16vectorIhNS_9allocatorIhEEEC2B8ne190102Em, symObjAddr: 0x2004, symBinAddr: 0x24190, symSize: 0x70 }
  - { offset: 0x4148B, size: 0x8, addend: 0x0, symName: __ZNSt3__111make_uniqueB8ne190102IN8crashpad8internal23IOSIntermediateDumpDataEJNS_6vectorIhNS_9allocatorIhEEEEEEENS_11__unique_ifIT_E15__unique_singleEDpOT0_, symObjAddr: 0xC74, symBinAddr: 0x23678, symSize: 0x98 }
  - { offset: 0x41634, size: 0x8, addend: 0x0, symName: __ZNSt3__15dequeIPN8crashpad8internal25IOSIntermediateDumpObjectENS_9allocatorIS4_EEE25__maybe_remove_back_spareB8ne190102Eb, symObjAddr: 0x1F98, symBinAddr: 0x24124, symSize: 0x6C }
  - { offset: 0x41740, size: 0x8, addend: 0x0, symName: __ZN8crashpad8internal23IOSIntermediateDumpList9push_backENSt3__110unique_ptrIKNS0_22IOSIntermediateDumpMapENS2_14default_deleteIS5_EEEE, symObjAddr: 0xB80, symBinAddr: 0x23584, symSize: 0xF4 }
  - { offset: 0x419E2, size: 0x8, addend: 0x0, symName: __ZNSt3__111make_uniqueB8ne190102IN8crashpad8internal23IOSIntermediateDumpDataEJNS_6vectorIhNS_9allocatorIhEEEEEEENS_11__unique_ifIT_E15__unique_singleEDpOT0_, symObjAddr: 0xC74, symBinAddr: 0x23678, symSize: 0x98 }
  - { offset: 0x419EC, size: 0x8, addend: 0x0, symName: __ZNSt3__15dequeIPN8crashpad8internal25IOSIntermediateDumpObjectENS_9allocatorIS4_EEED2B8ne190102Ev, symObjAddr: 0xE60, symBinAddr: 0x23770, symSize: 0x98 }
  - { offset: 0x41B91, size: 0x8, addend: 0x0, symName: __ZN8crashpad8internal25IOSIntermediateDumpReader7RootMapEv, symObjAddr: 0xB00, symBinAddr: 0x23504, symSize: 0x80 }
  - { offset: 0x41CA5, size: 0x8, addend: 0x0, symName: __ZNSt3__114__split_bufferINS_10unique_ptrIKN8crashpad8internal22IOSIntermediateDumpMapENS_14default_deleteIS5_EEEERNS_9allocatorIS8_EEED2Ev, symObjAddr: 0xE00, symBinAddr: 0x23710, symSize: 0x60 }
  - { offset: 0x41ED7, size: 0x8, addend: 0x0, symName: __ZNSt3__114__split_bufferIPPN8crashpad8internal25IOSIntermediateDumpObjectENS_9allocatorIS5_EEED2Ev, symObjAddr: 0xEF8, symBinAddr: 0x23808, symSize: 0x4C }
  - { offset: 0x42357, size: 0x8, addend: 0x0, symName: __ZNSt3__15dequeIPN8crashpad8internal25IOSIntermediateDumpObjectENS_9allocatorIS4_EEE9push_backEOS4_, symObjAddr: 0x14A4, symBinAddr: 0x23854, symSize: 0x84 }
  - { offset: 0x42397, size: 0x8, addend: 0x0, symName: __ZNSt3__15dequeIPN8crashpad8internal25IOSIntermediateDumpObjectENS_9allocatorIS4_EEE19__add_back_capacityEv, symObjAddr: 0x1528, symBinAddr: 0x238D8, symSize: 0x2F4 }
  - { offset: 0x42CA8, size: 0x8, addend: 0x0, symName: __ZNSt3__114__split_bufferIPPN8crashpad8internal25IOSIntermediateDumpObjectENS_9allocatorIS5_EEE9push_backEOS5_, symObjAddr: 0x181C, symBinAddr: 0x23BCC, symSize: 0x104 }
  - { offset: 0x42EEF, size: 0x8, addend: 0x0, symName: __ZNSt3__16__treeINS_12__value_typeIN8crashpad8internal19IntermediateDumpKeyENS_10unique_ptrINS3_25IOSIntermediateDumpObjectENS_14default_deleteIS6_EEEEEENS_19__map_value_compareIS4_SA_NS_4lessIS4_EELb1EEENS_9allocatorISA_EEE25__emplace_unique_key_argsIS4_JRKNS_21piecewise_construct_tENS_5tupleIJRKS4_EEENSM_IJEEEEEENS_4pairINS_15__tree_iteratorISA_PNS_11__tree_nodeISA_PvEElEEbEERKT_DpOT0_, symObjAddr: 0x1C6C, symBinAddr: 0x23FE8, symSize: 0xE4 }
  - { offset: 0x42EF9, size: 0x8, addend: 0x0, symName: __ZNSt3__114__split_bufferIPPN8crashpad8internal25IOSIntermediateDumpObjectERNS_9allocatorIS5_EEE9push_backEOS5_, symObjAddr: 0x1A2C, symBinAddr: 0x23DDC, symSize: 0x104 }
  - { offset: 0x4315B, size: 0x8, addend: 0x0, symName: __ZNSt3__114__split_bufferIPPN8crashpad8internal25IOSIntermediateDumpObjectERNS_9allocatorIS5_EEE10push_frontERKS5_, symObjAddr: 0x1B30, symBinAddr: 0x23EE0, symSize: 0x108 }
  - { offset: 0x433E5, size: 0x8, addend: 0x0, symName: __ZNSt3__114__split_bufferIPPN8crashpad8internal25IOSIntermediateDumpObjectENS_9allocatorIS5_EEE10push_frontEOS5_, symObjAddr: 0x1920, symBinAddr: 0x23CD0, symSize: 0x10C }
  - { offset: 0x436FD, size: 0x8, addend: 0x0, symName: __ZNSt3__110unique_ptrINS_11__tree_nodeINS_12__value_typeIN8crashpad8internal19IntermediateDumpKeyENS0_INS4_25IOSIntermediateDumpObjectENS_14default_deleteIS6_EEEEEEPvEENS_22__tree_node_destructorINS_9allocatorISC_EEEEE5resetB8ne190102EPSC_, symObjAddr: 0x1F40, symBinAddr: 0x240CC, symSize: 0x58 }
  - { offset: 0x43A40, size: 0x8, addend: 0x0, symName: __ZN8crashpad8internal25IOSIntermediateDumpWriterD2Ev, symObjAddr: 0x0, symBinAddr: 0x24200, symSize: 0xA4 }
  - { offset: 0x43D90, size: 0x8, addend: 0x0, symName: __ZN8crashpad8internal25IOSIntermediateDumpWriterD1Ev, symObjAddr: 0xB4, symBinAddr: 0x242A4, symSize: 0x4 }
  - { offset: 0x43DA5, size: 0x8, addend: 0x0, symName: __ZN8crashpad8internal25IOSIntermediateDumpWriterD1Ev, symObjAddr: 0xB4, symBinAddr: 0x242A4, symSize: 0x4 }
  - { offset: 0x43DC7, size: 0x8, addend: 0x0, symName: __ZN8crashpad8internal25IOSIntermediateDumpWriter4OpenERKN4base8FilePathE, symObjAddr: 0xB8, symBinAddr: 0x242A8, symSize: 0xD4 }
  - { offset: 0x43EDB, size: 0x8, addend: 0x0, symName: __ZN8crashpad8internal25IOSIntermediateDumpWriter5CloseEv, symObjAddr: 0x18C, symBinAddr: 0x2437C, symSize: 0xA4 }
  - { offset: 0x43F41, size: 0x8, addend: 0x0, symName: __ZN8crashpad8internalL19RawLoggingWriteFileEiPKvm, symObjAddr: 0x8AC, symBinAddr: 0x24A9C, symSize: 0xA4 }
  - { offset: 0x43F82, size: 0x8, addend: 0x0, symName: __ZN8crashpad8internal25IOSIntermediateDumpWriter16FlushWriteBufferEv, symObjAddr: 0x230, symBinAddr: 0x24420, symSize: 0x14 }
  - { offset: 0x43FA1, size: 0x8, addend: 0x0, symName: __ZN8crashpad8internal25IOSIntermediateDumpWriter18AddPropertyCStringENS0_19IntermediateDumpKeyEmPKc, symObjAddr: 0x244, symBinAddr: 0x24434, symSize: 0xB8 }
  - { offset: 0x43FDA, size: 0x8, addend: 0x0, symName: __ZN8crashpad8internal25IOSIntermediateDumpWriter19ReadCStringInternalEPKcPcmPm, symObjAddr: 0x2FC, symBinAddr: 0x244EC, symSize: 0x134 }
  - { offset: 0x44041, size: 0x8, addend: 0x0, symName: __ZN8crashpad8internal25IOSIntermediateDumpWriter8PropertyENS0_19IntermediateDumpKeyEPKvm, symObjAddr: 0x430, symBinAddr: 0x24620, symSize: 0x80 }
  - { offset: 0x440A3, size: 0x8, addend: 0x0, symName: __ZN8crashpad8internal25IOSIntermediateDumpWriter13BufferedWriteEPKvm, symObjAddr: 0x570, symBinAddr: 0x24760, symSize: 0x1EC }
  - { offset: 0x441A2, size: 0x8, addend: 0x0, symName: __ZN8crashpad8internal25IOSIntermediateDumpWriter19AddPropertyInternalENS0_19IntermediateDumpKeyEPKcm, symObjAddr: 0x4B0, symBinAddr: 0x246A0, symSize: 0x94 }
  - { offset: 0x44279, size: 0x8, addend: 0x0, symName: __ZN8crashpad8internal25IOSIntermediateDumpWriter13ArrayMapStartEv, symObjAddr: 0x544, symBinAddr: 0x24734, symSize: 0x2C }
  - { offset: 0x444EE, size: 0x8, addend: 0x0, symName: __ZN8crashpad8internal25IOSIntermediateDumpWriter8MapStartENS0_19IntermediateDumpKeyE, symObjAddr: 0x75C, symBinAddr: 0x2494C, symSize: 0x50 }
  - { offset: 0x4451A, size: 0x8, addend: 0x0, symName: __ZN8crashpad8internal25IOSIntermediateDumpWriter10ArrayStartENS0_19IntermediateDumpKeyE, symObjAddr: 0x7AC, symBinAddr: 0x2499C, symSize: 0x50 }
  - { offset: 0x44546, size: 0x8, addend: 0x0, symName: __ZN8crashpad8internal25IOSIntermediateDumpWriter6MapEndEv, symObjAddr: 0x7FC, symBinAddr: 0x249EC, symSize: 0x2C }
  - { offset: 0x44565, size: 0x8, addend: 0x0, symName: __ZN8crashpad8internal25IOSIntermediateDumpWriter8ArrayEndEv, symObjAddr: 0x828, symBinAddr: 0x24A18, symSize: 0x2C }
  - { offset: 0x44584, size: 0x8, addend: 0x0, symName: __ZN8crashpad8internal25IOSIntermediateDumpWriter12RootMapStartEv, symObjAddr: 0x854, symBinAddr: 0x24A44, symSize: 0x2C }
  - { offset: 0x445A3, size: 0x8, addend: 0x0, symName: __ZN8crashpad8internal25IOSIntermediateDumpWriter10RootMapEndEv, symObjAddr: 0x880, symBinAddr: 0x24A70, symSize: 0x2C }
  - { offset: 0x44A38, size: 0x8, addend: 0x0, symName: __ZN8crashpad8internal22IOSSystemDataCollectorC2Ev, symObjAddr: 0x0, symBinAddr: 0x24B40, symSize: 0x618 }
  - { offset: 0x45948, size: 0x8, addend: 0x0, symName: __ZN8crashpad8internal22IOSSystemDataCollectorC1Ev, symObjAddr: 0x618, symBinAddr: 0x25158, symSize: 0x4 }
  - { offset: 0x4595D, size: 0x8, addend: 0x0, symName: __ZN8crashpad8internal22IOSSystemDataCollectorC1Ev, symObjAddr: 0x618, symBinAddr: 0x25158, symSize: 0x4 }
  - { offset: 0x45967, size: 0x8, addend: 0x0, symName: __ZN8crashpad8internal22IOSSystemDataCollectorD2Ev, symObjAddr: 0x61C, symBinAddr: 0x2515C, symSize: 0xBC }
  - { offset: 0x45E88, size: 0x8, addend: 0x0, symName: __ZN8crashpad8internal22IOSSystemDataCollectorD1Ev, symObjAddr: 0x6E8, symBinAddr: 0x25218, symSize: 0x4 }
  - { offset: 0x45E9D, size: 0x8, addend: 0x0, symName: __ZN8crashpad8internal22IOSSystemDataCollectorD1Ev, symObjAddr: 0x6E8, symBinAddr: 0x25218, symSize: 0x4 }
  - { offset: 0x45EA7, size: 0x8, addend: 0x0, symName: __ZNK8crashpad8internal22IOSSystemDataCollector9OSVersionEPiS2_S2_, symObjAddr: 0x6EC, symBinAddr: 0x2521C, symSize: 0x1C }
  - { offset: 0x45ECA, size: 0x8, addend: 0x0, symName: __ZN8crashpad8internal22IOSSystemDataCollector15InstallHandlersEv, symObjAddr: 0x708, symBinAddr: 0x25238, symSize: 0x100 }
  - { offset: 0x45FC2, size: 0x8, addend: 0x0, symName: __ZN8crashpad8internal22IOSSystemDataCollector35SystemTimeZoneDidChangeNotificationEv, symObjAddr: 0x808, symBinAddr: 0x25338, symSize: 0x348 }
  - { offset: 0x4648D, size: 0x8, addend: 0x0, symName: __ZN8crashpad8internal22IOSSystemDataCollector32OrientationDidChangeNotificationEv, symObjAddr: 0xB50, symBinAddr: 0x25680, symSize: 0x6C }
  - { offset: 0x464C8, size: 0x8, addend: 0x0, symName: __ZN8crashpad8internal22IOSSystemDataCollector38ApplicationDidChangeActiveNotificationEv, symObjAddr: 0xBBC, symBinAddr: 0x256EC, symSize: 0xA8 }
  - { offset: 0x4678F, size: 0x8, addend: 0x0, symName: __ZZN12_GLOBAL__N_111AddObserverIN8crashpad8internal22IOSSystemDataCollectorEXadL_ZNS3_35SystemTimeZoneDidChangeNotificationEvEEEEvPK10__CFStringPT_ENUlP22__CFNotificationCenterPvS6_PKvPK14__CFDictionaryE_8__invokeESA_SB_S6_SD_SG_, symObjAddr: 0x1030, symBinAddr: 0x25794, symSize: 0x8 }
  - { offset: 0x467C8, size: 0x8, addend: 0x0, symName: __ZZN12_GLOBAL__N_111AddObserverIN8crashpad8internal22IOSSystemDataCollectorEXadL_ZNS3_32OrientationDidChangeNotificationEvEEEEvPK10__CFStringPT_ENUlP22__CFNotificationCenterPvS6_PKvPK14__CFDictionaryE_8__invokeESA_SB_S6_SD_SG_, symObjAddr: 0x1038, symBinAddr: 0x2579C, symSize: 0x8 }
  - { offset: 0x46801, size: 0x8, addend: 0x0, symName: __ZZN12_GLOBAL__N_111AddObserverIN8crashpad8internal22IOSSystemDataCollectorEXadL_ZNS3_38ApplicationDidChangeActiveNotificationEvEEEEvPK10__CFStringPT_ENUlP22__CFNotificationCenterPvS6_PKvPK14__CFDictionaryE_8__invokeESA_SB_S6_SD_SG_, symObjAddr: 0x1040, symBinAddr: 0x257A4, symSize: 0x8 }
  - { offset: 0x46863, size: 0x8, addend: 0x0, symName: __ZN4base4LockC2Ev, symObjAddr: 0x0, symBinAddr: 0x257AC, symSize: 0x28 }
  - { offset: 0x4687A, size: 0x8, addend: 0x0, symName: __ZN4base4LockC1Ev, symObjAddr: 0x28, symBinAddr: 0x257D4, symSize: 0x28 }
  - { offset: 0x468A6, size: 0x8, addend: 0x0, symName: __ZN4base4LockD2Ev, symObjAddr: 0x50, symBinAddr: 0x257FC, symSize: 0x80 }
  - { offset: 0x46B3B, size: 0x8, addend: 0x0, symName: __ZN4base4LockD1Ev, symObjAddr: 0xE0, symBinAddr: 0x2587C, symSize: 0x4 }
  - { offset: 0x46B50, size: 0x8, addend: 0x0, symName: __ZN4base4LockD1Ev, symObjAddr: 0xE0, symBinAddr: 0x2587C, symSize: 0x4 }
  - { offset: 0x46B60, size: 0x8, addend: 0x0, symName: __ZNK4base4Lock14AssertAcquiredEv, symObjAddr: 0xE4, symBinAddr: 0x25880, symSize: 0x78 }
  - { offset: 0x46BBC, size: 0x8, addend: 0x0, symName: __ZN4base4Lock18CheckHeldAndUnmarkEv, symObjAddr: 0x15C, symBinAddr: 0x258F8, symSize: 0x7C }
  - { offset: 0x46C10, size: 0x8, addend: 0x0, symName: __ZN4base4Lock18CheckUnheldAndMarkEv, symObjAddr: 0x1D8, symBinAddr: 0x25974, symSize: 0x78 }
  - { offset: 0x46E58, size: 0x8, addend: 0x0, symName: __ZN4base8internal8LockImplC2Ev, symObjAddr: 0x0, symBinAddr: 0x259EC, symSize: 0x1B0 }
  - { offset: 0x47192, size: 0x8, addend: 0x0, symName: __ZN4base8internal8LockImplC1Ev, symObjAddr: 0x1B0, symBinAddr: 0x25B9C, symSize: 0x4 }
  - { offset: 0x471A7, size: 0x8, addend: 0x0, symName: __ZN4base8internal8LockImplC1Ev, symObjAddr: 0x1B0, symBinAddr: 0x25B9C, symSize: 0x4 }
  - { offset: 0x471B1, size: 0x8, addend: 0x0, symName: __ZN4base8internal8LockImplD2Ev, symObjAddr: 0x1B4, symBinAddr: 0x25BA0, symSize: 0x7C }
  - { offset: 0x471F9, size: 0x8, addend: 0x0, symName: __ZN4base8internal8LockImplD1Ev, symObjAddr: 0x240, symBinAddr: 0x25C1C, symSize: 0x4 }
  - { offset: 0x4720E, size: 0x8, addend: 0x0, symName: __ZN4base8internal8LockImplD1Ev, symObjAddr: 0x240, symBinAddr: 0x25C1C, symSize: 0x4 }
  - { offset: 0x47224, size: 0x8, addend: 0x0, symName: __ZN4base8internal8LockImpl3TryEv, symObjAddr: 0x244, symBinAddr: 0x25C20, symSize: 0xB4 }
  - { offset: 0x47339, size: 0x8, addend: 0x0, symName: __ZN4base8internal8LockImpl4LockEv, symObjAddr: 0x2F8, symBinAddr: 0x25CD4, symSize: 0x70 }
  - { offset: 0x47381, size: 0x8, addend: 0x0, symName: __ZN4base8internal8LockImpl6UnlockEv, symObjAddr: 0x368, symBinAddr: 0x25D44, symSize: 0x70 }
  - { offset: 0x4775A, size: 0x8, addend: 0x0, symName: __ZN7logging11InitLoggingERKNS_15LoggingSettingsE, symObjAddr: 0x0, symBinAddr: 0x25DB4, symSize: 0x80 }
  - { offset: 0x47A1F, size: 0x8, addend: 0x0, symName: __ZN7logging10LogMessageC2EPKcS2_iPNSt3__112basic_stringIcNS3_11char_traitsIcEENS3_9allocatorIcEEEE, symObjAddr: 0x4DC, symBinAddr: 0x26290, symSize: 0x150 }
  - { offset: 0x47D72, size: 0x8, addend: 0x0, symName: __ZN7logging10LogMessageD2Ev, symObjAddr: 0x62C, symBinAddr: 0x263E0, symSize: 0x398 }
  - { offset: 0x483CE, size: 0x8, addend: 0x0, symName: __ZN7logging10LogMessageC1EPKcS2_iPNSt3__112basic_stringIcNS3_11char_traitsIcEENS3_9allocatorIcEEEE, symObjAddr: 0x80, symBinAddr: 0x25E34, symSize: 0x4 }
  - { offset: 0x483E3, size: 0x8, addend: 0x0, symName: __ZN7logging10LogMessageC1EPKcS2_iPNSt3__112basic_stringIcNS3_11char_traitsIcEENS3_9allocatorIcEEEE, symObjAddr: 0x80, symBinAddr: 0x25E34, symSize: 0x4 }
  - { offset: 0x483ED, size: 0x8, addend: 0x0, symName: __ZN7logging10LogMessageD1Ev, symObjAddr: 0x84, symBinAddr: 0x25E38, symSize: 0x4 }
  - { offset: 0x48402, size: 0x8, addend: 0x0, symName: __ZN7logging10LogMessageD1Ev, symObjAddr: 0x84, symBinAddr: 0x25E38, symSize: 0x4 }
  - { offset: 0x4840C, size: 0x8, addend: 0x0, symName: __ZN7logging20SetLogMessageHandlerEPFbiPKcimRKNSt3__112basic_stringIcNS2_11char_traitsIcEENS2_9allocatorIcEEEEE, symObjAddr: 0x88, symBinAddr: 0x25E3C, symSize: 0xC }
  - { offset: 0x4841D, size: 0x8, addend: 0x0, symName: __ZN7logging20GetLogMessageHandlerEv, symObjAddr: 0x94, symBinAddr: 0x25E48, symSize: 0xC }
  - { offset: 0x484B8, size: 0x8, addend: 0x0, symName: __ZN7logging10LogMessageC2EPKcS2_ii, symObjAddr: 0xA0, symBinAddr: 0x25E54, symSize: 0xF4 }
  - { offset: 0x486A5, size: 0x8, addend: 0x0, symName: __ZN7logging10LogMessage4InitEPKc, symObjAddr: 0x194, symBinAddr: 0x25F48, symSize: 0x340 }
  - { offset: 0x48EEF, size: 0x8, addend: 0x0, symName: __ZNSt3__1lsB8ne190102INS_11char_traitsIcEEEERNS_13basic_ostreamIcT_EES6_RKNS_8__iom_t4IcEE, symObjAddr: 0x9D4, symBinAddr: 0x26778, symSize: 0xA0 }
  - { offset: 0x48FA5, size: 0x8, addend: 0x0, symName: __ZN7logging18StringStreamBufferD1Ev, symObjAddr: 0x4D4, symBinAddr: 0x26288, symSize: 0x4 }
  - { offset: 0x48FBA, size: 0x8, addend: 0x0, symName: __ZN7logging18StringStreamBufferD1Ev, symObjAddr: 0x4D4, symBinAddr: 0x26288, symSize: 0x4 }
  - { offset: 0x48FCB, size: 0x8, addend: 0x0, symName: __ZN7logging10LogMessageC1EPKcS2_ii, symObjAddr: 0x4D8, symBinAddr: 0x2628C, symSize: 0x4 }
  - { offset: 0x48FE0, size: 0x8, addend: 0x0, symName: __ZN7logging10LogMessageC1EPKcS2_ii, symObjAddr: 0x4D8, symBinAddr: 0x2628C, symSize: 0x4 }
  - { offset: 0x4914C, size: 0x8, addend: 0x0, symName: __ZN7logging15ErrnoLogMessageC2EPKcS2_iii, symObjAddr: 0xA74, symBinAddr: 0x26818, symSize: 0x24 }
  - { offset: 0x49171, size: 0x8, addend: 0x0, symName: __ZN7logging15ErrnoLogMessageC1EPKcS2_iii, symObjAddr: 0xA98, symBinAddr: 0x2683C, symSize: 0x24 }
  - { offset: 0x491AB, size: 0x8, addend: 0x0, symName: __ZN7logging15ErrnoLogMessageD2Ev, symObjAddr: 0xABC, symBinAddr: 0x26860, symSize: 0xB8 }
  - { offset: 0x49377, size: 0x8, addend: 0x0, symName: __ZN7logging15ErrnoLogMessageD1Ev, symObjAddr: 0xB74, symBinAddr: 0x26918, symSize: 0x4 }
  - { offset: 0x4938C, size: 0x8, addend: 0x0, symName: __ZN7logging15ErrnoLogMessageD1Ev, symObjAddr: 0xB74, symBinAddr: 0x26918, symSize: 0x4 }
  - { offset: 0x493BA, size: 0x8, addend: 0x0, symName: __ZStlsRNSt3__113basic_ostreamIcNS_11char_traitsIcEEEERKNS_12basic_stringIDsNS1_IDsEENS_9allocatorIDsEEEE, symObjAddr: 0xB78, symBinAddr: 0x2691C, symSize: 0xA4 }
  - { offset: 0x49647, size: 0x8, addend: 0x0, symName: __ZN7logging18StringStreamBufferD0Ev, symObjAddr: 0xC1C, symBinAddr: 0x269C0, symSize: 0x14 }
  - { offset: 0x49682, size: 0x8, addend: 0x0, symName: __ZN7logging18StringStreamBuffer6xsputnEPKcl, symObjAddr: 0xC30, symBinAddr: 0x269D4, symSize: 0x28 }
  - { offset: 0x49693, size: 0x8, addend: 0x0, symName: __ZN7logging18StringStreamBuffer8overflowEi, symObjAddr: 0xC58, symBinAddr: 0x269FC, symSize: 0x34 }
  - { offset: 0x4998B, size: 0x8, addend: 0x0, symName: ___MIG_check__Request__mach_exception_raise_t, symObjAddr: 0x0, symBinAddr: 0x26A30, symSize: 0x80 }
  - { offset: 0x49998, size: 0x8, addend: 0x0, symName: ___MIG_check__Request__mach_exception_raise_t, symObjAddr: 0x0, symBinAddr: 0x26A30, symSize: 0x80 }
  - { offset: 0x499A9, size: 0x8, addend: 0x0, symName: ___MIG_check__Request__mach_exception_raise_state_t, symObjAddr: 0x80, symBinAddr: 0x26AB0, symSize: 0x88 }
  - { offset: 0x499BA, size: 0x8, addend: 0x0, symName: ___MIG_check__Request__mach_exception_raise_state_identity_t, symObjAddr: 0x108, symBinAddr: 0x26B38, symSize: 0xC4 }
  - { offset: 0x499CB, size: 0x8, addend: 0x0, symName: _mach_exc_server_routine, symObjAddr: 0x1CC, symBinAddr: 0x26BFC, symSize: 0x34 }
  - { offset: 0x499DC, size: 0x8, addend: 0x0, symName: __Xmach_exception_raise, symObjAddr: 0x200, symBinAddr: 0x26C30, symSize: 0x44 }
  - { offset: 0x499FE, size: 0x8, addend: 0x0, symName: __Xmach_exception_raise_state, symObjAddr: 0x244, symBinAddr: 0x26C74, symSize: 0x58 }
  - { offset: 0x49A0F, size: 0x8, addend: 0x0, symName: __Xmach_exception_raise_state, symObjAddr: 0x244, symBinAddr: 0x26C74, symSize: 0x58 }
  - { offset: 0x49A31, size: 0x8, addend: 0x0, symName: __Xmach_exception_raise_state_identity, symObjAddr: 0x29C, symBinAddr: 0x26CCC, symSize: 0x58 }
  - { offset: 0x49A3B, size: 0x8, addend: 0x0, symName: __Xmach_exception_raise_state_identity, symObjAddr: 0x29C, symBinAddr: 0x26CCC, symSize: 0x58 }
  - { offset: 0x49A5D, size: 0x8, addend: 0x0, symName: _mach_exc_server, symObjAddr: 0x2F4, symBinAddr: 0x26D24, symSize: 0x88 }
  - { offset: 0x49A67, size: 0x8, addend: 0x0, symName: _mach_exc_server, symObjAddr: 0x2F4, symBinAddr: 0x26D24, symSize: 0x88 }
  - { offset: 0x49B19, size: 0x8, addend: 0x0, symName: __ZN8crashpad14MachThreadSelfEv, symObjAddr: 0x0, symBinAddr: 0x26DAC, symSize: 0x14 }
  - { offset: 0x49B61, size: 0x8, addend: 0x0, symName: __ZN8crashpad11NewMachPortEj, symObjAddr: 0x14, symBinAddr: 0x26DC0, symSize: 0x9C }
  - { offset: 0x49C54, size: 0x8, addend: 0x0, symName: __ZN8crashpad10ExcMaskAllEv, symObjAddr: 0xB0, symBinAddr: 0x26E5C, symSize: 0x8 }
  - { offset: 0x49C65, size: 0x8, addend: 0x0, symName: __ZN8crashpad12ExcMaskValidEv, symObjAddr: 0xB8, symBinAddr: 0x26E64, symSize: 0x8 }
  - { offset: 0x49F98, size: 0x8, addend: 0x0, symName: __ZN7logging14MachLogMessageC2EPKcS2_iii, symObjAddr: 0x0, symBinAddr: 0x26E6C, symSize: 0x24 }
  - { offset: 0x49FAF, size: 0x8, addend: 0x0, symName: __ZN7logging14MachLogMessageC1EPKcS2_iii, symObjAddr: 0x24, symBinAddr: 0x26E90, symSize: 0x24 }
  - { offset: 0x4A03B, size: 0x8, addend: 0x0, symName: __ZN7logging14MachLogMessageD2Ev, symObjAddr: 0x48, symBinAddr: 0x26EB4, symSize: 0xD0 }
  - { offset: 0x4A2DA, size: 0x8, addend: 0x0, symName: __ZN7logging14MachLogMessageD1Ev, symObjAddr: 0x128, symBinAddr: 0x26F84, symSize: 0x4 }
  - { offset: 0x4A2EF, size: 0x8, addend: 0x0, symName: __ZN7logging14MachLogMessageD1Ev, symObjAddr: 0x128, symBinAddr: 0x26F84, symSize: 0x4 }
  - { offset: 0x4A5E5, size: 0x8, addend: 0x0, symName: __ZN8crashpad30MachMessageDeadlineFromTimeoutEj, symObjAddr: 0x0, symBinAddr: 0x26F88, symSize: 0x48 }
  - { offset: 0x4A60B, size: 0x8, addend: 0x0, symName: __ZN8crashpad23MachMessageWithDeadlineEP17mach_msg_header_tijjyjb, symObjAddr: 0x48, symBinAddr: 0x26FD0, symSize: 0xD8 }
  - { offset: 0x4A637, size: 0x8, addend: 0x0, symName: __ZN8crashpad12_GLOBAL__N_131MachMessageWithDeadlineInternalEP17mach_msg_header_tijjyjb, symObjAddr: 0x120, symBinAddr: 0x270A8, symSize: 0x120 }
  - { offset: 0x4A67D, size: 0x8, addend: 0x0, symName: __ZN8crashpad26PrepareMIGReplyFromRequestEPK17mach_msg_header_tPS0_, symObjAddr: 0x240, symBinAddr: 0x271C8, symSize: 0x3C }
  - { offset: 0x4A68E, size: 0x8, addend: 0x0, symName: __ZN8crashpad16SetMIGReplyErrorEP17mach_msg_header_ti, symObjAddr: 0x27C, symBinAddr: 0x27204, symSize: 0x8 }
  - { offset: 0x4A69F, size: 0x8, addend: 0x0, symName: __ZN8crashpad28MachMessageTrailerFromHeaderEPK17mach_msg_header_t, symObjAddr: 0x284, symBinAddr: 0x2720C, symSize: 0x14 }
  - { offset: 0x4A6BC, size: 0x8, addend: 0x0, symName: __ZN8crashpad30MachMessageDestroyReceivedPortEjj, symObjAddr: 0x298, symBinAddr: 0x27220, symSize: 0x180 }
  - { offset: 0x4AB89, size: 0x8, addend: 0x0, symName: __ZN8crashpad17MachMessageServer3RunEPNS0_9InterfaceEjiNS0_10PersistentENS0_12ReceiveLargeEj, symObjAddr: 0x0, symBinAddr: 0x273A0, symSize: 0x484 }
  - { offset: 0x4B143, size: 0x8, addend: 0x0, symName: __ZN8crashpad12_GLOBAL__N_126MachMessageAllocateReceiveEPNS0_17MachMessageBufferEijjyjb, symObjAddr: 0x484, symBinAddr: 0x27824, symSize: 0x94 }
  - { offset: 0x4B3E8, size: 0x8, addend: 0x0, symName: __ZN8crashpad12_GLOBAL__N_117MachMessageBuffer10ReallocateEm, symObjAddr: 0x518, symBinAddr: 0x278B8, symSize: 0x90 }
  - { offset: 0x4B4F2, size: 0x8, addend: 0x0, symName: __ZN4base3mac12ScopedMachVMD2Ev, symObjAddr: 0x5A8, symBinAddr: 0x27948, symSize: 0x40 }
  - { offset: 0x4B8B2, size: 0x8, addend: 0x0, symName: __ZN8crashpad27LoggingDetermineMergedRangeEPKNS_14MemorySnapshotES2_PNS_12CheckedRangeIymEE, symObjAddr: 0x0, symBinAddr: 0x27988, symSize: 0x14 }
  - { offset: 0x4B8D1, size: 0x8, addend: 0x0, symName: __ZN8crashpad12_GLOBAL__N_124DetermineMergedRangeImplEbPKNS_14MemorySnapshotES3_PNS_12CheckedRangeIymEE, symObjAddr: 0x14, symBinAddr: 0x2799C, symSize: 0x3BC }
  - { offset: 0x4BF6D, size: 0x8, addend: 0x0, symName: __ZNK8crashpad12CheckedRangeIymE13OverlapsRangeERKS1_, symObjAddr: 0x3E4, symBinAddr: 0x27D6C, symSize: 0x138 }
  - { offset: 0x4C14B, size: 0x8, addend: 0x0, symName: __ZN8crashpad20DetermineMergedRangeEPKNS_14MemorySnapshotES2_PNS_12CheckedRangeIymEE, symObjAddr: 0x3D0, symBinAddr: 0x27D58, symSize: 0x14 }
  - { offset: 0x4C455, size: 0x8, addend: 0x0, symName: __ZN8crashpad8internal33MemorySnapshotIOSIntermediateDump10InitializeEmmm, symObjAddr: 0x0, symBinAddr: 0x27EA4, symSize: 0xF8 }
  - { offset: 0x4C468, size: 0x8, addend: 0x0, symName: __ZN8crashpad8internal33MemorySnapshotIOSIntermediateDump10InitializeEmmm, symObjAddr: 0x0, symBinAddr: 0x27EA4, symSize: 0xF8 }
  - { offset: 0x4C72A, size: 0x8, addend: 0x0, symName: __ZNK8crashpad8internal33MemorySnapshotIOSIntermediateDump7AddressEv, symObjAddr: 0xF8, symBinAddr: 0x27F9C, symSize: 0x80 }
  - { offset: 0x4C786, size: 0x8, addend: 0x0, symName: __ZNK8crashpad8internal33MemorySnapshotIOSIntermediateDump4SizeEv, symObjAddr: 0x178, symBinAddr: 0x2801C, symSize: 0x80 }
  - { offset: 0x4C7E2, size: 0x8, addend: 0x0, symName: __ZNK8crashpad8internal33MemorySnapshotIOSIntermediateDump4ReadEPNS_14MemorySnapshot8DelegateE, symObjAddr: 0x1F8, symBinAddr: 0x2809C, symSize: 0xB8 }
  - { offset: 0x4C8C7, size: 0x8, addend: 0x0, symName: __ZNK8crashpad8internal33MemorySnapshotIOSIntermediateDump22MergeWithOtherSnapshotEPKNS_14MemorySnapshotE, symObjAddr: 0x2B0, symBinAddr: 0x28154, symSize: 0x25C }
  - { offset: 0x4CBC2, size: 0x8, addend: 0x0, symName: __ZNSt3__16vectorIhNS_9allocatorIhEEE7reserveEm, symObjAddr: 0x50C, symBinAddr: 0x283B0, symSize: 0x9C }
  - { offset: 0x4CD6F, size: 0x8, addend: 0x0, symName: __ZN8crashpad8internal33MemorySnapshotIOSIntermediateDumpD1Ev, symObjAddr: 0x5A8, symBinAddr: 0x2844C, symSize: 0x38 }
  - { offset: 0x4CD79, size: 0x8, addend: 0x0, symName: __ZNSt3__16vectorIhNS_9allocatorIhEEE18__insert_with_sizeB8ne190102IPKhS6_EENS_11__wrap_iterIPhEENS7_IS6_EET_T0_l, symObjAddr: 0x8FC, symBinAddr: 0x284FC, symSize: 0x1B8 }
  - { offset: 0x4D44B, size: 0x8, addend: 0x0, symName: __ZNKSt3__114default_deleteIN8crashpad8internal33MemorySnapshotIOSIntermediateDumpEEclB8ne190102EPS3_, symObjAddr: 0x8A8, symBinAddr: 0x284BC, symSize: 0x40 }
  - { offset: 0x4D60C, size: 0x8, addend: 0x0, symName: __ZNSt3__16vectorIhNS_9allocatorIhEEE18__insert_with_sizeB8ne190102IPKhS6_EENS_11__wrap_iterIPhEENS7_IS6_EET_T0_l, symObjAddr: 0x8FC, symBinAddr: 0x284FC, symSize: 0x1B8 }
  - { offset: 0x4D64C, size: 0x8, addend: 0x0, symName: __ZN8crashpad8internal33MemorySnapshotIOSIntermediateDumpD1Ev, symObjAddr: 0x5A8, symBinAddr: 0x2844C, symSize: 0x38 }
  - { offset: 0x4D78F, size: 0x8, addend: 0x0, symName: __ZN8crashpad8internal33MemorySnapshotIOSIntermediateDumpD0Ev, symObjAddr: 0x5E0, symBinAddr: 0x28484, symSize: 0x38 }
  - { offset: 0x4DB60, size: 0x8, addend: 0x0, symName: __ZN8crashpad8internal22MemorySnapshotMinidumpC2Ev, symObjAddr: 0x0, symBinAddr: 0x286B4, symSize: 0x20 }
  - { offset: 0x4DB8B, size: 0x8, addend: 0x0, symName: __ZN8crashpad8internal22MemorySnapshotMinidumpC2Ev, symObjAddr: 0x0, symBinAddr: 0x286B4, symSize: 0x20 }
  - { offset: 0x4DC0B, size: 0x8, addend: 0x0, symName: __ZN8crashpad8internal22MemorySnapshotMinidumpC1Ev, symObjAddr: 0x20, symBinAddr: 0x286D4, symSize: 0x20 }
  - { offset: 0x4DC20, size: 0x8, addend: 0x0, symName: __ZN8crashpad8internal22MemorySnapshotMinidumpC1Ev, symObjAddr: 0x20, symBinAddr: 0x286D4, symSize: 0x20 }
  - { offset: 0x4DCE8, size: 0x8, addend: 0x0, symName: __ZN8crashpad8internal22MemorySnapshotMinidumpD2Ev, symObjAddr: 0x40, symBinAddr: 0x286F4, symSize: 0x44 }
  - { offset: 0x4DE16, size: 0x8, addend: 0x0, symName: __ZN8crashpad8internal22MemorySnapshotMinidumpD1Ev, symObjAddr: 0x84, symBinAddr: 0x28738, symSize: 0x44 }
  - { offset: 0x4DF59, size: 0x8, addend: 0x0, symName: __ZN8crashpad8internal22MemorySnapshotMinidumpD0Ev, symObjAddr: 0xC8, symBinAddr: 0x2877C, symSize: 0x44 }
  - { offset: 0x4E0C9, size: 0x8, addend: 0x0, symName: __ZN8crashpad8internal22MemorySnapshotMinidump10InitializeEPNS_19FileReaderInterfaceEj, symObjAddr: 0x10C, symBinAddr: 0x287C0, symSize: 0x178 }
  - { offset: 0x4E548, size: 0x8, addend: 0x0, symName: __ZNK8crashpad8internal22MemorySnapshotMinidump7AddressEv, symObjAddr: 0x284, symBinAddr: 0x28938, symSize: 0x80 }
  - { offset: 0x4E5A4, size: 0x8, addend: 0x0, symName: __ZNK8crashpad8internal22MemorySnapshotMinidump4SizeEv, symObjAddr: 0x304, symBinAddr: 0x289B8, symSize: 0x84 }
  - { offset: 0x4E61A, size: 0x8, addend: 0x0, symName: __ZNK8crashpad8internal22MemorySnapshotMinidump4ReadEPNS_14MemorySnapshot8DelegateE, symObjAddr: 0x388, symBinAddr: 0x28A3C, symSize: 0xA0 }
  - { offset: 0x4E727, size: 0x8, addend: 0x0, symName: __ZNK8crashpad8internal22MemorySnapshotMinidump22MergeWithOtherSnapshotEPKNS_14MemorySnapshotE, symObjAddr: 0x428, symBinAddr: 0x28ADC, symSize: 0x1FC }
  - { offset: 0x4EA7F, size: 0x8, addend: 0x0, symName: __ZNSt3__16vectorIhNS_9allocatorIhEEE18__assign_with_sizeB8ne190102IPhS5_EEvT_T0_l, symObjAddr: 0x9C8, symBinAddr: 0x28CD8, symSize: 0x128 }
  - { offset: 0x4EE8B, size: 0x8, addend: 0x0, symName: __ZNSt3__16vectorIhNS_9allocatorIhEEE18__insert_with_sizeB8ne190102INS_11__wrap_iterIPKhEES8_EENS5_IPhEES8_T_T0_l, symObjAddr: 0xB30, symBinAddr: 0x28E00, symSize: 0x1BC }
  - { offset: 0x4F556, size: 0x8, addend: 0x0, symName: __ZNSt3__16vectorIhNS_9allocatorIhEEE18__assign_with_sizeB8ne190102IPhS5_EEvT_T0_l, symObjAddr: 0x9C8, symBinAddr: 0x28CD8, symSize: 0x128 }
  - { offset: 0x4F5E2, size: 0x8, addend: 0x0, symName: __ZNSt3__16vectorIhNS_9allocatorIhEEE18__insert_with_sizeB8ne190102INS_11__wrap_iterIPKhEES8_EENS5_IPhEES8_T_T0_l, symObjAddr: 0xB30, symBinAddr: 0x28E00, symSize: 0x1BC }
  - { offset: 0x4F7DD, size: 0x8, addend: 0x0, symName: __ZN8crashpad8internal26ReadMinidumpAnnotationListEPNS_19FileReaderInterfaceERK28MINIDUMP_LOCATION_DESCRIPTORPNSt3__16vectorINS_18AnnotationSnapshotENS6_9allocatorIS8_EEEE, symObjAddr: 0x0, symBinAddr: 0x28FBC, symSize: 0x388 }
  - { offset: 0x4FF94, size: 0x8, addend: 0x0, symName: __ZNSt3__16vectorIN8crashpad18MinidumpAnnotationENS_9allocatorIS2_EEEC2B8ne190102Em, symObjAddr: 0x948, symBinAddr: 0x2943C, symSize: 0x98 }
  - { offset: 0x50121, size: 0x8, addend: 0x0, symName: __ZNSt3__16vectorIN8crashpad18AnnotationSnapshotENS_9allocatorIS2_EEE7reserveEm, symObjAddr: 0x388, symBinAddr: 0x29344, symSize: 0xF8 }
  - { offset: 0x5033C, size: 0x8, addend: 0x0, symName: __ZNSt3__19allocatorIN8crashpad18AnnotationSnapshotEE9constructB8ne190102IS2_JS2_EEEvPT_DpOT0_, symObjAddr: 0xF18, symBinAddr: 0x298E8, symSize: 0x84 }
  - { offset: 0x504C8, size: 0x8, addend: 0x0, symName: __ZNSt3__16vectorIN8crashpad18AnnotationSnapshotENS_9allocatorIS2_EEE21__push_back_slow_pathIS2_EEPS2_OT_, symObjAddr: 0xDC8, symBinAddr: 0x29798, symSize: 0x150 }
  - { offset: 0x50657, size: 0x8, addend: 0x0, symName: __ZNSt3__16vectorIN8crashpad18AnnotationSnapshotENS_9allocatorIS2_EEE16__destroy_vectorclB8ne190102Ev, symObjAddr: 0xA88, symBinAddr: 0x29568, symSize: 0x70 }
  - { offset: 0x5074C, size: 0x8, addend: 0x0, symName: __ZNSt3__119__allocate_at_leastB8ne190102INS_9allocatorIN8crashpad18AnnotationSnapshotEEEEENS_19__allocation_resultINS_16allocator_traitsIT_E7pointerEEERS7_m, symObjAddr: 0xB0C, symBinAddr: 0x295D8, symSize: 0x48 }
  - { offset: 0x50798, size: 0x8, addend: 0x0, symName: __ZNSt3__134__uninitialized_allocator_relocateB8ne190102INS_9allocatorIN8crashpad18AnnotationSnapshotEEES3_EEvRT_PT0_S8_S8_, symObjAddr: 0xB54, symBinAddr: 0x29620, symSize: 0xA8 }
  - { offset: 0x507A2, size: 0x8, addend: 0x0, symName: __ZNSt3__134__uninitialized_allocator_relocateB8ne190102INS_9allocatorIN8crashpad18AnnotationSnapshotEEES3_EEvRT_PT0_S8_S8_, symObjAddr: 0xB54, symBinAddr: 0x29620, symSize: 0xA8 }
  - { offset: 0x508AD, size: 0x8, addend: 0x0, symName: __ZNSt3__114__split_bufferIN8crashpad18AnnotationSnapshotERNS_9allocatorIS2_EEED2Ev, symObjAddr: 0xD7C, symBinAddr: 0x2974C, symSize: 0x4C }
  - { offset: 0x5099F, size: 0x8, addend: 0x0, symName: __ZNSt3__119__allocate_at_leastB8ne190102INS_9allocatorIN8crashpad18AnnotationSnapshotEEEEENS_19__allocation_resultINS_16allocator_traitsIT_E7pointerEEERS7_m, symObjAddr: 0xB0C, symBinAddr: 0x295D8, symSize: 0x48 }
  - { offset: 0x50D12, size: 0x8, addend: 0x0, symName: __ZNSt3__16vectorIN8crashpad18MinidumpAnnotationENS_9allocatorIS2_EEEC2B8ne190102Em, symObjAddr: 0x948, symBinAddr: 0x2943C, symSize: 0x98 }
  - { offset: 0x50D52, size: 0x8, addend: 0x0, symName: __ZNSt3__16vectorIN8crashpad18MinidumpAnnotationENS_9allocatorIS2_EEE11__vallocateB8ne190102Em, symObjAddr: 0x9E0, symBinAddr: 0x294D4, symSize: 0x50 }
  - { offset: 0x50D99, size: 0x8, addend: 0x0, symName: __ZNSt3__119__allocate_at_leastB8ne190102INS_9allocatorIN8crashpad18MinidumpAnnotationEEEEENS_19__allocation_resultINS_16allocator_traitsIT_E7pointerEEERS7_m, symObjAddr: 0xA44, symBinAddr: 0x29524, symSize: 0x44 }
  - { offset: 0x50DE5, size: 0x8, addend: 0x0, symName: __ZNSt3__16vectorIN8crashpad18AnnotationSnapshotENS_9allocatorIS2_EEE16__destroy_vectorclB8ne190102Ev, symObjAddr: 0xA88, symBinAddr: 0x29568, symSize: 0x70 }
  - { offset: 0x50DF8, size: 0x8, addend: 0x0, symName: __ZNSt3__119__allocate_at_leastB8ne190102INS_9allocatorIN8crashpad18MinidumpAnnotationEEEEENS_19__allocation_resultINS_16allocator_traitsIT_E7pointerEEERS7_m, symObjAddr: 0xA44, symBinAddr: 0x29524, symSize: 0x44 }
  - { offset: 0x50E44, size: 0x8, addend: 0x0, symName: __ZNSt3__19allocatorIN8crashpad18AnnotationSnapshotEE9constructB8ne190102IS2_JRKS2_EEEvPT_DpOT0_, symObjAddr: 0xBFC, symBinAddr: 0x296C8, symSize: 0x84 }
  - { offset: 0x511E9, size: 0x8, addend: 0x0, symName: __ZN8crashpad24MinidumpAnnotationWriterC2Ev, symObjAddr: 0x0, symBinAddr: 0x2996C, symSize: 0x80 }
  - { offset: 0x51224, size: 0x8, addend: 0x0, symName: __ZN8crashpad24MinidumpAnnotationWriterC1Ev, symObjAddr: 0x80, symBinAddr: 0x299EC, symSize: 0x4 }
  - { offset: 0x51239, size: 0x8, addend: 0x0, symName: __ZN8crashpad24MinidumpAnnotationWriterC1Ev, symObjAddr: 0x80, symBinAddr: 0x299EC, symSize: 0x4 }
  - { offset: 0x51243, size: 0x8, addend: 0x0, symName: __ZN8crashpad24MinidumpAnnotationWriterD2Ev, symObjAddr: 0x84, symBinAddr: 0x299F0, symSize: 0x30 }
  - { offset: 0x5125A, size: 0x8, addend: 0x0, symName: __ZN8crashpad24MinidumpAnnotationWriterD1Ev, symObjAddr: 0xB4, symBinAddr: 0x29A20, symSize: 0x30 }
  - { offset: 0x51286, size: 0x8, addend: 0x0, symName: __ZN8crashpad24MinidumpAnnotationWriterD0Ev, symObjAddr: 0xE4, symBinAddr: 0x29A50, symSize: 0x34 }
  - { offset: 0x512FD, size: 0x8, addend: 0x0, symName: __ZN8crashpad24MinidumpAnnotationWriter22InitializeFromSnapshotERKNS_18AnnotationSnapshotE, symObjAddr: 0x118, symBinAddr: 0x29A84, symSize: 0xB4 }
  - { offset: 0x5182F, size: 0x8, addend: 0x0, symName: __ZN8crashpad24MinidumpAnnotationWriter18InitializeWithDataERKNSt3__112basic_stringIcNS1_11char_traitsIcEENS1_9allocatorIcEEEEtRKNS1_6vectorIhNS5_IhEEEE, symObjAddr: 0x1CC, symBinAddr: 0x29B38, symSize: 0xBC }
  - { offset: 0x5192B, size: 0x8, addend: 0x0, symName: __ZN8crashpad24MinidumpAnnotationWriter6FreezeEv, symObjAddr: 0x288, symBinAddr: 0x29BF4, symSize: 0xA8 }
  - { offset: 0x51978, size: 0x8, addend: 0x0, symName: __ZN8crashpad24MinidumpAnnotationWriter12SizeOfObjectEv, symObjAddr: 0x330, symBinAddr: 0x29C9C, symSize: 0x7C }
  - { offset: 0x51A1F, size: 0x8, addend: 0x0, symName: __ZN8crashpad24MinidumpAnnotationWriter8ChildrenEv, symObjAddr: 0x3AC, symBinAddr: 0x29D18, symSize: 0xB0 }
  - { offset: 0x51BA4, size: 0x8, addend: 0x0, symName: __ZN8crashpad24MinidumpAnnotationWriter11WriteObjectEPNS_19FileWriterInterfaceE, symObjAddr: 0x45C, symBinAddr: 0x29DC8, symSize: 0x7C }
  - { offset: 0x51C15, size: 0x8, addend: 0x0, symName: __ZN8crashpad28MinidumpAnnotationListWriterC2Ev, symObjAddr: 0x4D8, symBinAddr: 0x29E44, symSize: 0x58 }
  - { offset: 0x51CB9, size: 0x8, addend: 0x0, symName: __ZN8crashpad28MinidumpAnnotationListWriterC1Ev, symObjAddr: 0x530, symBinAddr: 0x29E9C, symSize: 0x4 }
  - { offset: 0x51CCE, size: 0x8, addend: 0x0, symName: __ZN8crashpad28MinidumpAnnotationListWriterC1Ev, symObjAddr: 0x530, symBinAddr: 0x29E9C, symSize: 0x4 }
  - { offset: 0x51D08, size: 0x8, addend: 0x0, symName: __ZN8crashpad28MinidumpAnnotationListWriterD2Ev, symObjAddr: 0x534, symBinAddr: 0x29EA0, symSize: 0x4C }
  - { offset: 0x51DD3, size: 0x8, addend: 0x0, symName: __ZNSt3__16vectorINS_10unique_ptrIN8crashpad24MinidumpAnnotationWriterENS_14default_deleteIS3_EEEENS_9allocatorIS6_EEE16__destroy_vectorclB8ne190102Ev, symObjAddr: 0x12C0, symBinAddr: 0x2A7A0, symSize: 0x40 }
  - { offset: 0x51E73, size: 0x8, addend: 0x0, symName: __ZN8crashpad28MinidumpAnnotationListWriterD1Ev, symObjAddr: 0x580, symBinAddr: 0x29EEC, symSize: 0x4 }
  - { offset: 0x51E88, size: 0x8, addend: 0x0, symName: __ZN8crashpad28MinidumpAnnotationListWriterD1Ev, symObjAddr: 0x580, symBinAddr: 0x29EEC, symSize: 0x4 }
  - { offset: 0x51E98, size: 0x8, addend: 0x0, symName: __ZN8crashpad28MinidumpAnnotationListWriterD0Ev, symObjAddr: 0x584, symBinAddr: 0x29EF0, symSize: 0x14 }
  - { offset: 0x51F25, size: 0x8, addend: 0x0, symName: __ZN8crashpad28MinidumpAnnotationListWriter18InitializeFromListERKNSt3__16vectorINS_18AnnotationSnapshotENS1_9allocatorIS3_EEEE, symObjAddr: 0x598, symBinAddr: 0x29F04, symSize: 0x144 }
  - { offset: 0x521B8, size: 0x8, addend: 0x0, symName: __ZN8crashpad28MinidumpAnnotationListWriter9AddObjectENSt3__110unique_ptrINS_24MinidumpAnnotationWriterENS1_14default_deleteIS3_EEEE, symObjAddr: 0x6DC, symBinAddr: 0x2A048, symSize: 0x154 }
  - { offset: 0x524B7, size: 0x8, addend: 0x0, symName: __ZNK8crashpad28MinidumpAnnotationListWriter8IsUsefulEv, symObjAddr: 0x830, symBinAddr: 0x2A19C, symSize: 0x10 }
  - { offset: 0x524C1, size: 0x8, addend: 0x0, symName: __ZNKSt3__114default_deleteIN8crashpad24MinidumpAnnotationWriterEEclB8ne190102EPS2_, symObjAddr: 0x1360, symBinAddr: 0x2A840, symSize: 0x3C }
  - { offset: 0x52598, size: 0x8, addend: 0x0, symName: __ZNSt3__114__split_bufferINS_10unique_ptrIN8crashpad24MinidumpAnnotationWriterENS_14default_deleteIS3_EEEERNS_9allocatorIS6_EEED2Ev, symObjAddr: 0x13E4, symBinAddr: 0x2A87C, symSize: 0x34 }
  - { offset: 0x525A2, size: 0x8, addend: 0x0, symName: __ZNSt3__114__split_bufferINS_10unique_ptrIN8crashpad24MinidumpAnnotationWriterENS_14default_deleteIS3_EEEERNS_9allocatorIS6_EEED2Ev, symObjAddr: 0x13E4, symBinAddr: 0x2A87C, symSize: 0x34 }
  - { offset: 0x5265B, size: 0x8, addend: 0x0, symName: __ZNK8crashpad28MinidumpAnnotationListWriter8IsUsefulEv, symObjAddr: 0x830, symBinAddr: 0x2A19C, symSize: 0x10 }
  - { offset: 0x52670, size: 0x8, addend: 0x0, symName: __ZNK8crashpad28MinidumpAnnotationListWriter8IsUsefulEv, symObjAddr: 0x830, symBinAddr: 0x2A19C, symSize: 0x10 }
  - { offset: 0x52699, size: 0x8, addend: 0x0, symName: __ZN8crashpad28MinidumpAnnotationListWriter6FreezeEv, symObjAddr: 0x840, symBinAddr: 0x2A1AC, symSize: 0x128 }
  - { offset: 0x5280E, size: 0x8, addend: 0x0, symName: __ZN8crashpad28MinidumpAnnotationListWriter12SizeOfObjectEv, symObjAddr: 0x968, symBinAddr: 0x2A2D4, symSize: 0x94 }
  - { offset: 0x5287B, size: 0x8, addend: 0x0, symName: __ZN8crashpad28MinidumpAnnotationListWriter8ChildrenEv, symObjAddr: 0x9FC, symBinAddr: 0x2A368, symSize: 0xCC }
  - { offset: 0x5292B, size: 0x8, addend: 0x0, symName: __ZNSt3__16vectorIPN8crashpad8internal16MinidumpWritableENS_9allocatorIS4_EEEC2B8ne190102Em, symObjAddr: 0x17AC, symBinAddr: 0x2A900, symSize: 0x74 }
  - { offset: 0x52B7E, size: 0x8, addend: 0x0, symName: __ZN8crashpad28MinidumpAnnotationListWriter11WriteObjectEPNS_19FileWriterInterfaceE, symObjAddr: 0xAC8, symBinAddr: 0x2A434, symSize: 0x29C }
  - { offset: 0x5323D, size: 0x8, addend: 0x0, symName: __ZNSt3__16vectorIN8crashpad13WritableIoVecENS_9allocatorIS2_EEE7reserveEm, symObjAddr: 0xD64, symBinAddr: 0x2A6D0, symSize: 0x90 }
  - { offset: 0x53669, size: 0x8, addend: 0x0, symName: __ZNSt3__16vectorIPN8crashpad8internal16MinidumpWritableENS_9allocatorIS4_EEE11__vallocateB8ne190102Em, symObjAddr: 0x1238, symBinAddr: 0x2A760, symSize: 0x40 }
  - { offset: 0x53679, size: 0x8, addend: 0x0, symName: __ZNSt3__16vectorIPN8crashpad8internal16MinidumpWritableENS_9allocatorIS4_EEE11__vallocateB8ne190102Em, symObjAddr: 0x1238, symBinAddr: 0x2A760, symSize: 0x40 }
  - { offset: 0x536DE, size: 0x8, addend: 0x0, symName: __ZNSt3__16vectorINS_10unique_ptrIN8crashpad24MinidumpAnnotationWriterENS_14default_deleteIS3_EEEENS_9allocatorIS6_EEE16__destroy_vectorclB8ne190102Ev, symObjAddr: 0x12C0, symBinAddr: 0x2A7A0, symSize: 0x40 }
  - { offset: 0x5370D, size: 0x8, addend: 0x0, symName: __ZNSt3__16vectorINS_10unique_ptrIN8crashpad24MinidumpAnnotationWriterENS_14default_deleteIS3_EEEENS_9allocatorIS6_EEE22__base_destruct_at_endB8ne190102EPS6_, symObjAddr: 0x1300, symBinAddr: 0x2A7E0, symSize: 0x60 }
  - { offset: 0x537B0, size: 0x8, addend: 0x0, symName: __ZNSt3__114__split_bufferINS_10unique_ptrIN8crashpad24MinidumpAnnotationWriterENS_14default_deleteIS3_EEEERNS_9allocatorIS6_EEE17__destruct_at_endB8ne190102EPS6_, symObjAddr: 0x1418, symBinAddr: 0x2A8B0, symSize: 0x50 }
  - { offset: 0x537C5, size: 0x8, addend: 0x0, symName: __ZNSt3__114__split_bufferINS_10unique_ptrIN8crashpad24MinidumpAnnotationWriterENS_14default_deleteIS3_EEEERNS_9allocatorIS6_EEE17__destruct_at_endB8ne190102EPS6_, symObjAddr: 0x1418, symBinAddr: 0x2A8B0, symSize: 0x50 }
  - { offset: 0x53A81, size: 0x8, addend: 0x0, symName: __ZNSt3__16vectorIPN8crashpad8internal16MinidumpWritableENS_9allocatorIS4_EEEC2B8ne190102Em, symObjAddr: 0x17AC, symBinAddr: 0x2A900, symSize: 0x74 }
  - { offset: 0x53B56, size: 0x8, addend: 0x0, symName: __ZN8crashpad23MinidumpByteArrayWriterC2Ev, symObjAddr: 0x0, symBinAddr: 0x2A974, symSize: 0x58 }
  - { offset: 0x53BFA, size: 0x8, addend: 0x0, symName: __ZN8crashpad23MinidumpByteArrayWriterC1Ev, symObjAddr: 0x58, symBinAddr: 0x2A9CC, symSize: 0x4 }
  - { offset: 0x53C0F, size: 0x8, addend: 0x0, symName: __ZN8crashpad23MinidumpByteArrayWriterC1Ev, symObjAddr: 0x58, symBinAddr: 0x2A9CC, symSize: 0x4 }
  - { offset: 0x53C6D, size: 0x8, addend: 0x0, symName: __ZN8crashpad23MinidumpByteArrayWriterD2Ev, symObjAddr: 0x5C, symBinAddr: 0x2A9D0, symSize: 0x40 }
  - { offset: 0x53DAD, size: 0x8, addend: 0x0, symName: __ZN8crashpad23MinidumpByteArrayWriterD1Ev, symObjAddr: 0x9C, symBinAddr: 0x2AA10, symSize: 0x4 }
  - { offset: 0x53DC2, size: 0x8, addend: 0x0, symName: __ZN8crashpad23MinidumpByteArrayWriterD1Ev, symObjAddr: 0x9C, symBinAddr: 0x2AA10, symSize: 0x4 }
  - { offset: 0x53DD2, size: 0x8, addend: 0x0, symName: __ZN8crashpad23MinidumpByteArrayWriterD0Ev, symObjAddr: 0xA0, symBinAddr: 0x2AA14, symSize: 0x14 }
  - { offset: 0x53E17, size: 0x8, addend: 0x0, symName: __ZN8crashpad23MinidumpByteArrayWriter8set_dataEPKhm, symObjAddr: 0xB4, symBinAddr: 0x2AA28, symSize: 0x18 }
  - { offset: 0x540E1, size: 0x8, addend: 0x0, symName: __ZN8crashpad23MinidumpByteArrayWriter6FreezeEv, symObjAddr: 0xCC, symBinAddr: 0x2AA40, symSize: 0x118 }
  - { offset: 0x544AC, size: 0x8, addend: 0x0, symName: __ZN8crashpad23MinidumpByteArrayWriter12SizeOfObjectEv, symObjAddr: 0x1E4, symBinAddr: 0x2AB58, symSize: 0x88 }
  - { offset: 0x545A3, size: 0x8, addend: 0x0, symName: __ZN8crashpad23MinidumpByteArrayWriter11WriteObjectEPNS_19FileWriterInterfaceE, symObjAddr: 0x26C, symBinAddr: 0x2ABE0, symSize: 0x1C0 }
  - { offset: 0x549F8, size: 0x8, addend: 0x0, symName: __ZNSt3__16vectorIN8crashpad13WritableIoVecENS_9allocatorIS2_EEEC2B8ne190102EmRKS2_, symObjAddr: 0xC04, symBinAddr: 0x2ADA0, symSize: 0x80 }
  - { offset: 0x5509A, size: 0x8, addend: 0x0, symName: __ZNSt3__16vectorIN8crashpad13WritableIoVecENS_9allocatorIS2_EEEC2B8ne190102EmRKS2_, symObjAddr: 0xC04, symBinAddr: 0x2ADA0, symSize: 0x80 }
  - { offset: 0x550E6, size: 0x8, addend: 0x0, symName: __ZNSt3__16vectorIN8crashpad13WritableIoVecENS_9allocatorIS2_EEE11__vallocateB8ne190102Em, symObjAddr: 0xC84, symBinAddr: 0x2AE20, symSize: 0x40 }
  - { offset: 0x55180, size: 0x8, addend: 0x0, symName: __ZN8crashpad8internal24MinidumpContextConverterC2Ev, symObjAddr: 0x0, symBinAddr: 0x2AE60, symSize: 0x14 }
  - { offset: 0x55195, size: 0x8, addend: 0x0, symName: __ZN8crashpad8internal24MinidumpContextConverterC2Ev, symObjAddr: 0x0, symBinAddr: 0x2AE60, symSize: 0x14 }
  - { offset: 0x551A9, size: 0x8, addend: 0x0, symName: __ZN8crashpad8internal24MinidumpContextConverterC2Ev, symObjAddr: 0x0, symBinAddr: 0x2AE60, symSize: 0x14 }
  - { offset: 0x55200, size: 0x8, addend: 0x0, symName: __ZN8crashpad8internal24MinidumpContextConverterC1Ev, symObjAddr: 0x14, symBinAddr: 0x2AE74, symSize: 0x14 }
  - { offset: 0x55215, size: 0x8, addend: 0x0, symName: __ZN8crashpad8internal24MinidumpContextConverterC1Ev, symObjAddr: 0x14, symBinAddr: 0x2AE74, symSize: 0x14 }
  - { offset: 0x55229, size: 0x8, addend: 0x0, symName: __ZN8crashpad8internal24MinidumpContextConverterC1Ev, symObjAddr: 0x14, symBinAddr: 0x2AE74, symSize: 0x14 }
  - { offset: 0x5523D, size: 0x8, addend: 0x0, symName: __ZN8crashpad8internal24MinidumpContextConverterC1Ev, symObjAddr: 0x14, symBinAddr: 0x2AE74, symSize: 0x14 }
  - { offset: 0x552C5, size: 0x8, addend: 0x0, symName: __ZN8crashpad8internal24MinidumpContextConverter10InitializeENS_15CPUArchitectureERKNSt3__16vectorIhNS3_9allocatorIhEEEE, symObjAddr: 0x28, symBinAddr: 0x2AE88, symSize: 0x9EC }
  - { offset: 0x5601F, size: 0x8, addend: 0x0, symName: __ZN8crashpad21MinidumpContextWriterD2Ev, symObjAddr: 0x0, symBinAddr: 0x2B874, symSize: 0x4 }
  - { offset: 0x56030, size: 0x8, addend: 0x0, symName: __ZN8crashpad21MinidumpContextWriterD1Ev, symObjAddr: 0x4, symBinAddr: 0x2B878, symSize: 0x4 }
  - { offset: 0x56041, size: 0x8, addend: 0x0, symName: __ZN8crashpad21MinidumpContextWriterD0Ev, symObjAddr: 0x8, symBinAddr: 0x2B87C, symSize: 0x4 }
  - { offset: 0x5612A, size: 0x8, addend: 0x0, symName: __ZN8crashpad21MinidumpContextWriter18CreateFromSnapshotEPKNS_10CPUContextE, symObjAddr: 0xC, symBinAddr: 0x2B880, symSize: 0x344 }
  - { offset: 0x5658C, size: 0x8, addend: 0x0, symName: __ZN8crashpad24MinidumpContextARMWriter22InitializeFromSnapshotEPKNS_13CPUContextARME, symObjAddr: 0x828, symBinAddr: 0x2C09C, symSize: 0x174 }
  - { offset: 0x565EF, size: 0x8, addend: 0x0, symName: __ZN8crashpad27MinidumpContextMIPS64Writer22InitializeFromSnapshotEPKNS_16CPUContextMIPS64E, symObjAddr: 0xCE0, symBinAddr: 0x2C554, symSize: 0x1CC }
  - { offset: 0x56652, size: 0x8, addend: 0x0, symName: __ZN8crashpad24MinidumpContextX86Writer22InitializeFromSnapshotEPKNS_13CPUContextX86E, symObjAddr: 0x390, symBinAddr: 0x2BC04, symSize: 0x170 }
  - { offset: 0x566B2, size: 0x8, addend: 0x0, symName: __ZN8crashpad26MinidumpContextARM64Writer22InitializeFromSnapshotEPKNS_15CPUContextARM64E, symObjAddr: 0x99C, symBinAddr: 0x2C210, symSize: 0x180 }
  - { offset: 0x567BC, size: 0x8, addend: 0x0, symName: __ZN8crashpad26MinidumpContextAMD64Writer22InitializeFromSnapshotEPKNS_16CPUContextX86_64E, symObjAddr: 0x564, symBinAddr: 0x2BDD8, symSize: 0x2C4 }
  - { offset: 0x56B9D, size: 0x8, addend: 0x0, symName: __ZN8crashpad25MinidumpContextMIPSWriter22InitializeFromSnapshotEPKNS_14CPUContextMIPSE, symObjAddr: 0xB1C, symBinAddr: 0x2C390, symSize: 0x1C4 }
  - { offset: 0x56C07, size: 0x8, addend: 0x0, symName: __ZN8crashpad24MinidumpContextX86WriterC1Ev, symObjAddr: 0x350, symBinAddr: 0x2BBC4, symSize: 0x40 }
  - { offset: 0x56EB6, size: 0x8, addend: 0x0, symName: __ZN7logging17MakeCheckOpStringIjN8crashpad23MinidumpContextX86FlagsEEEPNSt3__112basic_stringIcNS3_11char_traitsIcEENS3_9allocatorIcEEEERKT_RKT0_PKc, symObjAddr: 0x259C, symBinAddr: 0x2D804, symSize: 0x160 }
  - { offset: 0x573EB, size: 0x8, addend: 0x0, symName: __ZN8crashpad26MinidumpContextAMD64WriternwEm, symObjAddr: 0x500, symBinAddr: 0x2BD74, symSize: 0xC }
  - { offset: 0x5740A, size: 0x8, addend: 0x0, symName: __ZN8crashpad26MinidumpContextAMD64WriterC1Ev, symObjAddr: 0x50C, symBinAddr: 0x2BD80, symSize: 0x40 }
  - { offset: 0x5746F, size: 0x8, addend: 0x0, symName: __ZN8crashpad26MinidumpContextAMD64WriterdlEPv, symObjAddr: 0x54C, symBinAddr: 0x2BDC0, symSize: 0x18 }
  - { offset: 0x577B3, size: 0x8, addend: 0x0, symName: __ZN8crashpad22MinidumpXSaveAMD64CetU22InitializeFromSnapshotEPKNS_16CPUContextX86_64E, symObjAddr: 0x11E8, symBinAddr: 0x2CA4C, symSize: 0x90 }
  - { offset: 0x57FDA, size: 0x8, addend: 0x0, symName: __ZN7logging17MakeCheckOpStringIyN8crashpad26MinidumpContextMIPS64FlagsEEEPNSt3__112basic_stringIcNS3_11char_traitsIcEENS3_9allocatorIcEEEERKT_RKT0_PKc, symObjAddr: 0x329C, symBinAddr: 0x2DACC, symSize: 0x160 }
  - { offset: 0x58515, size: 0x8, addend: 0x0, symName: __ZN8crashpad21MinidumpContextWriter12SizeOfObjectEv, symObjAddr: 0xEAC, symBinAddr: 0x2C720, symSize: 0x8C }
  - { offset: 0x58567, size: 0x8, addend: 0x0, symName: __ZN8crashpad21MinidumpContextWriter24FreezeAndGetSizeOfObjectEv, symObjAddr: 0xF38, symBinAddr: 0x2C7AC, symSize: 0x2C }
  - { offset: 0x58591, size: 0x8, addend: 0x0, symName: __ZN8crashpad24MinidumpContextX86WriterC2Ev, symObjAddr: 0xF64, symBinAddr: 0x2C7D8, symSize: 0x40 }
  - { offset: 0x585BD, size: 0x8, addend: 0x0, symName: __ZN8crashpad24MinidumpContextX86WriterD2Ev, symObjAddr: 0xFA4, symBinAddr: 0x2C818, symSize: 0x4 }
  - { offset: 0x585D2, size: 0x8, addend: 0x0, symName: __ZN8crashpad24MinidumpContextX86WriterD2Ev, symObjAddr: 0xFA4, symBinAddr: 0x2C818, symSize: 0x4 }
  - { offset: 0x585E9, size: 0x8, addend: 0x0, symName: __ZN8crashpad24MinidumpContextX86WriterD1Ev, symObjAddr: 0xFA8, symBinAddr: 0x2C81C, symSize: 0x4 }
  - { offset: 0x585FE, size: 0x8, addend: 0x0, symName: __ZN8crashpad24MinidumpContextX86WriterD1Ev, symObjAddr: 0xFA8, symBinAddr: 0x2C81C, symSize: 0x4 }
  - { offset: 0x58612, size: 0x8, addend: 0x0, symName: __ZN8crashpad24MinidumpContextX86WriterD1Ev, symObjAddr: 0xFA8, symBinAddr: 0x2C81C, symSize: 0x4 }
  - { offset: 0x5862A, size: 0x8, addend: 0x0, symName: __ZN8crashpad24MinidumpContextX86WriterD0Ev, symObjAddr: 0xFAC, symBinAddr: 0x2C820, symSize: 0x14 }
  - { offset: 0x5867A, size: 0x8, addend: 0x0, symName: __ZN8crashpad24MinidumpContextX86Writer11WriteObjectEPNS_19FileWriterInterfaceE, symObjAddr: 0xFC0, symBinAddr: 0x2C834, symSize: 0xA0 }
  - { offset: 0x586CC, size: 0x8, addend: 0x0, symName: __ZNK8crashpad24MinidumpContextX86Writer11ContextSizeEv, symObjAddr: 0x1060, symBinAddr: 0x2C8D4, symSize: 0x7C }
  - { offset: 0x58713, size: 0x8, addend: 0x0, symName: __ZN8crashpad26MinidumpContextAMD64WriterC2Ev, symObjAddr: 0x10DC, symBinAddr: 0x2C950, symSize: 0x40 }
  - { offset: 0x5877B, size: 0x8, addend: 0x0, symName: __ZN8crashpad26MinidumpContextAMD64WriterD2Ev, symObjAddr: 0x111C, symBinAddr: 0x2C990, symSize: 0x3C }
  - { offset: 0x58899, size: 0x8, addend: 0x0, symName: __ZN8crashpad26MinidumpContextAMD64WriterD1Ev, symObjAddr: 0x1158, symBinAddr: 0x2C9CC, symSize: 0x3C }
  - { offset: 0x5893D, size: 0x8, addend: 0x0, symName: __ZN8crashpad26MinidumpContextAMD64WriterD0Ev, symObjAddr: 0x1194, symBinAddr: 0x2CA08, symSize: 0x44 }
  - { offset: 0x58A0F, size: 0x8, addend: 0x0, symName: __ZN7logging17MakeCheckOpStringIyyEEPNSt3__112basic_stringIcNS1_11char_traitsIcEENS1_9allocatorIcEEEERKT_RKT0_PKc, symObjAddr: 0x2D14, symBinAddr: 0x2D964, symSize: 0x168 }
  - { offset: 0x58F2F, size: 0x8, addend: 0x0, symName: __ZN8crashpad26MinidumpContextAMD64Writer9AlignmentEv, symObjAddr: 0x1278, symBinAddr: 0x2CADC, symSize: 0x7C }
  - { offset: 0x58FE4, size: 0x8, addend: 0x0, symName: __ZN8crashpad26MinidumpContextAMD64Writer11WriteObjectEPNS_19FileWriterInterfaceE, symObjAddr: 0x12F4, symBinAddr: 0x2CB58, symSize: 0x3B0 }
  - { offset: 0x5941A, size: 0x8, addend: 0x0, symName: __ZNK8crashpad26MinidumpContextAMD64Writer11ContextSizeEv, symObjAddr: 0x16A4, symBinAddr: 0x2CF08, symSize: 0x194 }
  - { offset: 0x59AA9, size: 0x8, addend: 0x0, symName: __ZNK8crashpad22MinidumpXSaveAMD64CetU4CopyEPv, symObjAddr: 0x1838, symBinAddr: 0x2D09C, symSize: 0x10 }
  - { offset: 0x59ABA, size: 0x8, addend: 0x0, symName: __ZN8crashpad24MinidumpContextARMWriterC2Ev, symObjAddr: 0x1848, symBinAddr: 0x2D0AC, symSize: 0x70 }
  - { offset: 0x59AE1, size: 0x8, addend: 0x0, symName: __ZN8crashpad24MinidumpContextARMWriterC1Ev, symObjAddr: 0x18B8, symBinAddr: 0x2D11C, symSize: 0x70 }
  - { offset: 0x59B1E, size: 0x8, addend: 0x0, symName: __ZN8crashpad24MinidumpContextARMWriterD2Ev, symObjAddr: 0x1928, symBinAddr: 0x2D18C, symSize: 0x4 }
  - { offset: 0x59B33, size: 0x8, addend: 0x0, symName: __ZN8crashpad24MinidumpContextARMWriterD2Ev, symObjAddr: 0x1928, symBinAddr: 0x2D18C, symSize: 0x4 }
  - { offset: 0x59B4B, size: 0x8, addend: 0x0, symName: __ZN8crashpad24MinidumpContextARMWriterD1Ev, symObjAddr: 0x192C, symBinAddr: 0x2D190, symSize: 0x4 }
  - { offset: 0x59B60, size: 0x8, addend: 0x0, symName: __ZN8crashpad24MinidumpContextARMWriterD1Ev, symObjAddr: 0x192C, symBinAddr: 0x2D190, symSize: 0x4 }
  - { offset: 0x59B75, size: 0x8, addend: 0x0, symName: __ZN8crashpad24MinidumpContextARMWriterD1Ev, symObjAddr: 0x192C, symBinAddr: 0x2D190, symSize: 0x4 }
  - { offset: 0x59B8E, size: 0x8, addend: 0x0, symName: __ZN8crashpad24MinidumpContextARMWriterD0Ev, symObjAddr: 0x1930, symBinAddr: 0x2D194, symSize: 0x14 }
  - { offset: 0x59BE1, size: 0x8, addend: 0x0, symName: __ZN8crashpad24MinidumpContextARMWriter11WriteObjectEPNS_19FileWriterInterfaceE, symObjAddr: 0x1944, symBinAddr: 0x2D1A8, symSize: 0xA0 }
  - { offset: 0x59C35, size: 0x8, addend: 0x0, symName: __ZNK8crashpad24MinidumpContextARMWriter11ContextSizeEv, symObjAddr: 0x19E4, symBinAddr: 0x2D248, symSize: 0x7C }
  - { offset: 0x59C7E, size: 0x8, addend: 0x0, symName: __ZN8crashpad26MinidumpContextARM64WriterC2Ev, symObjAddr: 0x1A60, symBinAddr: 0x2D2C4, symSize: 0x40 }
  - { offset: 0x59CA5, size: 0x8, addend: 0x0, symName: __ZN8crashpad26MinidumpContextARM64WriterC1Ev, symObjAddr: 0x1AA0, symBinAddr: 0x2D304, symSize: 0x40 }
  - { offset: 0x59CE2, size: 0x8, addend: 0x0, symName: __ZN8crashpad26MinidumpContextARM64WriterD2Ev, symObjAddr: 0x1AE0, symBinAddr: 0x2D344, symSize: 0x4 }
  - { offset: 0x59CF7, size: 0x8, addend: 0x0, symName: __ZN8crashpad26MinidumpContextARM64WriterD2Ev, symObjAddr: 0x1AE0, symBinAddr: 0x2D344, symSize: 0x4 }
  - { offset: 0x59D0F, size: 0x8, addend: 0x0, symName: __ZN8crashpad26MinidumpContextARM64WriterD1Ev, symObjAddr: 0x1AE4, symBinAddr: 0x2D348, symSize: 0x4 }
  - { offset: 0x59D24, size: 0x8, addend: 0x0, symName: __ZN8crashpad26MinidumpContextARM64WriterD1Ev, symObjAddr: 0x1AE4, symBinAddr: 0x2D348, symSize: 0x4 }
  - { offset: 0x59D39, size: 0x8, addend: 0x0, symName: __ZN8crashpad26MinidumpContextARM64WriterD1Ev, symObjAddr: 0x1AE4, symBinAddr: 0x2D348, symSize: 0x4 }
  - { offset: 0x59D52, size: 0x8, addend: 0x0, symName: __ZN8crashpad26MinidumpContextARM64WriterD0Ev, symObjAddr: 0x1AE8, symBinAddr: 0x2D34C, symSize: 0x14 }
  - { offset: 0x59DA5, size: 0x8, addend: 0x0, symName: __ZN8crashpad26MinidumpContextARM64Writer11WriteObjectEPNS_19FileWriterInterfaceE, symObjAddr: 0x1AFC, symBinAddr: 0x2D360, symSize: 0xA0 }
  - { offset: 0x59DF9, size: 0x8, addend: 0x0, symName: __ZNK8crashpad26MinidumpContextARM64Writer11ContextSizeEv, symObjAddr: 0x1B9C, symBinAddr: 0x2D400, symSize: 0x7C }
  - { offset: 0x59E42, size: 0x8, addend: 0x0, symName: __ZN8crashpad25MinidumpContextMIPSWriterC2Ev, symObjAddr: 0x1C18, symBinAddr: 0x2D47C, symSize: 0x40 }
  - { offset: 0x59E69, size: 0x8, addend: 0x0, symName: __ZN8crashpad25MinidumpContextMIPSWriterC1Ev, symObjAddr: 0x1C58, symBinAddr: 0x2D4BC, symSize: 0x40 }
  - { offset: 0x59EA6, size: 0x8, addend: 0x0, symName: __ZN8crashpad25MinidumpContextMIPSWriterD2Ev, symObjAddr: 0x1C98, symBinAddr: 0x2D4FC, symSize: 0x4 }
  - { offset: 0x59EBB, size: 0x8, addend: 0x0, symName: __ZN8crashpad25MinidumpContextMIPSWriterD2Ev, symObjAddr: 0x1C98, symBinAddr: 0x2D4FC, symSize: 0x4 }
  - { offset: 0x59ED3, size: 0x8, addend: 0x0, symName: __ZN8crashpad25MinidumpContextMIPSWriterD1Ev, symObjAddr: 0x1C9C, symBinAddr: 0x2D500, symSize: 0x4 }
  - { offset: 0x59EE8, size: 0x8, addend: 0x0, symName: __ZN8crashpad25MinidumpContextMIPSWriterD1Ev, symObjAddr: 0x1C9C, symBinAddr: 0x2D500, symSize: 0x4 }
  - { offset: 0x59EFD, size: 0x8, addend: 0x0, symName: __ZN8crashpad25MinidumpContextMIPSWriterD1Ev, symObjAddr: 0x1C9C, symBinAddr: 0x2D500, symSize: 0x4 }
  - { offset: 0x59F16, size: 0x8, addend: 0x0, symName: __ZN8crashpad25MinidumpContextMIPSWriterD0Ev, symObjAddr: 0x1CA0, symBinAddr: 0x2D504, symSize: 0x14 }
  - { offset: 0x59F69, size: 0x8, addend: 0x0, symName: __ZN8crashpad25MinidumpContextMIPSWriter11WriteObjectEPNS_19FileWriterInterfaceE, symObjAddr: 0x1CB4, symBinAddr: 0x2D518, symSize: 0xA0 }
  - { offset: 0x59FBD, size: 0x8, addend: 0x0, symName: __ZNK8crashpad25MinidumpContextMIPSWriter11ContextSizeEv, symObjAddr: 0x1D54, symBinAddr: 0x2D5B8, symSize: 0x7C }
  - { offset: 0x5A006, size: 0x8, addend: 0x0, symName: __ZN8crashpad27MinidumpContextMIPS64WriterC2Ev, symObjAddr: 0x1DD0, symBinAddr: 0x2D634, symSize: 0x40 }
  - { offset: 0x5A02D, size: 0x8, addend: 0x0, symName: __ZN8crashpad27MinidumpContextMIPS64WriterC1Ev, symObjAddr: 0x1E10, symBinAddr: 0x2D674, symSize: 0x40 }
  - { offset: 0x5A06A, size: 0x8, addend: 0x0, symName: __ZN8crashpad27MinidumpContextMIPS64WriterD2Ev, symObjAddr: 0x1E50, symBinAddr: 0x2D6B4, symSize: 0x4 }
  - { offset: 0x5A07F, size: 0x8, addend: 0x0, symName: __ZN8crashpad27MinidumpContextMIPS64WriterD2Ev, symObjAddr: 0x1E50, symBinAddr: 0x2D6B4, symSize: 0x4 }
  - { offset: 0x5A097, size: 0x8, addend: 0x0, symName: __ZN8crashpad27MinidumpContextMIPS64WriterD1Ev, symObjAddr: 0x1E54, symBinAddr: 0x2D6B8, symSize: 0x4 }
  - { offset: 0x5A0AC, size: 0x8, addend: 0x0, symName: __ZN8crashpad27MinidumpContextMIPS64WriterD1Ev, symObjAddr: 0x1E54, symBinAddr: 0x2D6B8, symSize: 0x4 }
  - { offset: 0x5A0C1, size: 0x8, addend: 0x0, symName: __ZN8crashpad27MinidumpContextMIPS64WriterD1Ev, symObjAddr: 0x1E54, symBinAddr: 0x2D6B8, symSize: 0x4 }
  - { offset: 0x5A0DA, size: 0x8, addend: 0x0, symName: __ZN8crashpad27MinidumpContextMIPS64WriterD0Ev, symObjAddr: 0x1E58, symBinAddr: 0x2D6BC, symSize: 0x14 }
  - { offset: 0x5A12D, size: 0x8, addend: 0x0, symName: __ZN8crashpad27MinidumpContextMIPS64Writer11WriteObjectEPNS_19FileWriterInterfaceE, symObjAddr: 0x1E6C, symBinAddr: 0x2D6D0, symSize: 0xA0 }
  - { offset: 0x5A181, size: 0x8, addend: 0x0, symName: __ZNK8crashpad27MinidumpContextMIPS64Writer11ContextSizeEv, symObjAddr: 0x1F0C, symBinAddr: 0x2D770, symSize: 0x7C }
  - { offset: 0x5A1CA, size: 0x8, addend: 0x0, symName: __ZN8crashpad22MinidumpXSaveAMD64CetUD1Ev, symObjAddr: 0x1F88, symBinAddr: 0x2D7EC, symSize: 0x4 }
  - { offset: 0x5A1DB, size: 0x8, addend: 0x0, symName: __ZN8crashpad22MinidumpXSaveAMD64CetUD0Ev, symObjAddr: 0x1F8C, symBinAddr: 0x2D7F0, symSize: 0x4 }
  - { offset: 0x5A1EC, size: 0x8, addend: 0x0, symName: __ZNK8crashpad22MinidumpXSaveAMD64CetU4SizeEv, symObjAddr: 0x1F90, symBinAddr: 0x2D7F4, symSize: 0x8 }
  - { offset: 0x5A1FD, size: 0x8, addend: 0x0, symName: __ZNK8crashpad22MinidumpXSaveAMD64CetU10XCompBVBitEv, symObjAddr: 0x1F98, symBinAddr: 0x2D7FC, symSize: 0x8 }
  - { offset: 0x5A5E5, size: 0x8, addend: 0x0, symName: __ZN7logging17MakeCheckOpStringIjN8crashpad23MinidumpContextX86FlagsEEEPNSt3__112basic_stringIcNS3_11char_traitsIcEENS3_9allocatorIcEEEERKT_RKT0_PKc, symObjAddr: 0x259C, symBinAddr: 0x2D804, symSize: 0x160 }
  - { offset: 0x5A771, size: 0x8, addend: 0x0, symName: __ZN8crashpad26MinidumpCrashpadInfoWriterC2Ev, symObjAddr: 0x0, symBinAddr: 0x2DC2C, symSize: 0x40 }
  - { offset: 0x5A7F1, size: 0x8, addend: 0x0, symName: __ZN8crashpad26MinidumpCrashpadInfoWriterC1Ev, symObjAddr: 0x40, symBinAddr: 0x2DC6C, symSize: 0x40 }
  - { offset: 0x5A898, size: 0x8, addend: 0x0, symName: __ZN8crashpad26MinidumpCrashpadInfoWriterD2Ev, symObjAddr: 0x80, symBinAddr: 0x2DCAC, symSize: 0x38 }
  - { offset: 0x5A918, size: 0x8, addend: 0x0, symName: __ZNSt3__110unique_ptrIN8crashpad36MinidumpModuleCrashpadInfoListWriterENS_14default_deleteIS2_EEE5resetB8ne190102EPS2_, symObjAddr: 0xA08, symBinAddr: 0x2E624, symSize: 0x28 }
  - { offset: 0x5A93F, size: 0x8, addend: 0x0, symName: __ZNSt3__110unique_ptrIN8crashpad36MinidumpSimpleStringDictionaryWriterENS_14default_deleteIS2_EEE5resetB8ne190102EPS2_, symObjAddr: 0x9E0, symBinAddr: 0x2E5FC, symSize: 0x28 }
  - { offset: 0x5A966, size: 0x8, addend: 0x0, symName: __ZN8crashpad26MinidumpCrashpadInfoWriterD1Ev, symObjAddr: 0xB8, symBinAddr: 0x2DCE4, symSize: 0x4 }
  - { offset: 0x5A97B, size: 0x8, addend: 0x0, symName: __ZN8crashpad26MinidumpCrashpadInfoWriterD1Ev, symObjAddr: 0xB8, symBinAddr: 0x2DCE4, symSize: 0x4 }
  - { offset: 0x5A98B, size: 0x8, addend: 0x0, symName: __ZN8crashpad26MinidumpCrashpadInfoWriterD0Ev, symObjAddr: 0xBC, symBinAddr: 0x2DCE8, symSize: 0x14 }
  - { offset: 0x5AA7E, size: 0x8, addend: 0x0, symName: __ZN8crashpad26MinidumpCrashpadInfoWriter22InitializeFromSnapshotEPKNS_15ProcessSnapshotE, symObjAddr: 0xD0, symBinAddr: 0x2DCFC, symSize: 0x2CC }
  - { offset: 0x5B3A2, size: 0x8, addend: 0x0, symName: __ZN8crashpad26MinidumpCrashpadInfoWriter11SetReportIDERKNS_4UUIDE, symObjAddr: 0x39C, symBinAddr: 0x2DFC8, symSize: 0x88 }
  - { offset: 0x5B3E9, size: 0x8, addend: 0x0, symName: __ZN8crashpad26MinidumpCrashpadInfoWriter11SetClientIDERKNS_4UUIDE, symObjAddr: 0x424, symBinAddr: 0x2E050, symSize: 0x88 }
  - { offset: 0x5B430, size: 0x8, addend: 0x0, symName: __ZN8crashpad26MinidumpCrashpadInfoWriter20SetSimpleAnnotationsENSt3__110unique_ptrINS_36MinidumpSimpleStringDictionaryWriterENS1_14default_deleteIS3_EEEE, symObjAddr: 0x4AC, symBinAddr: 0x2E0D8, symSize: 0x90 }
  - { offset: 0x5B4A5, size: 0x8, addend: 0x0, symName: __ZN8crashpad26MinidumpCrashpadInfoWriter13SetModuleListENSt3__110unique_ptrINS_36MinidumpModuleCrashpadInfoListWriterENS1_14default_deleteIS3_EEEE, symObjAddr: 0x544, symBinAddr: 0x2E170, symSize: 0x90 }
  - { offset: 0x5B526, size: 0x8, addend: 0x0, symName: __ZN8crashpad26MinidumpCrashpadInfoWriter14SetAddressMaskEy, symObjAddr: 0x53C, symBinAddr: 0x2E168, symSize: 0x8 }
  - { offset: 0x5B549, size: 0x8, addend: 0x0, symName: __ZN8crashpad26MinidumpCrashpadInfoWriter6FreezeEv, symObjAddr: 0x5D4, symBinAddr: 0x2E200, symSize: 0xB0 }
  - { offset: 0x5B5BE, size: 0x8, addend: 0x0, symName: __ZN8crashpad26MinidumpCrashpadInfoWriter12SizeOfObjectEv, symObjAddr: 0x684, symBinAddr: 0x2E2B0, symSize: 0x7C }
  - { offset: 0x5B69B, size: 0x8, addend: 0x0, symName: __ZN8crashpad26MinidumpCrashpadInfoWriter8ChildrenEv, symObjAddr: 0x700, symBinAddr: 0x2E32C, symSize: 0x1BC }
  - { offset: 0x5BBCE, size: 0x8, addend: 0x0, symName: __ZN8crashpad26MinidumpCrashpadInfoWriter11WriteObjectEPNS_19FileWriterInterfaceE, symObjAddr: 0x8BC, symBinAddr: 0x2E4E8, symSize: 0xA0 }
  - { offset: 0x5BC20, size: 0x8, addend: 0x0, symName: __ZNK8crashpad26MinidumpCrashpadInfoWriter10StreamTypeEv, symObjAddr: 0x95C, symBinAddr: 0x2E588, symSize: 0xC }
  - { offset: 0x5BC37, size: 0x8, addend: 0x0, symName: __ZNK8crashpad26MinidumpCrashpadInfoWriter8IsUsefulEv, symObjAddr: 0x968, symBinAddr: 0x2E594, symSize: 0x68 }
  - { offset: 0x5C0EB, size: 0x8, addend: 0x0, symName: __ZN8crashpad23MinidumpExceptionWriterC2Ev, symObjAddr: 0x0, symBinAddr: 0x2E64C, symSize: 0x3C }
  - { offset: 0x5C16B, size: 0x8, addend: 0x0, symName: __ZN8crashpad23MinidumpExceptionWriterC1Ev, symObjAddr: 0x3C, symBinAddr: 0x2E688, symSize: 0x3C }
  - { offset: 0x5C212, size: 0x8, addend: 0x0, symName: __ZN8crashpad23MinidumpExceptionWriterD2Ev, symObjAddr: 0x78, symBinAddr: 0x2E6C4, symSize: 0x38 }
  - { offset: 0x5C28B, size: 0x8, addend: 0x0, symName: __ZN8crashpad23MinidumpExceptionWriterD1Ev, symObjAddr: 0xB0, symBinAddr: 0x2E6FC, symSize: 0x38 }
  - { offset: 0x5C319, size: 0x8, addend: 0x0, symName: __ZN8crashpad23MinidumpExceptionWriterD0Ev, symObjAddr: 0xE8, symBinAddr: 0x2E734, symSize: 0x3C }
  - { offset: 0x5C428, size: 0x8, addend: 0x0, symName: __ZN8crashpad23MinidumpExceptionWriter22InitializeFromSnapshotEPKNS_17ExceptionSnapshotERKNSt3__13mapIyjNS4_4lessIyEENS4_9allocatorINS4_4pairIKyjEEEEEEb, symObjAddr: 0x124, symBinAddr: 0x2E770, symSize: 0x2A0 }
  - { offset: 0x5CB21, size: 0x8, addend: 0x0, symName: __ZN8crashpad23MinidumpExceptionWriter23SetExceptionInformationERKNSt3__16vectorIyNS1_9allocatorIyEEEE, symObjAddr: 0x3C4, symBinAddr: 0x2EA10, symSize: 0x130 }
  - { offset: 0x5CBBE, size: 0x8, addend: 0x0, symName: __ZN8crashpad23MinidumpExceptionWriter10SetContextENSt3__110unique_ptrINS_21MinidumpContextWriterENS1_14default_deleteIS3_EEEE, symObjAddr: 0x4F4, symBinAddr: 0x2EB40, symSize: 0xA0 }
  - { offset: 0x5CC63, size: 0x8, addend: 0x0, symName: __ZN8crashpad23MinidumpExceptionWriter22InitializeFromSnapshotEPKNS_17ExceptionSnapshotERKNSt3__13mapIyjNS4_4lessIyEENS4_9allocatorINS4_4pairIKyjEEEEEEb.cold.1, symObjAddr: 0x10CC, symBinAddr: 0x1B7F74, symSize: 0x2C }
  - { offset: 0x5CF3F, size: 0x8, addend: 0x0, symName: __ZN8crashpad23MinidumpExceptionWriter6FreezeEv, symObjAddr: 0x594, symBinAddr: 0x2EBE0, symSize: 0x108 }
  - { offset: 0x5D002, size: 0x8, addend: 0x0, symName: __ZN8crashpad23MinidumpExceptionWriter12SizeOfObjectEv, symObjAddr: 0x69C, symBinAddr: 0x2ECE8, symSize: 0x7C }
  - { offset: 0x5D0D9, size: 0x8, addend: 0x0, symName: __ZN8crashpad23MinidumpExceptionWriter8ChildrenEv, symObjAddr: 0x718, symBinAddr: 0x2ED64, symSize: 0x164 }
  - { offset: 0x5D437, size: 0x8, addend: 0x0, symName: __ZN8crashpad23MinidumpExceptionWriter22InitializeFromSnapshotEPKNS_17ExceptionSnapshotERKNSt3__13mapIyjNS4_4lessIyEENS4_9allocatorINS4_4pairIKyjEEEEEEb.cold.1, symObjAddr: 0x10CC, symBinAddr: 0x1B7F74, symSize: 0x2C }
  - { offset: 0x5D441, size: 0x8, addend: 0x0, symName: __ZN8crashpad23MinidumpExceptionWriter11WriteObjectEPNS_19FileWriterInterfaceE, symObjAddr: 0x87C, symBinAddr: 0x2EEC8, symSize: 0xA0 }
  - { offset: 0x5D493, size: 0x8, addend: 0x0, symName: __ZNK8crashpad23MinidumpExceptionWriter10StreamTypeEv, symObjAddr: 0x91C, symBinAddr: 0x2EF68, symSize: 0x8 }
  - { offset: 0x5D91C, size: 0x8, addend: 0x0, symName: __ZN8crashpad18MinidumpFileWriterC2Ev, symObjAddr: 0x0, symBinAddr: 0x2EF70, symSize: 0x50 }
  - { offset: 0x5D9C4, size: 0x8, addend: 0x0, symName: __ZN8crashpad18MinidumpFileWriterC1Ev, symObjAddr: 0x50, symBinAddr: 0x2EFC0, symSize: 0x50 }
  - { offset: 0x5DAB1, size: 0x8, addend: 0x0, symName: __ZN8crashpad18MinidumpFileWriterD2Ev, symObjAddr: 0xA0, symBinAddr: 0x2F010, symSize: 0x48 }
  - { offset: 0x5DC5E, size: 0x8, addend: 0x0, symName: __ZN8crashpad18MinidumpFileWriterD1Ev, symObjAddr: 0xE8, symBinAddr: 0x2F058, symSize: 0x4 }
  - { offset: 0x5DC73, size: 0x8, addend: 0x0, symName: __ZN8crashpad18MinidumpFileWriterD1Ev, symObjAddr: 0xE8, symBinAddr: 0x2F058, symSize: 0x4 }
  - { offset: 0x5DC83, size: 0x8, addend: 0x0, symName: __ZN8crashpad18MinidumpFileWriterD0Ev, symObjAddr: 0xEC, symBinAddr: 0x2F05C, symSize: 0x14 }
  - { offset: 0x5E18A, size: 0x8, addend: 0x0, symName: __ZN8crashpad18MinidumpFileWriter22InitializeFromSnapshotEPKNS_15ProcessSnapshotE, symObjAddr: 0x100, symBinAddr: 0x2F070, symSize: 0x1130 }
  - { offset: 0x6130C, size: 0x8, addend: 0x0, symName: __ZN8crashpad18MinidumpFileWriter12SetTimestampEl, symObjAddr: 0x1230, symBinAddr: 0x301A0, symSize: 0x8C }
  - { offset: 0x61353, size: 0x8, addend: 0x0, symName: __ZN8crashpad18MinidumpFileWriter9AddStreamENSt3__110unique_ptrINS_8internal20MinidumpStreamWriterENS1_14default_deleteIS4_EEEE, symObjAddr: 0x12BC, symBinAddr: 0x3022C, symSize: 0x23C }
  - { offset: 0x61728, size: 0x8, addend: 0x0, symName: __ZNSt3__16vectorIN8crashpad14HandleSnapshotENS_9allocatorIS2_EEE16__destroy_vectorclB8ne190102Ev, symObjAddr: 0x2A7C, symBinAddr: 0x3101C, symSize: 0x70 }
  - { offset: 0x617ED, size: 0x8, addend: 0x0, symName: __ZNSt3__16vectorIN8crashpad22UnloadedModuleSnapshotENS_9allocatorIS2_EEE16__destroy_vectorclB8ne190102Ev, symObjAddr: 0x2A0C, symBinAddr: 0x30FAC, symSize: 0x70 }
  - { offset: 0x619AA, size: 0x8, addend: 0x0, symName: __ZNSt3__16__treeIN8crashpad18MinidumpStreamTypeENS_4lessIS2_EENS_9allocatorIS2_EEE25__emplace_unique_key_argsIS2_JRKS2_EEENS_4pairINS_15__tree_iteratorIS2_PNS_11__tree_nodeIS2_PvEElEEbEERKT_DpOT0_, symObjAddr: 0x2AEC, symBinAddr: 0x3108C, symSize: 0xB8 }
  - { offset: 0x61E04, size: 0x8, addend: 0x0, symName: __ZN8crashpad18MinidumpFileWriter22AddUserExtensionStreamENSt3__110unique_ptrINS_37MinidumpUserExtensionStreamDataSourceENS1_14default_deleteIS3_EEEE, symObjAddr: 0x14F8, symBinAddr: 0x30468, symSize: 0x144 }
  - { offset: 0x62122, size: 0x8, addend: 0x0, symName: __ZN8crashpad18MinidumpFileWriter15WriteEverythingEPNS_19FileWriterInterfaceE, symObjAddr: 0x163C, symBinAddr: 0x305AC, symSize: 0x8 }
  - { offset: 0x62141, size: 0x8, addend: 0x0, symName: __ZN8crashpad18MinidumpFileWriter13WriteMinidumpEPNS_19FileWriterInterfaceEb, symObjAddr: 0x1644, symBinAddr: 0x305B4, symSize: 0x18C }
  - { offset: 0x621D7, size: 0x8, addend: 0x0, symName: __ZN8crashpad18MinidumpFileWriter6FreezeEv, symObjAddr: 0x17D0, symBinAddr: 0x30740, symSize: 0x178 }
  - { offset: 0x62318, size: 0x8, addend: 0x0, symName: __ZN8crashpad18MinidumpFileWriter12SizeOfObjectEv, symObjAddr: 0x1948, symBinAddr: 0x308B8, symSize: 0xF0 }
  - { offset: 0x62464, size: 0x8, addend: 0x0, symName: __ZN8crashpad18MinidumpFileWriter8ChildrenEv, symObjAddr: 0x1A38, symBinAddr: 0x309A8, symSize: 0x1EC }
  - { offset: 0x62852, size: 0x8, addend: 0x0, symName: __ZN7logging17MakeCheckOpStringIxiEEPNSt3__112basic_stringIcNS1_11char_traitsIcEENS1_9allocatorIcEEEERKT_RKT0_PKc, symObjAddr: 0x2FEC, symBinAddr: 0x31144, symSize: 0x168 }
  - { offset: 0x6287B, size: 0x8, addend: 0x0, symName: __ZN8crashpad18MinidumpFileWriter21WillWriteAtOffsetImplEx, symObjAddr: 0x1C24, symBinAddr: 0x30B94, symSize: 0x1CC }
  - { offset: 0x629AD, size: 0x8, addend: 0x0, symName: __ZN7logging17MakeCheckOpStringIxiEEPNSt3__112basic_stringIcNS1_11char_traitsIcEENS1_9allocatorIcEEEERKT_RKT0_PKc, symObjAddr: 0x2FEC, symBinAddr: 0x31144, symSize: 0x168 }
  - { offset: 0x62F57, size: 0x8, addend: 0x0, symName: __ZN8crashpad18MinidumpFileWriter11WriteObjectEPNS_19FileWriterInterfaceE, symObjAddr: 0x1DF0, symBinAddr: 0x30D60, symSize: 0x24C }
  - { offset: 0x63B9C, size: 0x8, addend: 0x0, symName: __ZN8crashpad24MinidumpHandleDataWriterC2Ev, symObjAddr: 0x0, symBinAddr: 0x312AC, symSize: 0x38 }
  - { offset: 0x63C74, size: 0x8, addend: 0x0, symName: __ZN8crashpad24MinidumpHandleDataWriterC1Ev, symObjAddr: 0x38, symBinAddr: 0x312E4, symSize: 0x38 }
  - { offset: 0x63DF1, size: 0x8, addend: 0x0, symName: __ZN8crashpad24MinidumpHandleDataWriterD2Ev, symObjAddr: 0x70, symBinAddr: 0x3131C, symSize: 0xA0 }
  - { offset: 0x640F2, size: 0x8, addend: 0x0, symName: __ZN8crashpad24MinidumpHandleDataWriterD1Ev, symObjAddr: 0x120, symBinAddr: 0x313BC, symSize: 0x4 }
  - { offset: 0x64107, size: 0x8, addend: 0x0, symName: __ZN8crashpad24MinidumpHandleDataWriterD1Ev, symObjAddr: 0x120, symBinAddr: 0x313BC, symSize: 0x4 }
  - { offset: 0x64117, size: 0x8, addend: 0x0, symName: __ZN8crashpad24MinidumpHandleDataWriterD0Ev, symObjAddr: 0x124, symBinAddr: 0x313C0, symSize: 0x14 }
  - { offset: 0x64234, size: 0x8, addend: 0x0, symName: __ZN8crashpad24MinidumpHandleDataWriter22InitializeFromSnapshotERKNSt3__16vectorINS_14HandleSnapshotENS1_9allocatorIS3_EEEE, symObjAddr: 0x138, symBinAddr: 0x313D4, symSize: 0x314 }
  - { offset: 0x64AA8, size: 0x8, addend: 0x0, symName: __ZNSt3__16vectorI26MINIDUMP_HANDLE_DESCRIPTORNS_9allocatorIS1_EEE6resizeEm, symObjAddr: 0x44C, symBinAddr: 0x316E8, symSize: 0x30 }
  - { offset: 0x64ABD, size: 0x8, addend: 0x0, symName: __ZNSt3__16vectorI26MINIDUMP_HANDLE_DESCRIPTORNS_9allocatorIS1_EEE6resizeEm, symObjAddr: 0x44C, symBinAddr: 0x316E8, symSize: 0x30 }
  - { offset: 0x64BF0, size: 0x8, addend: 0x0, symName: __ZNSt3__16__treeINS_12__value_typeINS_12basic_stringIcNS_11char_traitsIcEENS_9allocatorIcEEEEPN8crashpad8internal25MinidumpUTF16StringWriterEEENS_19__map_value_compareIS7_SC_NS_4lessIS7_EELb1EEENS5_ISC_EEE30__emplace_hint_unique_key_argsIS7_JNS_4pairIS7_SB_EEEEENSK_INS_15__tree_iteratorISC_PNS_11__tree_nodeISC_PvEElEEbEENS_21__tree_const_iteratorISC_SQ_lEERKT_DpOT0_, symObjAddr: 0x125C, symBinAddr: 0x31DAC, symSize: 0x94 }
  - { offset: 0x64D14, size: 0x8, addend: 0x0, symName: __ZNSt3__16vectorI26MINIDUMP_HANDLE_DESCRIPTORNS_9allocatorIS1_EEE8__appendEm, symObjAddr: 0x10A8, symBinAddr: 0x31C74, symSize: 0x104 }
  - { offset: 0x64F2B, size: 0x8, addend: 0x0, symName: __ZN8crashpad24MinidumpHandleDataWriter6FreezeEv, symObjAddr: 0x47C, symBinAddr: 0x31718, symSize: 0x128 }
  - { offset: 0x64FDE, size: 0x8, addend: 0x0, symName: __ZN8crashpad24MinidumpHandleDataWriter12SizeOfObjectEv, symObjAddr: 0x5A4, symBinAddr: 0x31840, symSize: 0x88 }
  - { offset: 0x650C9, size: 0x8, addend: 0x0, symName: __ZN8crashpad24MinidumpHandleDataWriter8ChildrenEv, symObjAddr: 0x62C, symBinAddr: 0x318C8, symSize: 0x1C0 }
  - { offset: 0x655AD, size: 0x8, addend: 0x0, symName: __ZN8crashpad24MinidumpHandleDataWriter11WriteObjectEPNS_19FileWriterInterfaceE, symObjAddr: 0x7EC, symBinAddr: 0x31A88, symSize: 0x1E4 }
  - { offset: 0x65ADF, size: 0x8, addend: 0x0, symName: __ZNK8crashpad24MinidumpHandleDataWriter10StreamTypeEv, symObjAddr: 0x9D0, symBinAddr: 0x31C6C, symSize: 0x8 }
  - { offset: 0x65EC1, size: 0x8, addend: 0x0, symName: __ZNSt3__16vectorI26MINIDUMP_HANDLE_DESCRIPTORNS_9allocatorIS1_EEE8__appendEm, symObjAddr: 0x10A8, symBinAddr: 0x31C74, symSize: 0x104 }
  - { offset: 0x65F3D, size: 0x8, addend: 0x0, symName: __ZNSt3__119__allocate_at_leastB8ne190102INS_9allocatorI26MINIDUMP_HANDLE_DESCRIPTOREEEENS_19__allocation_resultINS_16allocator_traitsIT_E7pointerEEERS6_m, symObjAddr: 0x11C0, symBinAddr: 0x31D78, symSize: 0x34 }
  - { offset: 0x65F9C, size: 0x8, addend: 0x0, symName: __ZNSt3__119__allocate_at_leastB8ne190102INS_9allocatorI26MINIDUMP_HANDLE_DESCRIPTOREEEENS_19__allocation_resultINS_16allocator_traitsIT_E7pointerEEERS6_m, symObjAddr: 0x11C0, symBinAddr: 0x31D78, symSize: 0x34 }
  - { offset: 0x65FEE, size: 0x8, addend: 0x0, symName: __ZNSt3__16__treeINS_12__value_typeINS_12basic_stringIcNS_11char_traitsIcEENS_9allocatorIcEEEEPN8crashpad8internal25MinidumpUTF16StringWriterEEENS_19__map_value_compareIS7_SC_NS_4lessIS7_EELb1EEENS5_ISC_EEE12__find_equalIS7_EERPNS_16__tree_node_baseIPvEENS_21__tree_const_iteratorISC_PNS_11__tree_nodeISC_SL_EElEERPNS_15__tree_end_nodeISN_EESO_RKT_, symObjAddr: 0x12F0, symBinAddr: 0x31E40, symSize: 0x190 }
  - { offset: 0x663E9, size: 0x8, addend: 0x0, symName: __ZN8crashpad28MinidumpMemoryInfoListWriterC2Ev, symObjAddr: 0x0, symBinAddr: 0x31FD0, symSize: 0x2C }
  - { offset: 0x6642B, size: 0x8, addend: 0x0, symName: __ZN8crashpad28MinidumpMemoryInfoListWriterC1Ev, symObjAddr: 0x2C, symBinAddr: 0x31FFC, symSize: 0x2C }
  - { offset: 0x664B8, size: 0x8, addend: 0x0, symName: __ZN8crashpad28MinidumpMemoryInfoListWriterD2Ev, symObjAddr: 0x58, symBinAddr: 0x32028, symSize: 0x30 }
  - { offset: 0x665A2, size: 0x8, addend: 0x0, symName: __ZN8crashpad28MinidumpMemoryInfoListWriterD1Ev, symObjAddr: 0x88, symBinAddr: 0x32058, symSize: 0x4 }
  - { offset: 0x665B7, size: 0x8, addend: 0x0, symName: __ZN8crashpad28MinidumpMemoryInfoListWriterD1Ev, symObjAddr: 0x88, symBinAddr: 0x32058, symSize: 0x4 }
  - { offset: 0x665C7, size: 0x8, addend: 0x0, symName: __ZN8crashpad28MinidumpMemoryInfoListWriterD0Ev, symObjAddr: 0x8C, symBinAddr: 0x3205C, symSize: 0x14 }
  - { offset: 0x6667E, size: 0x8, addend: 0x0, symName: __ZN8crashpad28MinidumpMemoryInfoListWriter22InitializeFromSnapshotERKNSt3__16vectorIPKNS_23MemoryMapRegionSnapshotENS1_9allocatorIS5_EEEE, symObjAddr: 0xA0, symBinAddr: 0x32070, symSize: 0x218 }
  - { offset: 0x66C4D, size: 0x8, addend: 0x0, symName: __ZNSt3__119__allocate_at_leastB8ne190102INS_9allocatorI20MINIDUMP_MEMORY_INFOEEEENS_19__allocation_resultINS_16allocator_traitsIT_E7pointerEEERS6_m, symObjAddr: 0xC78, symBinAddr: 0x32628, symSize: 0x44 }
  - { offset: 0x66CAC, size: 0x8, addend: 0x0, symName: __ZNSt3__119__allocate_at_leastB8ne190102INS_9allocatorI20MINIDUMP_MEMORY_INFOEEEENS_19__allocation_resultINS_16allocator_traitsIT_E7pointerEEERS6_m, symObjAddr: 0xC78, symBinAddr: 0x32628, symSize: 0x44 }
  - { offset: 0x66CB6, size: 0x8, addend: 0x0, symName: __ZN8crashpad28MinidumpMemoryInfoListWriter6FreezeEv, symObjAddr: 0x2B8, symBinAddr: 0x32288, symSize: 0xA8 }
  - { offset: 0x66D17, size: 0x8, addend: 0x0, symName: __ZN8crashpad28MinidumpMemoryInfoListWriter12SizeOfObjectEv, symObjAddr: 0x360, symBinAddr: 0x32330, symSize: 0x88 }
  - { offset: 0x66D7E, size: 0x8, addend: 0x0, symName: __ZN8crashpad28MinidumpMemoryInfoListWriter8ChildrenEv, symObjAddr: 0x3E8, symBinAddr: 0x323B8, symSize: 0x84 }
  - { offset: 0x66E85, size: 0x8, addend: 0x0, symName: __ZN8crashpad28MinidumpMemoryInfoListWriter11WriteObjectEPNS_19FileWriterInterfaceE, symObjAddr: 0x46C, symBinAddr: 0x3243C, symSize: 0x1E4 }
  - { offset: 0x673B7, size: 0x8, addend: 0x0, symName: __ZNK8crashpad28MinidumpMemoryInfoListWriter10StreamTypeEv, symObjAddr: 0x650, symBinAddr: 0x32620, symSize: 0x8 }
  - { offset: 0x67867, size: 0x8, addend: 0x0, symName: __ZN8crashpad28SnapshotMinidumpMemoryWriterC2EPKNS_14MemorySnapshotE, symObjAddr: 0x0, symBinAddr: 0x3266C, symSize: 0x44 }
  - { offset: 0x678A9, size: 0x8, addend: 0x0, symName: __ZN8crashpad28SnapshotMinidumpMemoryWriterC1EPKNS_14MemorySnapshotE, symObjAddr: 0x44, symBinAddr: 0x326B0, symSize: 0x44 }
  - { offset: 0x67936, size: 0x8, addend: 0x0, symName: __ZN8crashpad28SnapshotMinidumpMemoryWriterD2Ev, symObjAddr: 0x88, symBinAddr: 0x326F4, symSize: 0x44 }
  - { offset: 0x67A20, size: 0x8, addend: 0x0, symName: __ZN8crashpad28SnapshotMinidumpMemoryWriterD1Ev, symObjAddr: 0xCC, symBinAddr: 0x32738, symSize: 0x4 }
  - { offset: 0x67A35, size: 0x8, addend: 0x0, symName: __ZN8crashpad28SnapshotMinidumpMemoryWriterD1Ev, symObjAddr: 0xCC, symBinAddr: 0x32738, symSize: 0x4 }
  - { offset: 0x67A45, size: 0x8, addend: 0x0, symName: __ZThn120_N8crashpad28SnapshotMinidumpMemoryWriterD1Ev, symObjAddr: 0xD0, symBinAddr: 0x3273C, symSize: 0x8 }
  - { offset: 0x67A73, size: 0x8, addend: 0x0, symName: __ZN8crashpad28SnapshotMinidumpMemoryWriterD0Ev, symObjAddr: 0xD8, symBinAddr: 0x32744, symSize: 0x14 }
  - { offset: 0x67AAC, size: 0x8, addend: 0x0, symName: __ZThn120_N8crashpad28SnapshotMinidumpMemoryWriterD0Ev, symObjAddr: 0xEC, symBinAddr: 0x32758, symSize: 0x18 }
  - { offset: 0x67B07, size: 0x8, addend: 0x0, symName: __ZN8crashpad28SnapshotMinidumpMemoryWriter26MemorySnapshotDelegateReadEPvm, symObjAddr: 0x104, symBinAddr: 0x32770, symSize: 0x104 }
  - { offset: 0x6804B, size: 0x8, addend: 0x0, symName: __ZThn120_N8crashpad28SnapshotMinidumpMemoryWriter26MemorySnapshotDelegateReadEPvm, symObjAddr: 0x208, symBinAddr: 0x32874, symSize: 0x8 }
  - { offset: 0x680C6, size: 0x8, addend: 0x0, symName: __ZN8crashpad28SnapshotMinidumpMemoryWriter11WriteObjectEPNS_19FileWriterInterfaceE, symObjAddr: 0x210, symBinAddr: 0x3287C, symSize: 0x1A0 }
  - { offset: 0x68490, size: 0x8, addend: 0x0, symName: __ZNSt3__16vectorIhNS_9allocatorIhEEEC2B8ne190102EmRKh, symObjAddr: 0x22C4, symBinAddr: 0x341BC, symSize: 0x7C }
  - { offset: 0x6860D, size: 0x8, addend: 0x0, symName: __ZNK8crashpad28SnapshotMinidumpMemoryWriter24MinidumpMemoryDescriptorEv, symObjAddr: 0x3B0, symBinAddr: 0x32A1C, symSize: 0x80 }
  - { offset: 0x686B4, size: 0x8, addend: 0x0, symName: __ZN8crashpad28SnapshotMinidumpMemoryWriter24RegisterMemoryDescriptorEP26MINIDUMP_MEMORY_DESCRIPTOR, symObjAddr: 0x430, symBinAddr: 0x32A9C, symSize: 0x148 }
  - { offset: 0x688E2, size: 0x8, addend: 0x0, symName: __ZN8crashpad28SnapshotMinidumpMemoryWriter6FreezeEv, symObjAddr: 0x578, symBinAddr: 0x32BE4, symSize: 0x9C }
  - { offset: 0x6892D, size: 0x8, addend: 0x0, symName: __ZN8crashpad28SnapshotMinidumpMemoryWriter6FreezeEv, symObjAddr: 0x578, symBinAddr: 0x32BE4, symSize: 0x9C }
  - { offset: 0x68987, size: 0x8, addend: 0x0, symName: __ZN8crashpad28SnapshotMinidumpMemoryWriter9AlignmentEv, symObjAddr: 0x614, symBinAddr: 0x32C80, symSize: 0x7C }
  - { offset: 0x689CE, size: 0x8, addend: 0x0, symName: __ZN8crashpad28SnapshotMinidumpMemoryWriter12SizeOfObjectEv, symObjAddr: 0x690, symBinAddr: 0x32CFC, symSize: 0x8C }
  - { offset: 0x68A40, size: 0x8, addend: 0x0, symName: __ZN8crashpad28SnapshotMinidumpMemoryWriter21WillWriteAtOffsetImplEx, symObjAddr: 0x71C, symBinAddr: 0x32D88, symSize: 0x118 }
  - { offset: 0x68D37, size: 0x8, addend: 0x0, symName: __ZN8crashpad28SnapshotMinidumpMemoryWriter10WritePhaseEv, symObjAddr: 0x834, symBinAddr: 0x32EA0, symSize: 0x8 }
  - { offset: 0x68D54, size: 0x8, addend: 0x0, symName: __ZN8crashpad24MinidumpMemoryListWriterC2Ev, symObjAddr: 0x83C, symBinAddr: 0x32EA8, symSize: 0x34 }
  - { offset: 0x68D96, size: 0x8, addend: 0x0, symName: __ZN8crashpad24MinidumpMemoryListWriterC1Ev, symObjAddr: 0x870, symBinAddr: 0x32EDC, symSize: 0x34 }
  - { offset: 0x68E41, size: 0x8, addend: 0x0, symName: __ZN8crashpad24MinidumpMemoryListWriterD2Ev, symObjAddr: 0x8A4, symBinAddr: 0x32F10, symSize: 0x6C }
  - { offset: 0x691E7, size: 0x8, addend: 0x0, symName: __ZN8crashpad24MinidumpMemoryListWriterD1Ev, symObjAddr: 0x910, symBinAddr: 0x32F7C, symSize: 0x4 }
  - { offset: 0x691FC, size: 0x8, addend: 0x0, symName: __ZN8crashpad24MinidumpMemoryListWriterD1Ev, symObjAddr: 0x910, symBinAddr: 0x32F7C, symSize: 0x4 }
  - { offset: 0x6920C, size: 0x8, addend: 0x0, symName: __ZN8crashpad24MinidumpMemoryListWriterD0Ev, symObjAddr: 0x914, symBinAddr: 0x32F80, symSize: 0x14 }
  - { offset: 0x69287, size: 0x8, addend: 0x0, symName: __ZN8crashpad24MinidumpMemoryListWriter15AddFromSnapshotERKNSt3__16vectorIPKNS_14MemorySnapshotENS1_9allocatorIS5_EEEE, symObjAddr: 0x928, symBinAddr: 0x32F94, symSize: 0x138 }
  - { offset: 0x69481, size: 0x8, addend: 0x0, symName: __ZN8crashpad24MinidumpMemoryListWriter9AddMemoryENSt3__110unique_ptrINS_28SnapshotMinidumpMemoryWriterENS1_14default_deleteIS3_EEEE, symObjAddr: 0xA60, symBinAddr: 0x330CC, symSize: 0x154 }
  - { offset: 0x69780, size: 0x8, addend: 0x0, symName: __ZN8crashpad24MinidumpMemoryListWriter17AddNonOwnedMemoryEPNS_28SnapshotMinidumpMemoryWriterE, symObjAddr: 0xBB4, symBinAddr: 0x33220, symSize: 0x134 }
  - { offset: 0x69928, size: 0x8, addend: 0x0, symName: __ZN8crashpad24MinidumpMemoryListWriter17AddNonOwnedMemoryEPNS_28SnapshotMinidumpMemoryWriterE, symObjAddr: 0xBB4, symBinAddr: 0x33220, symSize: 0x134 }
  - { offset: 0x69B56, size: 0x8, addend: 0x0, symName: __ZN8crashpad24MinidumpMemoryListWriter19CoalesceOwnedMemoryEv, symObjAddr: 0xCE8, symBinAddr: 0x33354, symSize: 0x3EC }
  - { offset: 0x69B84, size: 0x8, addend: 0x0, symName: '__ZNSt3__111__introsortINS_17_ClassicAlgPolicyERZN8crashpad24MinidumpMemoryListWriter19CoalesceOwnedMemoryEvE3$_0PNS_10unique_ptrINS2_28SnapshotMinidumpMemoryWriterENS_14default_deleteIS7_EEEELb0EEEvT1_SC_T0_NS_15iterator_traitsISC_E15difference_typeEb', symObjAddr: 0x272C, symBinAddr: 0x34238, symSize: 0x1190 }
  - { offset: 0x69CAF, size: 0x8, addend: 0x0, symName: __ZN8crashpad24MinidumpMemoryListWriter19CoalesceOwnedMemoryEv, symObjAddr: 0xCE8, symBinAddr: 0x33354, symSize: 0x3EC }
  - { offset: 0x6A824, size: 0x8, addend: 0x0, symName: __ZN8crashpad24MinidumpMemoryListWriter29DropRangesThatOverlapNonOwnedEv, symObjAddr: 0x10D4, symBinAddr: 0x33740, symSize: 0x1D0 }
  - { offset: 0x6ACFC, size: 0x8, addend: 0x0, symName: '__ZNSt3__111__introsortINS_17_ClassicAlgPolicyERZN8crashpad24MinidumpMemoryListWriter19CoalesceOwnedMemoryEvE3$_0PNS_10unique_ptrINS2_28SnapshotMinidumpMemoryWriterENS_14default_deleteIS7_EEEELb0EEEvT1_SC_T0_NS_15iterator_traitsISC_E15difference_typeEb', symObjAddr: 0x272C, symBinAddr: 0x34238, symSize: 0x1190 }
  - { offset: 0x6C3D3, size: 0x8, addend: 0x0, symName: __ZNSt3__16vectorINS_10unique_ptrIN8crashpad28SnapshotMinidumpMemoryWriterENS_14default_deleteIS3_EEEENS_9allocatorIS6_EEE5eraseENS_11__wrap_iterIPKS6_EESD_, symObjAddr: 0x12A4, symBinAddr: 0x33910, symSize: 0xAC }
  - { offset: 0x6C651, size: 0x8, addend: 0x0, symName: __ZNSt3__16vectorINS_10unique_ptrIN8crashpad28SnapshotMinidumpMemoryWriterENS_14default_deleteIS3_EEEENS_9allocatorIS6_EEE7reserveEm, symObjAddr: 0x1AB4, symBinAddr: 0x34120, symSize: 0x9C }
  - { offset: 0x6C81A, size: 0x8, addend: 0x0, symName: __ZN8crashpad24MinidumpMemoryListWriter6FreezeEv, symObjAddr: 0x1350, symBinAddr: 0x339BC, symSize: 0x28C }
  - { offset: 0x6CBFA, size: 0x8, addend: 0x0, symName: __ZNSt3__120back_insert_iteratorINS_6vectorIPN8crashpad28SnapshotMinidumpMemoryWriterENS_9allocatorIS4_EEEEEaSB8ne190102ERKS4_, symObjAddr: 0x42D4, symBinAddr: 0x35D38, symSize: 0xE8 }
  - { offset: 0x6CDFD, size: 0x8, addend: 0x0, symName: __ZN8crashpad24MinidumpMemoryListWriter12SizeOfObjectEv, symObjAddr: 0x15DC, symBinAddr: 0x33C48, symSize: 0xF0 }
  - { offset: 0x6CF32, size: 0x8, addend: 0x0, symName: __ZN8crashpad24MinidumpMemoryListWriter8ChildrenEv, symObjAddr: 0x16CC, symBinAddr: 0x33D38, symSize: 0x1F4 }
  - { offset: 0x6D3C7, size: 0x8, addend: 0x0, symName: __ZN8crashpad24MinidumpMemoryListWriter11WriteObjectEPNS_19FileWriterInterfaceE, symObjAddr: 0x18C0, symBinAddr: 0x33F2C, symSize: 0x1EC }
  - { offset: 0x6D90E, size: 0x8, addend: 0x0, symName: __ZNK8crashpad24MinidumpMemoryListWriter10StreamTypeEv, symObjAddr: 0x1AAC, symBinAddr: 0x34118, symSize: 0x8 }
  - { offset: 0x6DD0A, size: 0x8, addend: 0x0, symName: __ZNSt3__16vectorIhNS_9allocatorIhEEEC2B8ne190102EmRKh, symObjAddr: 0x22C4, symBinAddr: 0x341BC, symSize: 0x7C }
  - { offset: 0x6DEA5, size: 0x8, addend: 0x0, symName: '__ZNSt3__17__sort3B8ne190102INS_17_ClassicAlgPolicyERZN8crashpad24MinidumpMemoryListWriter19CoalesceOwnedMemoryEvE3$_0PNS_10unique_ptrINS2_28SnapshotMinidumpMemoryWriterENS_14default_deleteIS7_EEEEEEjT1_SC_SC_T0_', symObjAddr: 0x3B04, symBinAddr: 0x35610, symSize: 0x254 }
  - { offset: 0x6E3AF, size: 0x8, addend: 0x0, symName: '__ZNSt3__127__insertion_sort_incompleteB8ne190102INS_17_ClassicAlgPolicyERZN8crashpad24MinidumpMemoryListWriter19CoalesceOwnedMemoryEvE3$_0PNS_10unique_ptrINS2_28SnapshotMinidumpMemoryWriterENS_14default_deleteIS7_EEEEEEbT1_SC_T0_', symObjAddr: 0x3D58, symBinAddr: 0x35864, symSize: 0x310 }
  - { offset: 0x6E789, size: 0x8, addend: 0x0, symName: '__ZNSt3__17__sort4B8ne190102INS_17_ClassicAlgPolicyERZN8crashpad24MinidumpMemoryListWriter19CoalesceOwnedMemoryEvE3$_0PNS_10unique_ptrINS2_28SnapshotMinidumpMemoryWriterENS_14default_deleteIS7_EEEEEEvT1_SC_SC_SC_T0_', symObjAddr: 0x4068, symBinAddr: 0x35B74, symSize: 0x1C4 }
  - { offset: 0x6EAD8, size: 0x8, addend: 0x0, symName: '__ZNSt3__124__sort5_maybe_branchlessB8ne190102INS_17_ClassicAlgPolicyERZN8crashpad24MinidumpMemoryListWriter19CoalesceOwnedMemoryEvE3$_0PNS_10unique_ptrINS2_28SnapshotMinidumpMemoryWriterENS_14default_deleteIS7_EEEELi0EEEvT1_SC_SC_SC_SC_T0_', symObjAddr: 0x38BC, symBinAddr: 0x353C8, symSize: 0x248 }
  - { offset: 0x6EFFF, size: 0x8, addend: 0x0, symName: __ZN8crashpad8internal32MinidumpMiscInfoDebugBuildStringEv, symObjAddr: 0x0, symBinAddr: 0x35E20, symSize: 0x4C }
  - { offset: 0x6F025, size: 0x8, addend: 0x0, symName: __ZN8crashpad22MinidumpMiscInfoWriterC2Ev, symObjAddr: 0x4C, symBinAddr: 0x35E6C, symSize: 0x38 }
  - { offset: 0x6F03C, size: 0x8, addend: 0x0, symName: __ZN8crashpad22MinidumpMiscInfoWriterC1Ev, symObjAddr: 0x84, symBinAddr: 0x35EA4, symSize: 0x38 }
  - { offset: 0x6F062, size: 0x8, addend: 0x0, symName: __ZN8crashpad22MinidumpMiscInfoWriterD2Ev, symObjAddr: 0xBC, symBinAddr: 0x35EDC, symSize: 0x4 }
  - { offset: 0x6F079, size: 0x8, addend: 0x0, symName: __ZN8crashpad22MinidumpMiscInfoWriterD1Ev, symObjAddr: 0xC0, symBinAddr: 0x35EE0, symSize: 0x4 }
  - { offset: 0x6F08E, size: 0x8, addend: 0x0, symName: __ZN8crashpad22MinidumpMiscInfoWriterD1Ev, symObjAddr: 0xC0, symBinAddr: 0x35EE0, symSize: 0x4 }
  - { offset: 0x6F0A5, size: 0x8, addend: 0x0, symName: __ZN8crashpad22MinidumpMiscInfoWriterD0Ev, symObjAddr: 0xC4, symBinAddr: 0x35EE4, symSize: 0x14 }
  - { offset: 0x6F1D6, size: 0x8, addend: 0x0, symName: __ZN8crashpad22MinidumpMiscInfoWriter22InitializeFromSnapshotEPKNS_15ProcessSnapshotE, symObjAddr: 0xD8, symBinAddr: 0x35EF8, symSize: 0x5B8 }
  - { offset: 0x7059B, size: 0x8, addend: 0x0, symName: __ZN8crashpad11InRangeCastIjiEET_T0_S1_, symObjAddr: 0x71C, symBinAddr: 0x3653C, symSize: 0xAC }
  - { offset: 0x705FB, size: 0x8, addend: 0x0, symName: __ZN8crashpad22MinidumpMiscInfoWriter12SetProcessIDEj, symObjAddr: 0x690, symBinAddr: 0x364B0, symSize: 0x8C }
  - { offset: 0x70644, size: 0x8, addend: 0x0, symName: __ZN8crashpad11InRangeCastIjyEET_T0_S1_, symObjAddr: 0x880, symBinAddr: 0x366A0, symSize: 0xB0 }
  - { offset: 0x706A4, size: 0x8, addend: 0x0, symName: __ZN8crashpad22MinidumpMiscInfoWriter21SetProcessorPowerInfoEjjjjj, symObjAddr: 0x7C8, symBinAddr: 0x365E8, symSize: 0xB8 }
  - { offset: 0x706ED, size: 0x8, addend: 0x0, symName: __ZN8crashpad11InRangeCastIjlEET_T0_S1_, symObjAddr: 0x1100, symBinAddr: 0x36F20, symSize: 0xB0 }
  - { offset: 0x7074D, size: 0x8, addend: 0x0, symName: __ZN8crashpad22MinidumpMiscInfoWriter15SetProcessTimesEljj, symObjAddr: 0x930, symBinAddr: 0x36750, symSize: 0xAC }
  - { offset: 0x70796, size: 0x8, addend: 0x0, symName: __ZN8crashpad22MinidumpMiscInfoWriter11SetTimeZoneEjiRKNSt3__112basic_stringIcNS1_11char_traitsIcEENS1_9allocatorIcEEEERK10SYSTEMTIMEiS9_SC_i, symObjAddr: 0x9DC, symBinAddr: 0x367FC, symSize: 0x100 }
  - { offset: 0x707DF, size: 0x8, addend: 0x0, symName: __ZN8crashpad22MinidumpMiscInfoWriter14SetBuildStringERKNSt3__112basic_stringIcNS1_11char_traitsIcEENS1_9allocatorIcEEEES9_, symObjAddr: 0xADC, symBinAddr: 0x368FC, symSize: 0xB0 }
  - { offset: 0x70828, size: 0x8, addend: 0x0, symName: __ZN8crashpad22MinidumpMiscInfoWriter13SetXStateDataERK30XSTATE_CONFIG_FEATURE_MSC_INFO, symObjAddr: 0xB8C, symBinAddr: 0x369AC, symSize: 0x98 }
  - { offset: 0x7091D, size: 0x8, addend: 0x0, symName: __ZN8crashpad22MinidumpMiscInfoWriter24SetProcessIntegrityLevelEj, symObjAddr: 0xC24, symBinAddr: 0x36A44, symSize: 0x90 }
  - { offset: 0x70966, size: 0x8, addend: 0x0, symName: __ZN8crashpad22MinidumpMiscInfoWriter22SetProcessExecuteFlagsEj, symObjAddr: 0xCB4, symBinAddr: 0x36AD4, symSize: 0x90 }
  - { offset: 0x709AF, size: 0x8, addend: 0x0, symName: __ZN8crashpad22MinidumpMiscInfoWriter19SetProtectedProcessEj, symObjAddr: 0xD44, symBinAddr: 0x36B64, symSize: 0x90 }
  - { offset: 0x709F8, size: 0x8, addend: 0x0, symName: __ZNK8crashpad22MinidumpMiscInfoWriter13HasXStateDataEv, symObjAddr: 0xDD4, symBinAddr: 0x36BF4, symSize: 0x8 }
  - { offset: 0x70A09, size: 0x8, addend: 0x0, symName: __ZN8crashpad22MinidumpMiscInfoWriter16SetProcessCookieEj, symObjAddr: 0xDDC, symBinAddr: 0x36BFC, symSize: 0x90 }
  - { offset: 0x70A58, size: 0x8, addend: 0x0, symName: __ZN8crashpad22MinidumpMiscInfoWriter6FreezeEv, symObjAddr: 0xE6C, symBinAddr: 0x36C8C, symSize: 0x9C }
  - { offset: 0x70AC3, size: 0x8, addend: 0x0, symName: __ZNK8crashpad22MinidumpMiscInfoWriter30CalculateSizeOfObjectFromFlagsEv, symObjAddr: 0xF08, symBinAddr: 0x36D28, symSize: 0xC4 }
  - { offset: 0x70B12, size: 0x8, addend: 0x0, symName: __ZN8crashpad22MinidumpMiscInfoWriter12SizeOfObjectEv, symObjAddr: 0xFCC, symBinAddr: 0x36DEC, symSize: 0x84 }
  - { offset: 0x70B68, size: 0x8, addend: 0x0, symName: __ZN8crashpad22MinidumpMiscInfoWriter11WriteObjectEPNS_19FileWriterInterfaceE, symObjAddr: 0x1050, symBinAddr: 0x36E70, symSize: 0xA8 }
  - { offset: 0x70BC9, size: 0x8, addend: 0x0, symName: __ZNK8crashpad22MinidumpMiscInfoWriter10StreamTypeEv, symObjAddr: 0x10F8, symBinAddr: 0x36F18, symSize: 0x8 }
  - { offset: 0x70FD5, size: 0x8, addend: 0x0, symName: __ZN8crashpad32MinidumpModuleCrashpadInfoWriterC2Ev, symObjAddr: 0x0, symBinAddr: 0x36FD0, symSize: 0x38 }
  - { offset: 0x71055, size: 0x8, addend: 0x0, symName: __ZN8crashpad32MinidumpModuleCrashpadInfoWriterC1Ev, symObjAddr: 0x38, symBinAddr: 0x37008, symSize: 0x38 }
  - { offset: 0x71108, size: 0x8, addend: 0x0, symName: __ZN8crashpad32MinidumpModuleCrashpadInfoWriterD2Ev, symObjAddr: 0x70, symBinAddr: 0x37040, symSize: 0x44 }
  - { offset: 0x711BF, size: 0x8, addend: 0x0, symName: __ZNSt3__110unique_ptrIN8crashpad28MinidumpAnnotationListWriterENS_14default_deleteIS2_EEE5resetB8ne190102EPS2_, symObjAddr: 0x18F0, symBinAddr: 0x38888, symSize: 0x28 }
  - { offset: 0x711F5, size: 0x8, addend: 0x0, symName: __ZNSt3__110unique_ptrIN8crashpad8internal24MinidumpStringListWriterINS2_24MinidumpUTF8StringWriterEEENS_14default_deleteIS5_EEE5resetB8ne190102EPS5_, symObjAddr: 0x18A0, symBinAddr: 0x38860, symSize: 0x28 }
  - { offset: 0x7121C, size: 0x8, addend: 0x0, symName: __ZN8crashpad32MinidumpModuleCrashpadInfoWriterD1Ev, symObjAddr: 0xB4, symBinAddr: 0x37084, symSize: 0x4 }
  - { offset: 0x71231, size: 0x8, addend: 0x0, symName: __ZN8crashpad32MinidumpModuleCrashpadInfoWriterD1Ev, symObjAddr: 0xB4, symBinAddr: 0x37084, symSize: 0x4 }
  - { offset: 0x71241, size: 0x8, addend: 0x0, symName: __ZN8crashpad32MinidumpModuleCrashpadInfoWriterD0Ev, symObjAddr: 0xB8, symBinAddr: 0x37088, symSize: 0x14 }
  - { offset: 0x71376, size: 0x8, addend: 0x0, symName: __ZN8crashpad32MinidumpModuleCrashpadInfoWriter22InitializeFromSnapshotEPKNS_14ModuleSnapshotE, symObjAddr: 0xCC, symBinAddr: 0x3709C, symSize: 0x3C4 }
  - { offset: 0x71FF1, size: 0x8, addend: 0x0, symName: __ZN8crashpad32MinidumpModuleCrashpadInfoWriter18SetListAnnotationsENSt3__110unique_ptrINS_8internal24MinidumpStringListWriterINS3_24MinidumpUTF8StringWriterEEENS1_14default_deleteIS6_EEEE, symObjAddr: 0x490, symBinAddr: 0x37460, symSize: 0x90 }
  - { offset: 0x720CC, size: 0x8, addend: 0x0, symName: __ZN8crashpad32MinidumpModuleCrashpadInfoWriter20SetSimpleAnnotationsENSt3__110unique_ptrINS_36MinidumpSimpleStringDictionaryWriterENS1_14default_deleteIS3_EEEE, symObjAddr: 0x520, symBinAddr: 0x374F0, symSize: 0x90 }
  - { offset: 0x7219E, size: 0x8, addend: 0x0, symName: __ZN8crashpad32MinidumpModuleCrashpadInfoWriter20SetAnnotationObjectsENSt3__110unique_ptrINS_28MinidumpAnnotationListWriterENS1_14default_deleteIS3_EEEE, symObjAddr: 0x5B0, symBinAddr: 0x37580, symSize: 0x90 }
  - { offset: 0x7223D, size: 0x8, addend: 0x0, symName: __ZNK8crashpad32MinidumpModuleCrashpadInfoWriter8IsUsefulEv, symObjAddr: 0x640, symBinAddr: 0x37610, symSize: 0x28 }
  - { offset: 0x72252, size: 0x8, addend: 0x0, symName: __ZNK8crashpad32MinidumpModuleCrashpadInfoWriter8IsUsefulEv, symObjAddr: 0x640, symBinAddr: 0x37610, symSize: 0x28 }
  - { offset: 0x7228B, size: 0x8, addend: 0x0, symName: __ZN8crashpad32MinidumpModuleCrashpadInfoWriter6FreezeEv, symObjAddr: 0x668, symBinAddr: 0x37638, symSize: 0xC0 }
  - { offset: 0x72314, size: 0x8, addend: 0x0, symName: __ZN8crashpad32MinidumpModuleCrashpadInfoWriter12SizeOfObjectEv, symObjAddr: 0x728, symBinAddr: 0x376F8, symSize: 0x7C }
  - { offset: 0x72403, size: 0x8, addend: 0x0, symName: __ZN8crashpad32MinidumpModuleCrashpadInfoWriter8ChildrenEv, symObjAddr: 0x7A4, symBinAddr: 0x37774, symSize: 0x270 }
  - { offset: 0x72B5D, size: 0x8, addend: 0x0, symName: __ZNSt3__16vectorINS_10unique_ptrIN8crashpad32MinidumpModuleCrashpadInfoWriterENS_14default_deleteIS3_EEEENS_9allocatorIS6_EEE16__destroy_vectorclB8ne190102Ev, symObjAddr: 0x20E4, symBinAddr: 0x388B0, symSize: 0x74 }
  - { offset: 0x72B7A, size: 0x8, addend: 0x0, symName: __ZN8crashpad32MinidumpModuleCrashpadInfoWriter11WriteObjectEPNS_19FileWriterInterfaceE, symObjAddr: 0xA14, symBinAddr: 0x379E4, symSize: 0xA0 }
  - { offset: 0x72BD8, size: 0x8, addend: 0x0, symName: __ZN8crashpad36MinidumpModuleCrashpadInfoListWriterC2Ev, symObjAddr: 0xAB4, symBinAddr: 0x37A84, symSize: 0x34 }
  - { offset: 0x72C1A, size: 0x8, addend: 0x0, symName: __ZN8crashpad36MinidumpModuleCrashpadInfoListWriterC1Ev, symObjAddr: 0xAE8, symBinAddr: 0x37AB8, symSize: 0x34 }
  - { offset: 0x72CAD, size: 0x8, addend: 0x0, symName: __ZN8crashpad36MinidumpModuleCrashpadInfoListWriterD2Ev, symObjAddr: 0xB1C, symBinAddr: 0x37AEC, symSize: 0x4C }
  - { offset: 0x72DFA, size: 0x8, addend: 0x0, symName: __ZNSt3__16vectorINS_10unique_ptrIN8crashpad32MinidumpModuleCrashpadInfoWriterENS_14default_deleteIS3_EEEENS_9allocatorIS6_EEE16__destroy_vectorclB8ne190102Ev, symObjAddr: 0x20E4, symBinAddr: 0x388B0, symSize: 0x74 }
  - { offset: 0x72EF7, size: 0x8, addend: 0x0, symName: __ZN8crashpad36MinidumpModuleCrashpadInfoListWriterD1Ev, symObjAddr: 0xB68, symBinAddr: 0x37B38, symSize: 0x4 }
  - { offset: 0x72F0C, size: 0x8, addend: 0x0, symName: __ZN8crashpad36MinidumpModuleCrashpadInfoListWriterD1Ev, symObjAddr: 0xB68, symBinAddr: 0x37B38, symSize: 0x4 }
  - { offset: 0x72F1C, size: 0x8, addend: 0x0, symName: __ZN8crashpad36MinidumpModuleCrashpadInfoListWriterD0Ev, symObjAddr: 0xB6C, symBinAddr: 0x37B3C, symSize: 0x14 }
  - { offset: 0x72FAF, size: 0x8, addend: 0x0, symName: __ZN8crashpad36MinidumpModuleCrashpadInfoListWriter22InitializeFromSnapshotERKNSt3__16vectorIPKNS_14ModuleSnapshotENS1_9allocatorIS5_EEEE, symObjAddr: 0xB80, symBinAddr: 0x37B50, symSize: 0x24C }
  - { offset: 0x73394, size: 0x8, addend: 0x0, symName: __ZN8crashpad36MinidumpModuleCrashpadInfoListWriter9AddModuleENSt3__110unique_ptrINS_32MinidumpModuleCrashpadInfoWriterENS1_14default_deleteIS3_EEEEm, symObjAddr: 0xDCC, symBinAddr: 0x37D9C, symSize: 0x324 }
  - { offset: 0x73CAD, size: 0x8, addend: 0x0, symName: __ZNSt3__114__split_bufferINS_10unique_ptrIN8crashpad32MinidumpModuleCrashpadInfoWriterENS_14default_deleteIS3_EEEERNS_9allocatorIS6_EEED2Ev, symObjAddr: 0x2388, symBinAddr: 0x3894C, symSize: 0x50 }
  - { offset: 0x73CB7, size: 0x8, addend: 0x0, symName: __ZNSt3__114__split_bufferINS_10unique_ptrIN8crashpad32MinidumpModuleCrashpadInfoWriterENS_14default_deleteIS3_EEEERNS_9allocatorIS6_EEED2Ev, symObjAddr: 0x2388, symBinAddr: 0x3894C, symSize: 0x50 }
  - { offset: 0x73DFE, size: 0x8, addend: 0x0, symName: __ZNK8crashpad36MinidumpModuleCrashpadInfoListWriter8IsUsefulEv, symObjAddr: 0x10F0, symBinAddr: 0x380C0, symSize: 0xA4 }
  - { offset: 0x73E7F, size: 0x8, addend: 0x0, symName: __ZN8crashpad36MinidumpModuleCrashpadInfoListWriter6FreezeEv, symObjAddr: 0x1194, symBinAddr: 0x38164, symSize: 0x1D0 }
  - { offset: 0x73FB1, size: 0x8, addend: 0x0, symName: __ZN8crashpad36MinidumpModuleCrashpadInfoListWriter12SizeOfObjectEv, symObjAddr: 0x1364, symBinAddr: 0x38334, symSize: 0xF8 }
  - { offset: 0x74067, size: 0x8, addend: 0x0, symName: __ZN8crashpad36MinidumpModuleCrashpadInfoListWriter8ChildrenEv, symObjAddr: 0x145C, symBinAddr: 0x3842C, symSize: 0x200 }
  - { offset: 0x744B6, size: 0x8, addend: 0x0, symName: __ZN8crashpad36MinidumpModuleCrashpadInfoListWriter11WriteObjectEPNS_19FileWriterInterfaceE, symObjAddr: 0x165C, symBinAddr: 0x3862C, symSize: 0x234 }
  - { offset: 0x74FFD, size: 0x8, addend: 0x0, symName: __ZNSt3__110unique_ptrIN8crashpad32MinidumpModuleCrashpadInfoWriterENS_14default_deleteIS2_EEE5resetB8ne190102EPS2_, symObjAddr: 0x2158, symBinAddr: 0x38924, symSize: 0x28 }
  - { offset: 0x75100, size: 0x8, addend: 0x0, symName: __ZN8crashpad8internal41MinidumpModuleCodeViewRecordPDBLinkWriterINS_19CodeViewRecordPDB20EE10SetPDBNameERKNSt3__112basic_stringIcNS4_11char_traitsIcEENS4_9allocatorIcEEEE, symObjAddr: 0x0, symBinAddr: 0x3899C, symSize: 0x8 }
  - { offset: 0x75135, size: 0x8, addend: 0x0, symName: __ZN8crashpad8internal41MinidumpModuleCodeViewRecordPDBLinkWriterINS_19CodeViewRecordPDB20EEC2Ev, symObjAddr: 0x8, symBinAddr: 0x389A4, symSize: 0x40 }
  - { offset: 0x751CB, size: 0x8, addend: 0x0, symName: __ZN8crashpad8internal41MinidumpModuleCodeViewRecordPDBLinkWriterINS_19CodeViewRecordPDB20EEC1Ev, symObjAddr: 0x48, symBinAddr: 0x389E4, symSize: 0x40 }
  - { offset: 0x752AC, size: 0x8, addend: 0x0, symName: __ZN8crashpad8internal41MinidumpModuleCodeViewRecordPDBLinkWriterINS_19CodeViewRecordPDB20EED2Ev, symObjAddr: 0x88, symBinAddr: 0x38A24, symSize: 0x40 }
  - { offset: 0x75393, size: 0x8, addend: 0x0, symName: __ZN8crashpad34MinidumpModuleCodeViewRecordWriterD2Ev, symObjAddr: 0xC8, symBinAddr: 0x38A64, symSize: 0x4 }
  - { offset: 0x753A4, size: 0x8, addend: 0x0, symName: __ZN8crashpad8internal41MinidumpModuleCodeViewRecordPDBLinkWriterINS_19CodeViewRecordPDB20EED1Ev, symObjAddr: 0xCC, symBinAddr: 0x38A68, symSize: 0x4 }
  - { offset: 0x753B9, size: 0x8, addend: 0x0, symName: __ZN8crashpad8internal41MinidumpModuleCodeViewRecordPDBLinkWriterINS_19CodeViewRecordPDB20EED1Ev, symObjAddr: 0xCC, symBinAddr: 0x38A68, symSize: 0x4 }
  - { offset: 0x753C9, size: 0x8, addend: 0x0, symName: __ZN8crashpad8internal41MinidumpModuleCodeViewRecordPDBLinkWriterINS_19CodeViewRecordPDB20EED0Ev, symObjAddr: 0xD0, symBinAddr: 0x38A6C, symSize: 0x14 }
  - { offset: 0x75414, size: 0x8, addend: 0x0, symName: __ZN8crashpad8internal41MinidumpModuleCodeViewRecordPDBLinkWriterINS_19CodeViewRecordPDB20EE12SizeOfObjectEv, symObjAddr: 0xE4, symBinAddr: 0x38A80, symSize: 0x8C }
  - { offset: 0x7579E, size: 0x8, addend: 0x0, symName: __ZN8crashpad8internal41MinidumpModuleCodeViewRecordPDBLinkWriterINS_19CodeViewRecordPDB20EE11WriteObjectEPNS_19FileWriterInterfaceE, symObjAddr: 0x170, symBinAddr: 0x38B0C, symSize: 0x1C8 }
  - { offset: 0x75CED, size: 0x8, addend: 0x0, symName: __ZN8crashpad8internal41MinidumpModuleCodeViewRecordPDBLinkWriterINS_19CodeViewRecordPDB20EE15codeview_recordEv, symObjAddr: 0x338, symBinAddr: 0x38CD4, symSize: 0x8 }
  - { offset: 0x75CFE, size: 0x8, addend: 0x0, symName: __ZN8crashpad8internal41MinidumpModuleCodeViewRecordPDBLinkWriterINS_19CodeViewRecordPDB70EE10SetPDBNameERKNSt3__112basic_stringIcNS4_11char_traitsIcEENS4_9allocatorIcEEEE, symObjAddr: 0x340, symBinAddr: 0x38CDC, symSize: 0x8 }
  - { offset: 0x75D1B, size: 0x8, addend: 0x0, symName: __ZN8crashpad8internal41MinidumpModuleCodeViewRecordPDBLinkWriterINS_19CodeViewRecordPDB70EEC2Ev, symObjAddr: 0x348, symBinAddr: 0x38CE4, symSize: 0x40 }
  - { offset: 0x75DDA, size: 0x8, addend: 0x0, symName: __ZN8crashpad8internal41MinidumpModuleCodeViewRecordPDBLinkWriterINS_19CodeViewRecordPDB70EEC1Ev, symObjAddr: 0x388, symBinAddr: 0x38D24, symSize: 0x40 }
  - { offset: 0x75EA8, size: 0x8, addend: 0x0, symName: __ZN8crashpad8internal41MinidumpModuleCodeViewRecordPDBLinkWriterINS_19CodeViewRecordPDB70EED2Ev, symObjAddr: 0x3C8, symBinAddr: 0x38D64, symSize: 0x40 }
  - { offset: 0x75F8F, size: 0x8, addend: 0x0, symName: __ZN8crashpad8internal41MinidumpModuleCodeViewRecordPDBLinkWriterINS_19CodeViewRecordPDB70EED1Ev, symObjAddr: 0x408, symBinAddr: 0x38DA4, symSize: 0x4 }
  - { offset: 0x75FA4, size: 0x8, addend: 0x0, symName: __ZN8crashpad8internal41MinidumpModuleCodeViewRecordPDBLinkWriterINS_19CodeViewRecordPDB70EED1Ev, symObjAddr: 0x408, symBinAddr: 0x38DA4, symSize: 0x4 }
  - { offset: 0x75FB4, size: 0x8, addend: 0x0, symName: __ZN8crashpad8internal41MinidumpModuleCodeViewRecordPDBLinkWriterINS_19CodeViewRecordPDB70EED0Ev, symObjAddr: 0x40C, symBinAddr: 0x38DA8, symSize: 0x14 }
  - { offset: 0x75FE7, size: 0x8, addend: 0x0, symName: __ZN8crashpad8internal41MinidumpModuleCodeViewRecordPDBLinkWriterINS_19CodeViewRecordPDB70EE12SizeOfObjectEv, symObjAddr: 0x420, symBinAddr: 0x38DBC, symSize: 0x8C }
  - { offset: 0x7606D, size: 0x8, addend: 0x0, symName: __ZN8crashpad8internal41MinidumpModuleCodeViewRecordPDBLinkWriterINS_19CodeViewRecordPDB70EE11WriteObjectEPNS_19FileWriterInterfaceE, symObjAddr: 0x4AC, symBinAddr: 0x38E48, symSize: 0x1C8 }
  - { offset: 0x764C6, size: 0x8, addend: 0x0, symName: __ZN8crashpad8internal41MinidumpModuleCodeViewRecordPDBLinkWriterINS_19CodeViewRecordPDB70EE15codeview_recordEv, symObjAddr: 0x674, symBinAddr: 0x39010, symSize: 0x8 }
  - { offset: 0x764D7, size: 0x8, addend: 0x0, symName: __ZN8crashpad34MinidumpModuleCodeViewRecordWriterD1Ev, symObjAddr: 0x67C, symBinAddr: 0x39018, symSize: 0x4 }
  - { offset: 0x764E8, size: 0x8, addend: 0x0, symName: __ZN8crashpad34MinidumpModuleCodeViewRecordWriterD0Ev, symObjAddr: 0x680, symBinAddr: 0x3901C, symSize: 0x4 }
  - { offset: 0x764F9, size: 0x8, addend: 0x0, symName: __ZN8crashpad39MinidumpModuleCodeViewRecordPDB20WriterD2Ev, symObjAddr: 0x684, symBinAddr: 0x39020, symSize: 0x4 }
  - { offset: 0x7650E, size: 0x8, addend: 0x0, symName: __ZN8crashpad39MinidumpModuleCodeViewRecordPDB20WriterD2Ev, symObjAddr: 0x684, symBinAddr: 0x39020, symSize: 0x4 }
  - { offset: 0x7651E, size: 0x8, addend: 0x0, symName: __ZN8crashpad39MinidumpModuleCodeViewRecordPDB20WriterD1Ev, symObjAddr: 0x688, symBinAddr: 0x39024, symSize: 0x4 }
  - { offset: 0x76533, size: 0x8, addend: 0x0, symName: __ZN8crashpad39MinidumpModuleCodeViewRecordPDB20WriterD1Ev, symObjAddr: 0x688, symBinAddr: 0x39024, symSize: 0x4 }
  - { offset: 0x76547, size: 0x8, addend: 0x0, symName: __ZN8crashpad39MinidumpModuleCodeViewRecordPDB20WriterD1Ev, symObjAddr: 0x688, symBinAddr: 0x39024, symSize: 0x4 }
  - { offset: 0x76557, size: 0x8, addend: 0x0, symName: __ZN8crashpad39MinidumpModuleCodeViewRecordPDB20WriterD0Ev, symObjAddr: 0x68C, symBinAddr: 0x39028, symSize: 0x14 }
  - { offset: 0x7659F, size: 0x8, addend: 0x0, symName: __ZN8crashpad39MinidumpModuleCodeViewRecordPDB20Writer18SetTimestampAndAgeElj, symObjAddr: 0x6A0, symBinAddr: 0x3903C, symSize: 0x94 }
  - { offset: 0x765E6, size: 0x8, addend: 0x0, symName: __ZN8crashpad39MinidumpModuleCodeViewRecordPDB70WriterD2Ev, symObjAddr: 0x734, symBinAddr: 0x390D0, symSize: 0x4 }
  - { offset: 0x765FB, size: 0x8, addend: 0x0, symName: __ZN8crashpad39MinidumpModuleCodeViewRecordPDB70WriterD2Ev, symObjAddr: 0x734, symBinAddr: 0x390D0, symSize: 0x4 }
  - { offset: 0x7660B, size: 0x8, addend: 0x0, symName: __ZN8crashpad39MinidumpModuleCodeViewRecordPDB70WriterD1Ev, symObjAddr: 0x738, symBinAddr: 0x390D4, symSize: 0x4 }
  - { offset: 0x76620, size: 0x8, addend: 0x0, symName: __ZN8crashpad39MinidumpModuleCodeViewRecordPDB70WriterD1Ev, symObjAddr: 0x738, symBinAddr: 0x390D4, symSize: 0x4 }
  - { offset: 0x76634, size: 0x8, addend: 0x0, symName: __ZN8crashpad39MinidumpModuleCodeViewRecordPDB70WriterD1Ev, symObjAddr: 0x738, symBinAddr: 0x390D4, symSize: 0x4 }
  - { offset: 0x76644, size: 0x8, addend: 0x0, symName: __ZN8crashpad39MinidumpModuleCodeViewRecordPDB70WriterD0Ev, symObjAddr: 0x73C, symBinAddr: 0x390D8, symSize: 0x14 }
  - { offset: 0x76698, size: 0x8, addend: 0x0, symName: __ZN8crashpad39MinidumpModuleCodeViewRecordPDB70Writer22InitializeFromSnapshotEPKNS_14ModuleSnapshotE, symObjAddr: 0x750, symBinAddr: 0x390EC, symSize: 0xF4 }
  - { offset: 0x768AB, size: 0x8, addend: 0x0, symName: __ZN8crashpad41MinidumpModuleCodeViewRecordBuildIDWriterC2Ev, symObjAddr: 0x844, symBinAddr: 0x391E0, symSize: 0x28 }
  - { offset: 0x76901, size: 0x8, addend: 0x0, symName: __ZN8crashpad41MinidumpModuleCodeViewRecordBuildIDWriterC1Ev, symObjAddr: 0x86C, symBinAddr: 0x39208, symSize: 0x28 }
  - { offset: 0x76990, size: 0x8, addend: 0x0, symName: __ZN8crashpad41MinidumpModuleCodeViewRecordBuildIDWriterD2Ev, symObjAddr: 0x894, symBinAddr: 0x39230, symSize: 0x30 }
  - { offset: 0x76A8E, size: 0x8, addend: 0x0, symName: __ZN8crashpad41MinidumpModuleCodeViewRecordBuildIDWriterD1Ev, symObjAddr: 0x8C4, symBinAddr: 0x39260, symSize: 0x4 }
  - { offset: 0x76AA3, size: 0x8, addend: 0x0, symName: __ZN8crashpad41MinidumpModuleCodeViewRecordBuildIDWriterD1Ev, symObjAddr: 0x8C4, symBinAddr: 0x39260, symSize: 0x4 }
  - { offset: 0x76AB3, size: 0x8, addend: 0x0, symName: __ZN8crashpad41MinidumpModuleCodeViewRecordBuildIDWriterD0Ev, symObjAddr: 0x8C8, symBinAddr: 0x39264, symSize: 0x14 }
  - { offset: 0x76AEC, size: 0x8, addend: 0x0, symName: __ZN8crashpad41MinidumpModuleCodeViewRecordBuildIDWriter12SizeOfObjectEv, symObjAddr: 0x8DC, symBinAddr: 0x39278, symSize: 0x88 }
  - { offset: 0x76B5F, size: 0x8, addend: 0x0, symName: __ZN8crashpad41MinidumpModuleCodeViewRecordBuildIDWriter10SetBuildIDERKNSt3__16vectorIhNS1_9allocatorIhEEEE, symObjAddr: 0x964, symBinAddr: 0x39300, symSize: 0x98 }
  - { offset: 0x76DE2, size: 0x8, addend: 0x0, symName: __ZN8crashpad41MinidumpModuleCodeViewRecordBuildIDWriter11WriteObjectEPNS_19FileWriterInterfaceE, symObjAddr: 0x9FC, symBinAddr: 0x39398, symSize: 0x1CC }
  - { offset: 0x77223, size: 0x8, addend: 0x0, symName: __ZN8crashpad35MinidumpModuleMiscDebugRecordWriterC2Ev, symObjAddr: 0xBC8, symBinAddr: 0x39564, symSize: 0x38 }
  - { offset: 0x772A5, size: 0x8, addend: 0x0, symName: __ZN8crashpad35MinidumpModuleMiscDebugRecordWriterC1Ev, symObjAddr: 0xC00, symBinAddr: 0x3959C, symSize: 0x38 }
  - { offset: 0x7735A, size: 0x8, addend: 0x0, symName: __ZN8crashpad35MinidumpModuleMiscDebugRecordWriterD2Ev, symObjAddr: 0xC38, symBinAddr: 0x395D4, symSize: 0x40 }
  - { offset: 0x774EE, size: 0x8, addend: 0x0, symName: __ZN8crashpad35MinidumpModuleMiscDebugRecordWriterD1Ev, symObjAddr: 0xC78, symBinAddr: 0x39614, symSize: 0x4 }
  - { offset: 0x77503, size: 0x8, addend: 0x0, symName: __ZN8crashpad35MinidumpModuleMiscDebugRecordWriterD1Ev, symObjAddr: 0xC78, symBinAddr: 0x39614, symSize: 0x4 }
  - { offset: 0x77513, size: 0x8, addend: 0x0, symName: __ZN8crashpad35MinidumpModuleMiscDebugRecordWriterD0Ev, symObjAddr: 0xC7C, symBinAddr: 0x39618, symSize: 0x14 }
  - { offset: 0x77588, size: 0x8, addend: 0x0, symName: __ZN8crashpad35MinidumpModuleMiscDebugRecordWriter7SetDataERKNSt3__112basic_stringIcNS1_11char_traitsIcEENS1_9allocatorIcEEEEb, symObjAddr: 0xC90, symBinAddr: 0x3962C, symSize: 0x110 }
  - { offset: 0x777FC, size: 0x8, addend: 0x0, symName: __ZN8crashpad35MinidumpModuleMiscDebugRecordWriter6FreezeEv, symObjAddr: 0xDA0, symBinAddr: 0x3973C, symSize: 0x1B8 }
  - { offset: 0x77ABB, size: 0x8, addend: 0x0, symName: __ZN8crashpad35MinidumpModuleMiscDebugRecordWriter12SizeOfObjectEv, symObjAddr: 0xF58, symBinAddr: 0x398F4, symSize: 0x80 }
  - { offset: 0x77B0E, size: 0x8, addend: 0x0, symName: __ZN8crashpad35MinidumpModuleMiscDebugRecordWriter11WriteObjectEPNS_19FileWriterInterfaceE, symObjAddr: 0xFD8, symBinAddr: 0x39974, symSize: 0x2CC }
  - { offset: 0x780EB, size: 0x8, addend: 0x0, symName: __ZN8crashpad20MinidumpModuleWriterC2Ev, symObjAddr: 0x12A4, symBinAddr: 0x39C40, symSize: 0x54 }
  - { offset: 0x7816B, size: 0x8, addend: 0x0, symName: __ZN8crashpad20MinidumpModuleWriterC1Ev, symObjAddr: 0x12F8, symBinAddr: 0x39C94, symSize: 0x54 }
  - { offset: 0x7822A, size: 0x8, addend: 0x0, symName: __ZN8crashpad20MinidumpModuleWriterD2Ev, symObjAddr: 0x134C, symBinAddr: 0x39CE8, symSize: 0x50 }
  - { offset: 0x7830B, size: 0x8, addend: 0x0, symName: __ZNSt3__110unique_ptrIN8crashpad35MinidumpModuleMiscDebugRecordWriterENS_14default_deleteIS2_EEE5resetB8ne190102EPS2_, symObjAddr: 0x34F8, symBinAddr: 0x3B554, symSize: 0x28 }
  - { offset: 0x78354, size: 0x8, addend: 0x0, symName: __ZNSt3__110unique_ptrIN8crashpad8internal25MinidumpUTF16StringWriterENS_14default_deleteIS3_EEE5resetB8ne190102EPS3_, symObjAddr: 0x1C6C, symBinAddr: 0x3A558, symSize: 0x28 }
  - { offset: 0x7837B, size: 0x8, addend: 0x0, symName: __ZN8crashpad20MinidumpModuleWriterD1Ev, symObjAddr: 0x139C, symBinAddr: 0x39D38, symSize: 0x4 }
  - { offset: 0x78390, size: 0x8, addend: 0x0, symName: __ZN8crashpad20MinidumpModuleWriterD1Ev, symObjAddr: 0x139C, symBinAddr: 0x39D38, symSize: 0x4 }
  - { offset: 0x783A0, size: 0x8, addend: 0x0, symName: __ZN8crashpad20MinidumpModuleWriterD0Ev, symObjAddr: 0x13A0, symBinAddr: 0x39D3C, symSize: 0x14 }
  - { offset: 0x78463, size: 0x8, addend: 0x0, symName: __ZN8crashpad20MinidumpModuleWriter22InitializeFromSnapshotEPKNS_14ModuleSnapshotE, symObjAddr: 0x13B4, symBinAddr: 0x39D50, symSize: 0x448 }
  - { offset: 0x78D5A, size: 0x8, addend: 0x0, symName: __ZN8crashpad20MinidumpModuleWriter7SetNameERKNSt3__112basic_stringIcNS1_11char_traitsIcEENS1_9allocatorIcEEEE, symObjAddr: 0x17FC, symBinAddr: 0x3A198, symSize: 0xD4 }
  - { offset: 0x78E3C, size: 0x8, addend: 0x0, symName: __ZN8crashpad20MinidumpModuleWriter12SetTimestampEl, symObjAddr: 0x1980, symBinAddr: 0x3A26C, symSize: 0x8C }
  - { offset: 0x78E85, size: 0x8, addend: 0x0, symName: __ZN8crashpad20MinidumpModuleWriter14SetFileVersionEtttt, symObjAddr: 0x1A0C, symBinAddr: 0x3A2F8, symSize: 0xA0 }
  - { offset: 0x78ECE, size: 0x8, addend: 0x0, symName: __ZN8crashpad20MinidumpModuleWriter17SetProductVersionEtttt, symObjAddr: 0x1AAC, symBinAddr: 0x3A398, symSize: 0xA0 }
  - { offset: 0x78F17, size: 0x8, addend: 0x0, symName: __ZN8crashpad20MinidumpModuleWriter17SetCodeViewRecordENSt3__110unique_ptrINS_34MinidumpModuleCodeViewRecordWriterENS1_14default_deleteIS3_EEEE, symObjAddr: 0x1B4C, symBinAddr: 0x3A438, symSize: 0xA0 }
  - { offset: 0x78FDD, size: 0x8, addend: 0x0, symName: __ZNK8crashpad20MinidumpModuleWriter14MinidumpModuleEv, symObjAddr: 0x1BEC, symBinAddr: 0x3A4D8, symSize: 0x80 }
  - { offset: 0x79038, size: 0x8, addend: 0x0, symName: __ZN8crashpad20MinidumpModuleWriter18SetMiscDebugRecordENSt3__110unique_ptrINS_35MinidumpModuleMiscDebugRecordWriterENS1_14default_deleteIS3_EEEE, symObjAddr: 0x1C94, symBinAddr: 0x3A580, symSize: 0x90 }
  - { offset: 0x790B6, size: 0x8, addend: 0x0, symName: __ZN8crashpad20MinidumpModuleWriter19SetFileFlagsAndMaskEjj, symObjAddr: 0x1D24, symBinAddr: 0x3A610, symSize: 0xD8 }
  - { offset: 0x79371, size: 0x8, addend: 0x0, symName: __ZN8crashpad20MinidumpModuleWriter6FreezeEv, symObjAddr: 0x1DFC, symBinAddr: 0x3A6E8, symSize: 0x128 }
  - { offset: 0x7945F, size: 0x8, addend: 0x0, symName: __ZN8crashpad20MinidumpModuleWriter12SizeOfObjectEv, symObjAddr: 0x1F24, symBinAddr: 0x3A810, symSize: 0x7C }
  - { offset: 0x7953E, size: 0x8, addend: 0x0, symName: __ZN8crashpad20MinidumpModuleWriter8ChildrenEv, symObjAddr: 0x1FA0, symBinAddr: 0x3A88C, symSize: 0x2E0 }
  - { offset: 0x79CF3, size: 0x8, addend: 0x0, symName: __ZNSt3__16vectorINS_10unique_ptrIN8crashpad20MinidumpModuleWriterENS_14default_deleteIS3_EEEENS_9allocatorIS6_EEE16__destroy_vectorclB8ne190102Ev, symObjAddr: 0x36D0, symBinAddr: 0x3B57C, symSize: 0x74 }
  - { offset: 0x79D10, size: 0x8, addend: 0x0, symName: __ZN8crashpad20MinidumpModuleWriter11WriteObjectEPNS_19FileWriterInterfaceE, symObjAddr: 0x2280, symBinAddr: 0x3AB6C, symSize: 0x7C }
  - { offset: 0x79D59, size: 0x8, addend: 0x0, symName: __ZN8crashpad24MinidumpModuleListWriterC2Ev, symObjAddr: 0x22FC, symBinAddr: 0x3ABE8, symSize: 0x2C }
  - { offset: 0x79D70, size: 0x8, addend: 0x0, symName: __ZN8crashpad24MinidumpModuleListWriterC1Ev, symObjAddr: 0x2328, symBinAddr: 0x3AC14, symSize: 0x2C }
  - { offset: 0x79DAF, size: 0x8, addend: 0x0, symName: __ZN8crashpad24MinidumpModuleListWriterD2Ev, symObjAddr: 0x2354, symBinAddr: 0x3AC40, symSize: 0x3C }
  - { offset: 0x79E25, size: 0x8, addend: 0x0, symName: __ZNSt3__16vectorINS_10unique_ptrIN8crashpad20MinidumpModuleWriterENS_14default_deleteIS3_EEEENS_9allocatorIS6_EEE16__destroy_vectorclB8ne190102Ev, symObjAddr: 0x36D0, symBinAddr: 0x3B57C, symSize: 0x74 }
  - { offset: 0x79F28, size: 0x8, addend: 0x0, symName: __ZN8crashpad24MinidumpModuleListWriterD1Ev, symObjAddr: 0x2390, symBinAddr: 0x3AC7C, symSize: 0x3C }
  - { offset: 0x79FBA, size: 0x8, addend: 0x0, symName: __ZN8crashpad24MinidumpModuleListWriterD0Ev, symObjAddr: 0x23CC, symBinAddr: 0x3ACB8, symSize: 0x40 }
  - { offset: 0x7A0B0, size: 0x8, addend: 0x0, symName: __ZN8crashpad24MinidumpModuleListWriter22InitializeFromSnapshotERKNSt3__16vectorIPKNS_14ModuleSnapshotENS1_9allocatorIS5_EEEE, symObjAddr: 0x240C, symBinAddr: 0x3ACF8, symSize: 0x1D4 }
  - { offset: 0x7A44A, size: 0x8, addend: 0x0, symName: __ZN8crashpad24MinidumpModuleListWriter9AddModuleENSt3__110unique_ptrINS_20MinidumpModuleWriterENS1_14default_deleteIS3_EEEE, symObjAddr: 0x25E0, symBinAddr: 0x3AECC, symSize: 0x154 }
  - { offset: 0x7A74C, size: 0x8, addend: 0x0, symName: __ZN8crashpad24MinidumpModuleListWriter6FreezeEv, symObjAddr: 0x2734, symBinAddr: 0x3B020, symSize: 0x11C }
  - { offset: 0x7A7E6, size: 0x8, addend: 0x0, symName: __ZNSt3__114__split_bufferINS_10unique_ptrIN8crashpad20MinidumpModuleWriterENS_14default_deleteIS3_EEEERNS_9allocatorIS6_EEED2Ev, symObjAddr: 0x37B4, symBinAddr: 0x3B618, symSize: 0x50 }
  - { offset: 0x7A7F0, size: 0x8, addend: 0x0, symName: __ZNSt3__114__split_bufferINS_10unique_ptrIN8crashpad20MinidumpModuleWriterENS_14default_deleteIS3_EEEERNS_9allocatorIS6_EEED2Ev, symObjAddr: 0x37B4, symBinAddr: 0x3B618, symSize: 0x50 }
  - { offset: 0x7A92A, size: 0x8, addend: 0x0, symName: __ZN8crashpad24MinidumpModuleListWriter6FreezeEv, symObjAddr: 0x2734, symBinAddr: 0x3B020, symSize: 0x11C }
  - { offset: 0x7A9DE, size: 0x8, addend: 0x0, symName: __ZN8crashpad24MinidumpModuleListWriter12SizeOfObjectEv, symObjAddr: 0x2850, symBinAddr: 0x3B13C, symSize: 0x94 }
  - { offset: 0x7AA4E, size: 0x8, addend: 0x0, symName: __ZN8crashpad24MinidumpModuleListWriter8ChildrenEv, symObjAddr: 0x28E4, symBinAddr: 0x3B1D0, symSize: 0x190 }
  - { offset: 0x7ADD2, size: 0x8, addend: 0x0, symName: __ZN8crashpad24MinidumpModuleListWriter11WriteObjectEPNS_19FileWriterInterfaceE, symObjAddr: 0x2A74, symBinAddr: 0x3B360, symSize: 0x1EC }
  - { offset: 0x7B238, size: 0x8, addend: 0x0, symName: __ZNK8crashpad24MinidumpModuleListWriter10StreamTypeEv, symObjAddr: 0x2C60, symBinAddr: 0x3B54C, symSize: 0x8 }
  - { offset: 0x7B6F4, size: 0x8, addend: 0x0, symName: __ZNSt3__110unique_ptrIN8crashpad35MinidumpModuleMiscDebugRecordWriterENS_14default_deleteIS2_EEE5resetB8ne190102EPS2_, symObjAddr: 0x34F8, symBinAddr: 0x3B554, symSize: 0x28 }
  - { offset: 0x7B754, size: 0x8, addend: 0x0, symName: __ZNSt3__110unique_ptrIN8crashpad20MinidumpModuleWriterENS_14default_deleteIS2_EEE5resetB8ne190102EPS2_, symObjAddr: 0x3744, symBinAddr: 0x3B5F0, symSize: 0x28 }
  - { offset: 0x7B80E, size: 0x8, addend: 0x0, symName: __ZN8crashpad8internal21MinidumpRVAListWriterC2Ev, symObjAddr: 0x0, symBinAddr: 0x3B668, symSize: 0x60 }
  - { offset: 0x7B8B2, size: 0x8, addend: 0x0, symName: __ZN8crashpad8internal21MinidumpRVAListWriterC1Ev, symObjAddr: 0x60, symBinAddr: 0x3B6C8, symSize: 0x4 }
  - { offset: 0x7B8C7, size: 0x8, addend: 0x0, symName: __ZN8crashpad8internal21MinidumpRVAListWriterC1Ev, symObjAddr: 0x60, symBinAddr: 0x3B6C8, symSize: 0x4 }
  - { offset: 0x7B93D, size: 0x8, addend: 0x0, symName: __ZN8crashpad8internal21MinidumpRVAListWriterD2Ev, symObjAddr: 0x64, symBinAddr: 0x3B6CC, symSize: 0x68 }
  - { offset: 0x7BB6F, size: 0x8, addend: 0x0, symName: __ZN8crashpad8internal21MinidumpRVAListWriterD1Ev, symObjAddr: 0xCC, symBinAddr: 0x3B734, symSize: 0x4 }
  - { offset: 0x7BB84, size: 0x8, addend: 0x0, symName: __ZN8crashpad8internal21MinidumpRVAListWriterD1Ev, symObjAddr: 0xCC, symBinAddr: 0x3B734, symSize: 0x4 }
  - { offset: 0x7BB94, size: 0x8, addend: 0x0, symName: __ZN8crashpad8internal21MinidumpRVAListWriterD0Ev, symObjAddr: 0xD0, symBinAddr: 0x3B738, symSize: 0x14 }
  - { offset: 0x7BC5D, size: 0x8, addend: 0x0, symName: __ZN8crashpad8internal21MinidumpRVAListWriter8AddChildENSt3__110unique_ptrINS0_16MinidumpWritableENS2_14default_deleteIS4_EEEE, symObjAddr: 0xE4, symBinAddr: 0x3B74C, symSize: 0x154 }
  - { offset: 0x7BF5C, size: 0x8, addend: 0x0, symName: __ZN8crashpad8internal21MinidumpRVAListWriter6FreezeEv, symObjAddr: 0x238, symBinAddr: 0x3B8A0, symSize: 0x1D4 }
  - { offset: 0x7C2D0, size: 0x8, addend: 0x0, symName: __ZN8crashpad8internal21MinidumpRVAListWriter6FreezeEv, symObjAddr: 0x238, symBinAddr: 0x3B8A0, symSize: 0x1D4 }
  - { offset: 0x7C4DC, size: 0x8, addend: 0x0, symName: __ZNSt3__16vectorIjNS_9allocatorIjEEE6resizeEm, symObjAddr: 0x40C, symBinAddr: 0x3BA74, symSize: 0x30 }
  - { offset: 0x7C4F1, size: 0x8, addend: 0x0, symName: __ZNSt3__16vectorIjNS_9allocatorIjEEE6resizeEm, symObjAddr: 0x40C, symBinAddr: 0x3BA74, symSize: 0x30 }
  - { offset: 0x7C547, size: 0x8, addend: 0x0, symName: __ZNSt3__16vectorIjNS_9allocatorIjEEE8__appendEm, symObjAddr: 0xFB0, symBinAddr: 0x3BEE8, symSize: 0x120 }
  - { offset: 0x7C756, size: 0x8, addend: 0x0, symName: __ZN8crashpad8internal21MinidumpRVAListWriter12SizeOfObjectEv, symObjAddr: 0x43C, symBinAddr: 0x3BAA4, symSize: 0x8C }
  - { offset: 0x7C853, size: 0x8, addend: 0x0, symName: __ZN8crashpad8internal21MinidumpRVAListWriter8ChildrenEv, symObjAddr: 0x4C8, symBinAddr: 0x3BB30, symSize: 0x190 }
  - { offset: 0x7CCA6, size: 0x8, addend: 0x0, symName: __ZN8crashpad8internal21MinidumpRVAListWriter11WriteObjectEPNS_19FileWriterInterfaceE, symObjAddr: 0x658, symBinAddr: 0x3BCC0, symSize: 0x228 }
  - { offset: 0x7D8BB, size: 0x8, addend: 0x0, symName: __ZNSt3__16vectorIjNS_9allocatorIjEEE8__appendEm, symObjAddr: 0xFB0, symBinAddr: 0x3BEE8, symSize: 0x120 }
  - { offset: 0x7D937, size: 0x8, addend: 0x0, symName: __ZNSt3__119__allocate_at_leastB8ne190102INS_9allocatorIjEEEENS_19__allocation_resultINS_16allocator_traitsIT_E7pointerEEERS5_m, symObjAddr: 0x10E4, symBinAddr: 0x3C008, symSize: 0x34 }
  - { offset: 0x7D996, size: 0x8, addend: 0x0, symName: __ZNSt3__119__allocate_at_leastB8ne190102INS_9allocatorIjEEEENS_19__allocation_resultINS_16allocator_traitsIT_E7pointerEEERS5_m, symObjAddr: 0x10E4, symBinAddr: 0x3C008, symSize: 0x34 }
  - { offset: 0x7DB86, size: 0x8, addend: 0x0, symName: __ZN8crashpad8internal34ReadMinidumpSimpleStringDictionaryEPNS_19FileReaderInterfaceERK28MINIDUMP_LOCATION_DESCRIPTORPNSt3__13mapINS6_12basic_stringIcNS6_11char_traitsIcEENS6_9allocatorIcEEEESD_NS6_4lessISD_EENSB_INS6_4pairIKSD_SD_EEEEEE, symObjAddr: 0x0, symBinAddr: 0x3C03C, symSize: 0x38C }
  - { offset: 0x7E7C4, size: 0x8, addend: 0x0, symName: __ZNSt3__16vectorIN8crashpad35MinidumpSimpleStringDictionaryEntryENS_9allocatorIS2_EEEC2B8ne190102Em, symObjAddr: 0x974, symBinAddr: 0x3C49C, symSize: 0x74 }
  - { offset: 0x7E958, size: 0x8, addend: 0x0, symName: __ZNSt3__14pairINS_12basic_stringIcNS_11char_traitsIcEENS_9allocatorIcEEEES6_EC2B8ne190102IRS6_S9_Li0EEEOT_OT0_, symObjAddr: 0x3CC, symBinAddr: 0x3C408, symSize: 0x94 }
  - { offset: 0x7EADF, size: 0x8, addend: 0x0, symName: __ZNSt3__16__treeINS_12__value_typeINS_12basic_stringIcNS_11char_traitsIcEENS_9allocatorIcEEEES7_EENS_19__map_value_compareIS7_S8_NS_4lessIS7_EELb1EEENS5_IS8_EEE25__emplace_unique_key_argsIS7_JNS_4pairIS7_S7_EEEEENSG_INS_15__tree_iteratorIS8_PNS_11__tree_nodeIS8_PvEElEEbEERKT_DpOT0_, symObjAddr: 0xA70, symBinAddr: 0x3C510, symSize: 0xA4 }
  - { offset: 0x7EC01, size: 0x8, addend: 0x0, symName: __ZNSt3__16__treeINS_12__value_typeINS_12basic_stringIcNS_11char_traitsIcEENS_9allocatorIcEEEES7_EENS_19__map_value_compareIS7_S8_NS_4lessIS7_EELb1EEENS5_IS8_EEE4swapERSE_, symObjAddr: 0xE04, symBinAddr: 0x3C5B4, symSize: 0x58 }
  - { offset: 0x7EC16, size: 0x8, addend: 0x0, symName: __ZNSt3__16__treeINS_12__value_typeINS_12basic_stringIcNS_11char_traitsIcEENS_9allocatorIcEEEES7_EENS_19__map_value_compareIS7_S8_NS_4lessIS7_EELb1EEENS5_IS8_EEE4swapERSE_, symObjAddr: 0xE04, symBinAddr: 0x3C5B4, symSize: 0x58 }
  - { offset: 0x7EC67, size: 0x8, addend: 0x0, symName: __ZNSt3__14pairINS_12basic_stringIcNS_11char_traitsIcEENS_9allocatorIcEEEES6_ED1Ev, symObjAddr: 0x38C, symBinAddr: 0x3C3C8, symSize: 0x40 }
  - { offset: 0x7F216, size: 0x8, addend: 0x0, symName: __ZNSt3__16vectorIN8crashpad35MinidumpSimpleStringDictionaryEntryENS_9allocatorIS2_EEEC2B8ne190102Em, symObjAddr: 0x974, symBinAddr: 0x3C49C, symSize: 0x74 }
  - { offset: 0x7F2C7, size: 0x8, addend: 0x0, symName: __ZNSt3__16__treeINS_12__value_typeINS_12basic_stringIcNS_11char_traitsIcEENS_9allocatorIcEEEES7_EENS_19__map_value_compareIS7_S8_NS_4lessIS7_EELb1EEENS5_IS8_EEE25__emplace_unique_key_argsIS7_JNS_4pairIS7_S7_EEEEENSG_INS_15__tree_iteratorIS8_PNS_11__tree_nodeIS8_PvEElEEbEERKT_DpOT0_, symObjAddr: 0xA70, symBinAddr: 0x3C510, symSize: 0xA4 }
  - { offset: 0x7F554, size: 0x8, addend: 0x0, symName: __ZN8crashpad41MinidumpSimpleStringDictionaryEntryWriterC2Ev, symObjAddr: 0x0, symBinAddr: 0x3C60C, symSize: 0x7C }
  - { offset: 0x7F5B8, size: 0x8, addend: 0x0, symName: __ZN8crashpad41MinidumpSimpleStringDictionaryEntryWriterC1Ev, symObjAddr: 0x7C, symBinAddr: 0x3C688, symSize: 0x4 }
  - { offset: 0x7F5CD, size: 0x8, addend: 0x0, symName: __ZN8crashpad41MinidumpSimpleStringDictionaryEntryWriterC1Ev, symObjAddr: 0x7C, symBinAddr: 0x3C688, symSize: 0x4 }
  - { offset: 0x7F5D7, size: 0x8, addend: 0x0, symName: __ZN8crashpad41MinidumpSimpleStringDictionaryEntryWriterD2Ev, symObjAddr: 0x80, symBinAddr: 0x3C68C, symSize: 0x30 }
  - { offset: 0x7F5EE, size: 0x8, addend: 0x0, symName: __ZN8crashpad41MinidumpSimpleStringDictionaryEntryWriterD1Ev, symObjAddr: 0xB0, symBinAddr: 0x3C6BC, symSize: 0x30 }
  - { offset: 0x7F61A, size: 0x8, addend: 0x0, symName: __ZN8crashpad41MinidumpSimpleStringDictionaryEntryWriterD0Ev, symObjAddr: 0xE0, symBinAddr: 0x3C6EC, symSize: 0x34 }
  - { offset: 0x7F661, size: 0x8, addend: 0x0, symName: __ZNK8crashpad41MinidumpSimpleStringDictionaryEntryWriter38GetMinidumpSimpleStringDictionaryEntryEv, symObjAddr: 0x114, symBinAddr: 0x3C720, symSize: 0x80 }
  - { offset: 0x7F91C, size: 0x8, addend: 0x0, symName: __ZN8crashpad41MinidumpSimpleStringDictionaryEntryWriter11SetKeyValueERKNSt3__112basic_stringIcNS1_11char_traitsIcEENS1_9allocatorIcEEEES9_, symObjAddr: 0x194, symBinAddr: 0x3C7A0, symSize: 0x9C }
  - { offset: 0x7F9DF, size: 0x8, addend: 0x0, symName: __ZN8crashpad41MinidumpSimpleStringDictionaryEntryWriter6FreezeEv, symObjAddr: 0x230, symBinAddr: 0x3C83C, symSize: 0xA8 }
  - { offset: 0x7FA2C, size: 0x8, addend: 0x0, symName: __ZN8crashpad41MinidumpSimpleStringDictionaryEntryWriter12SizeOfObjectEv, symObjAddr: 0x2D8, symBinAddr: 0x3C8E4, symSize: 0x7C }
  - { offset: 0x7FB0F, size: 0x8, addend: 0x0, symName: __ZN8crashpad41MinidumpSimpleStringDictionaryEntryWriter8ChildrenEv, symObjAddr: 0x354, symBinAddr: 0x3C960, symSize: 0x170 }
  - { offset: 0x7FE40, size: 0x8, addend: 0x0, symName: __ZNSt3__16vectorIPN8crashpad8internal16MinidumpWritableENS_9allocatorIS4_EEEC2B8ne190102EmRKS4_, symObjAddr: 0x11C8, symBinAddr: 0x3D50C, symSize: 0xD4 }
  - { offset: 0x7FFFE, size: 0x8, addend: 0x0, symName: __ZN8crashpad41MinidumpSimpleStringDictionaryEntryWriter11WriteObjectEPNS_19FileWriterInterfaceE, symObjAddr: 0x4C4, symBinAddr: 0x3CAD0, symSize: 0x7C }
  - { offset: 0x800A5, size: 0x8, addend: 0x0, symName: __ZN8crashpad36MinidumpSimpleStringDictionaryWriterC2Ev, symObjAddr: 0x540, symBinAddr: 0x3CB4C, symSize: 0x7C }
  - { offset: 0x802CB, size: 0x8, addend: 0x0, symName: __ZN8crashpad36MinidumpSimpleStringDictionaryWriterC1Ev, symObjAddr: 0x5BC, symBinAddr: 0x3CBC8, symSize: 0x4 }
  - { offset: 0x802E0, size: 0x8, addend: 0x0, symName: __ZN8crashpad36MinidumpSimpleStringDictionaryWriterC1Ev, symObjAddr: 0x5BC, symBinAddr: 0x3CBC8, symSize: 0x4 }
  - { offset: 0x80344, size: 0x8, addend: 0x0, symName: __ZN8crashpad36MinidumpSimpleStringDictionaryWriterD2Ev, symObjAddr: 0x5C0, symBinAddr: 0x3CBCC, symSize: 0xBC }
  - { offset: 0x80521, size: 0x8, addend: 0x0, symName: __ZN8crashpad36MinidumpSimpleStringDictionaryWriterD1Ev, symObjAddr: 0x68C, symBinAddr: 0x3CC88, symSize: 0x4 }
  - { offset: 0x80536, size: 0x8, addend: 0x0, symName: __ZN8crashpad36MinidumpSimpleStringDictionaryWriterD1Ev, symObjAddr: 0x68C, symBinAddr: 0x3CC88, symSize: 0x4 }
  - { offset: 0x80546, size: 0x8, addend: 0x0, symName: __ZN8crashpad36MinidumpSimpleStringDictionaryWriterD0Ev, symObjAddr: 0x690, symBinAddr: 0x3CC8C, symSize: 0x14 }
  - { offset: 0x805FD, size: 0x8, addend: 0x0, symName: __ZN8crashpad36MinidumpSimpleStringDictionaryWriter17InitializeFromMapERKNSt3__13mapINS1_12basic_stringIcNS1_11char_traitsIcEENS1_9allocatorIcEEEES8_NS1_4lessIS8_EENS6_INS1_4pairIKS8_S8_EEEEEE, symObjAddr: 0x6A4, symBinAddr: 0x3CCA0, symSize: 0x1E0 }
  - { offset: 0x80A27, size: 0x8, addend: 0x0, symName: __ZN8crashpad36MinidumpSimpleStringDictionaryWriter8AddEntryENSt3__110unique_ptrINS_41MinidumpSimpleStringDictionaryEntryWriterENS1_14default_deleteIS3_EEEE, symObjAddr: 0x884, symBinAddr: 0x3CE80, symSize: 0x10C }
  - { offset: 0x80B8B, size: 0x8, addend: 0x0, symName: __ZNKSt3__114default_deleteIN8crashpad41MinidumpSimpleStringDictionaryEntryWriterEEclB8ne190102EPS2_, symObjAddr: 0x16B8, symBinAddr: 0x3D5E0, symSize: 0x3C }
  - { offset: 0x80BEA, size: 0x8, addend: 0x0, symName: __ZNSt3__16__treeINS_12__value_typeINS_12basic_stringIcNS_11char_traitsIcEENS_9allocatorIcEEEEPN8crashpad41MinidumpSimpleStringDictionaryEntryWriterEEENS_19__map_value_compareIS7_SB_NS_4lessIS7_EELb1EEENS5_ISB_EEE4findIS7_EENS_15__tree_iteratorISB_PNS_11__tree_nodeISB_PvEElEERKT_, symObjAddr: 0x16F4, symBinAddr: 0x3D61C, symSize: 0x8C }
  - { offset: 0x80CAF, size: 0x8, addend: 0x0, symName: __ZNK8crashpad36MinidumpSimpleStringDictionaryWriter8IsUsefulEv, symObjAddr: 0x990, symBinAddr: 0x3CF8C, symSize: 0x10 }
  - { offset: 0x80CC4, size: 0x8, addend: 0x0, symName: __ZNK8crashpad36MinidumpSimpleStringDictionaryWriter8IsUsefulEv, symObjAddr: 0x990, symBinAddr: 0x3CF8C, symSize: 0x10 }
  - { offset: 0x80CE7, size: 0x8, addend: 0x0, symName: __ZN8crashpad36MinidumpSimpleStringDictionaryWriter6FreezeEv, symObjAddr: 0x9A0, symBinAddr: 0x3CF9C, symSize: 0x114 }
  - { offset: 0x80DB0, size: 0x8, addend: 0x0, symName: __ZN8crashpad36MinidumpSimpleStringDictionaryWriter12SizeOfObjectEv, symObjAddr: 0xAB4, symBinAddr: 0x3D0B0, symSize: 0x88 }
  - { offset: 0x80E17, size: 0x8, addend: 0x0, symName: __ZN8crashpad36MinidumpSimpleStringDictionaryWriter8ChildrenEv, symObjAddr: 0xB3C, symBinAddr: 0x3D138, symSize: 0x1B8 }
  - { offset: 0x812B4, size: 0x8, addend: 0x0, symName: __ZN8crashpad36MinidumpSimpleStringDictionaryWriter11WriteObjectEPNS_19FileWriterInterfaceE, symObjAddr: 0xCF4, symBinAddr: 0x3D2F0, symSize: 0x21C }
  - { offset: 0x81D1E, size: 0x8, addend: 0x0, symName: __ZNKSt3__114default_deleteIN8crashpad41MinidumpSimpleStringDictionaryEntryWriterEEclB8ne190102EPS2_, symObjAddr: 0x16B8, symBinAddr: 0x3D5E0, symSize: 0x3C }
  - { offset: 0x82242, size: 0x8, addend: 0x0, symName: __ZN8crashpad8internal20MinidumpStreamWriterD2Ev, symObjAddr: 0x0, symBinAddr: 0x3D6A8, symSize: 0x4 }
  - { offset: 0x8224F, size: 0x8, addend: 0x0, symName: __ZN8crashpad8internal20MinidumpStreamWriterD2Ev, symObjAddr: 0x0, symBinAddr: 0x3D6A8, symSize: 0x4 }
  - { offset: 0x82260, size: 0x8, addend: 0x0, symName: __ZN8crashpad8internal20MinidumpStreamWriterD1Ev, symObjAddr: 0x4, symBinAddr: 0x3D6AC, symSize: 0x4 }
  - { offset: 0x82271, size: 0x8, addend: 0x0, symName: __ZN8crashpad8internal20MinidumpStreamWriterD0Ev, symObjAddr: 0x8, symBinAddr: 0x3D6B0, symSize: 0x4 }
  - { offset: 0x8228E, size: 0x8, addend: 0x0, symName: __ZNK8crashpad8internal20MinidumpStreamWriter18DirectoryListEntryEv, symObjAddr: 0xC, symBinAddr: 0x3D6B4, symSize: 0x80 }
  - { offset: 0x82537, size: 0x8, addend: 0x0, symName: __ZN8crashpad8internal20MinidumpStreamWriterC2Ev, symObjAddr: 0x8C, symBinAddr: 0x3D734, symSize: 0x28 }
  - { offset: 0x82548, size: 0x8, addend: 0x0, symName: __ZN8crashpad8internal20MinidumpStreamWriter6FreezeEv, symObjAddr: 0xB4, symBinAddr: 0x3D75C, symSize: 0xB0 }
  - { offset: 0x82896, size: 0x8, addend: 0x0, symName: __ZN8crashpad8internal22ReadMinidumpStringListEPNS_19FileReaderInterfaceERK28MINIDUMP_LOCATION_DESCRIPTORPNSt3__16vectorINS6_12basic_stringIcNS6_11char_traitsIcEENS6_9allocatorIcEEEENSB_ISD_EEEE, symObjAddr: 0x0, symBinAddr: 0x3D80C, symSize: 0x2B8 }
  - { offset: 0x830DB, size: 0x8, addend: 0x0, symName: __ZNSt3__16vectorIjNS_9allocatorIjEEEC2B8ne190102Em, symObjAddr: 0x708, symBinAddr: 0x3DAC4, symSize: 0x74 }
  - { offset: 0x8326F, size: 0x8, addend: 0x0, symName: __ZNSt3__16vectorINS_12basic_stringIcNS_11char_traitsIcEENS_9allocatorIcEEEENS4_IS6_EEE21__push_back_slow_pathIRKS6_EEPS6_OT_, symObjAddr: 0x844, symBinAddr: 0x3DB78, symSize: 0x140 }
  - { offset: 0x8381D, size: 0x8, addend: 0x0, symName: __ZNSt3__16vectorIjNS_9allocatorIjEEE11__vallocateB8ne190102Em, symObjAddr: 0x77C, symBinAddr: 0x3DB38, symSize: 0x40 }
  - { offset: 0x83A3E, size: 0x8, addend: 0x0, symName: __ZN8crashpad8internal22ReadMinidumpUTF8StringEPNS_19FileReaderInterfaceEjPNSt3__112basic_stringIcNS3_11char_traitsIcEENS3_9allocatorIcEEEE, symObjAddr: 0x0, symBinAddr: 0x3DCB8, symSize: 0x118 }
  - { offset: 0x83AC3, size: 0x8, addend: 0x0, symName: __ZN8crashpad8internal22ReadMinidumpUTF8StringEPNS_19FileReaderInterfaceEjPNSt3__112basic_stringIcNS3_11char_traitsIcEENS3_9allocatorIcEEEE, symObjAddr: 0x0, symBinAddr: 0x3DCB8, symSize: 0x118 }
  - { offset: 0x83E28, size: 0x8, addend: 0x0, symName: __ZN8crashpad8internal22ReadMinidumpUTF8StringEPNS_19FileReaderInterfaceEyPNSt3__112basic_stringIcNS3_11char_traitsIcEENS3_9allocatorIcEEEE, symObjAddr: 0x118, symBinAddr: 0x3DDD0, symSize: 0x114 }
  - { offset: 0x840FD, size: 0x8, addend: 0x0, symName: __ZN8crashpad8internal23ReadMinidumpUTF16StringEPNS_19FileReaderInterfaceEjPNSt3__112basic_stringIDsNS3_11char_traitsIDsEENS3_9allocatorIDsEEEE, symObjAddr: 0x22C, symBinAddr: 0x3DEE4, symSize: 0x4 }
  - { offset: 0x84112, size: 0x8, addend: 0x0, symName: __ZN8crashpad8internal23ReadMinidumpUTF16StringEPNS_19FileReaderInterfaceEjPNSt3__112basic_stringIDsNS3_11char_traitsIDsEENS3_9allocatorIDsEEEE, symObjAddr: 0x22C, symBinAddr: 0x3DEE4, symSize: 0x4 }
  - { offset: 0x8411C, size: 0x8, addend: 0x0, symName: __ZN8crashpad8internal12_GLOBAL__N_118ReadMinidumpStringINSt3__112basic_stringIDsNS3_11char_traitsIDsEENS3_9allocatorIDsEEEEjEEbPNS_19FileReaderInterfaceET0_PT_, symObjAddr: 0x230, symBinAddr: 0x3DEE8, symSize: 0x11C }
  - { offset: 0x84444, size: 0x8, addend: 0x0, symName: __ZNSt3__112basic_stringIDsNS_11char_traitsIDsEENS_9allocatorIDsEEEC2B8ne190102EmDs, symObjAddr: 0x6D8, symBinAddr: 0x3E240, symSize: 0x1A0 }
  - { offset: 0x8450F, size: 0x8, addend: 0x0, symName: __ZN8crashpad8internal23ReadMinidumpUTF16StringEPNS_19FileReaderInterfaceEyPNSt3__112basic_stringIDsNS3_11char_traitsIDsEENS3_9allocatorIDsEEEE, symObjAddr: 0x34C, symBinAddr: 0x3E004, symSize: 0x4 }
  - { offset: 0x84524, size: 0x8, addend: 0x0, symName: __ZN8crashpad8internal23ReadMinidumpUTF16StringEPNS_19FileReaderInterfaceEyPNSt3__112basic_stringIDsNS3_11char_traitsIDsEENS3_9allocatorIDsEEEE, symObjAddr: 0x34C, symBinAddr: 0x3E004, symSize: 0x4 }
  - { offset: 0x8452E, size: 0x8, addend: 0x0, symName: __ZN8crashpad8internal12_GLOBAL__N_118ReadMinidumpStringINSt3__112basic_stringIDsNS3_11char_traitsIDsEENS3_9allocatorIDsEEEEyEEbPNS_19FileReaderInterfaceET0_PT_, symObjAddr: 0x350, symBinAddr: 0x3E008, symSize: 0x118 }
  - { offset: 0x8481A, size: 0x8, addend: 0x0, symName: __ZN8crashpad8internal23ReadMinidumpUTF16StringEPNS_19FileReaderInterfaceEjPNSt3__112basic_stringIcNS3_11char_traitsIcEENS3_9allocatorIcEEEE, symObjAddr: 0x468, symBinAddr: 0x3E120, symSize: 0x90 }
  - { offset: 0x84A79, size: 0x8, addend: 0x0, symName: __ZN8crashpad8internal23ReadMinidumpUTF16StringEPNS_19FileReaderInterfaceEyPNSt3__112basic_stringIcNS3_11char_traitsIcEENS3_9allocatorIcEEEE, symObjAddr: 0x4F8, symBinAddr: 0x3E1B0, symSize: 0x90 }
  - { offset: 0x84D7C, size: 0x8, addend: 0x0, symName: __ZNSt3__119__allocate_at_leastB8ne190102INS_9allocatorIDsEEEENS_19__allocation_resultINS_16allocator_traitsIT_E7pointerEEERS5_m, symObjAddr: 0x88C, symBinAddr: 0x3E3E0, symSize: 0x30 }
  - { offset: 0x84DDB, size: 0x8, addend: 0x0, symName: __ZNSt3__119__allocate_at_leastB8ne190102INS_9allocatorIDsEEEENS_19__allocation_resultINS_16allocator_traitsIT_E7pointerEEERS5_m, symObjAddr: 0x88C, symBinAddr: 0x3E3E0, symSize: 0x30 }
  - { offset: 0x84E56, size: 0x8, addend: 0x0, symName: __ZN8crashpad8internal20MinidumpStringWriterINS0_31MinidumpStringWriterUTF16TraitsEEC2Ev, symObjAddr: 0x0, symBinAddr: 0x3E410, symSize: 0x5C }
  - { offset: 0x84F3A, size: 0x8, addend: 0x0, symName: __ZN8crashpad8internal20MinidumpStringWriterINS0_31MinidumpStringWriterUTF16TraitsEEC1Ev, symObjAddr: 0x5C, symBinAddr: 0x3E46C, symSize: 0x4 }
  - { offset: 0x84F4F, size: 0x8, addend: 0x0, symName: __ZN8crashpad8internal20MinidumpStringWriterINS0_31MinidumpStringWriterUTF16TraitsEEC1Ev, symObjAddr: 0x5C, symBinAddr: 0x3E46C, symSize: 0x4 }
  - { offset: 0x84FA7, size: 0x8, addend: 0x0, symName: __ZN8crashpad8internal20MinidumpStringWriterINS0_31MinidumpStringWriterUTF16TraitsEED2Ev, symObjAddr: 0x60, symBinAddr: 0x3E470, symSize: 0x50 }
  - { offset: 0x850D0, size: 0x8, addend: 0x0, symName: __ZN8crashpad8internal20MinidumpStringWriterINS0_31MinidumpStringWriterUTF16TraitsEED1Ev, symObjAddr: 0xB0, symBinAddr: 0x3E4C0, symSize: 0x4 }
  - { offset: 0x850E5, size: 0x8, addend: 0x0, symName: __ZN8crashpad8internal20MinidumpStringWriterINS0_31MinidumpStringWriterUTF16TraitsEED1Ev, symObjAddr: 0xB0, symBinAddr: 0x3E4C0, symSize: 0x4 }
  - { offset: 0x850F5, size: 0x8, addend: 0x0, symName: __ZN8crashpad8internal20MinidumpStringWriterINS0_31MinidumpStringWriterUTF16TraitsEED0Ev, symObjAddr: 0xB4, symBinAddr: 0x3E4C4, symSize: 0x14 }
  - { offset: 0x85158, size: 0x8, addend: 0x0, symName: __ZN8crashpad8internal20MinidumpStringWriterINS0_31MinidumpStringWriterUTF16TraitsEE6FreezeEv, symObjAddr: 0xC8, symBinAddr: 0x3E4D8, symSize: 0x120 }
  - { offset: 0x85554, size: 0x8, addend: 0x0, symName: __ZN8crashpad8internal20MinidumpStringWriterINS0_31MinidumpStringWriterUTF16TraitsEE12SizeOfObjectEv, symObjAddr: 0x1E8, symBinAddr: 0x3E5F8, symSize: 0x90 }
  - { offset: 0x8567C, size: 0x8, addend: 0x0, symName: __ZN8crashpad8internal20MinidumpStringWriterINS0_31MinidumpStringWriterUTF16TraitsEE11WriteObjectEPNS_19FileWriterInterfaceE, symObjAddr: 0x278, symBinAddr: 0x3E688, symSize: 0x1CC }
  - { offset: 0x85BC2, size: 0x8, addend: 0x0, symName: __ZNSt3__112basic_stringIDsNS_11char_traitsIDsEENS_9allocatorIDsEEEaSERKS5_, symObjAddr: 0x153C, symBinAddr: 0x3F238, symSize: 0x50 }
  - { offset: 0x85BE5, size: 0x8, addend: 0x0, symName: __ZN8crashpad8internal20MinidumpStringWriterINS0_31MinidumpStringWriterUTF16TraitsEE10set_stringERKNSt3__112basic_stringIDsNS4_11char_traitsIDsEENS4_9allocatorIDsEEEE, symObjAddr: 0x444, symBinAddr: 0x3E854, symSize: 0x8 }
  - { offset: 0x85C18, size: 0x8, addend: 0x0, symName: __ZNSt3__112basic_stringIDsNS_11char_traitsIDsEENS_9allocatorIDsEEEaSERKS5_, symObjAddr: 0x153C, symBinAddr: 0x3F238, symSize: 0x50 }
  - { offset: 0x85CC5, size: 0x8, addend: 0x0, symName: __ZNK8crashpad8internal20MinidumpStringWriterINS0_31MinidumpStringWriterUTF16TraitsEE6stringEv, symObjAddr: 0x44C, symBinAddr: 0x3E85C, symSize: 0x8 }
  - { offset: 0x85D12, size: 0x8, addend: 0x0, symName: __ZN8crashpad8internal20MinidumpStringWriterINS0_30MinidumpStringWriterUTF8TraitsEEC2Ev, symObjAddr: 0x454, symBinAddr: 0x3E864, symSize: 0x5C }
  - { offset: 0x85DF6, size: 0x8, addend: 0x0, symName: __ZN8crashpad8internal20MinidumpStringWriterINS0_30MinidumpStringWriterUTF8TraitsEEC1Ev, symObjAddr: 0x4B0, symBinAddr: 0x3E8C0, symSize: 0x4 }
  - { offset: 0x85E0B, size: 0x8, addend: 0x0, symName: __ZN8crashpad8internal20MinidumpStringWriterINS0_30MinidumpStringWriterUTF8TraitsEEC1Ev, symObjAddr: 0x4B0, symBinAddr: 0x3E8C0, symSize: 0x4 }
  - { offset: 0x85E51, size: 0x8, addend: 0x0, symName: __ZN8crashpad8internal20MinidumpStringWriterINS0_30MinidumpStringWriterUTF8TraitsEED2Ev, symObjAddr: 0x4B4, symBinAddr: 0x3E8C4, symSize: 0x50 }
  - { offset: 0x85F7A, size: 0x8, addend: 0x0, symName: __ZN8crashpad8internal20MinidumpStringWriterINS0_30MinidumpStringWriterUTF8TraitsEED1Ev, symObjAddr: 0x504, symBinAddr: 0x3E914, symSize: 0x4 }
  - { offset: 0x85F8F, size: 0x8, addend: 0x0, symName: __ZN8crashpad8internal20MinidumpStringWriterINS0_30MinidumpStringWriterUTF8TraitsEED1Ev, symObjAddr: 0x504, symBinAddr: 0x3E914, symSize: 0x4 }
  - { offset: 0x85F9F, size: 0x8, addend: 0x0, symName: __ZN8crashpad8internal20MinidumpStringWriterINS0_30MinidumpStringWriterUTF8TraitsEED0Ev, symObjAddr: 0x508, symBinAddr: 0x3E918, symSize: 0x14 }
  - { offset: 0x85FE4, size: 0x8, addend: 0x0, symName: __ZN8crashpad8internal20MinidumpStringWriterINS0_30MinidumpStringWriterUTF8TraitsEE6FreezeEv, symObjAddr: 0x51C, symBinAddr: 0x3E92C, symSize: 0x11C }
  - { offset: 0x860D8, size: 0x8, addend: 0x0, symName: __ZN8crashpad8internal20MinidumpStringWriterINS0_30MinidumpStringWriterUTF8TraitsEE12SizeOfObjectEv, symObjAddr: 0x638, symBinAddr: 0x3EA48, symSize: 0x8C }
  - { offset: 0x86170, size: 0x8, addend: 0x0, symName: __ZN8crashpad8internal20MinidumpStringWriterINS0_30MinidumpStringWriterUTF8TraitsEE11WriteObjectEPNS_19FileWriterInterfaceE, symObjAddr: 0x6C4, symBinAddr: 0x3EAD4, symSize: 0x1C8 }
  - { offset: 0x865E3, size: 0x8, addend: 0x0, symName: __ZN8crashpad8internal20MinidumpStringWriterINS0_30MinidumpStringWriterUTF8TraitsEE10set_stringERKNSt3__112basic_stringIcNS4_11char_traitsIcEENS4_9allocatorIcEEEE, symObjAddr: 0x88C, symBinAddr: 0x3EC9C, symSize: 0x8 }
  - { offset: 0x86609, size: 0x8, addend: 0x0, symName: __ZNK8crashpad8internal20MinidumpStringWriterINS0_30MinidumpStringWriterUTF8TraitsEE6stringEv, symObjAddr: 0x894, symBinAddr: 0x3ECA4, symSize: 0x8 }
  - { offset: 0x8661A, size: 0x8, addend: 0x0, symName: __ZN8crashpad8internal24MinidumpStringListWriterINS0_25MinidumpUTF16StringWriterEEC2Ev, symObjAddr: 0x89C, symBinAddr: 0x3ECAC, symSize: 0x24 }
  - { offset: 0x86631, size: 0x8, addend: 0x0, symName: __ZN8crashpad8internal24MinidumpStringListWriterINS0_25MinidumpUTF16StringWriterEEC1Ev, symObjAddr: 0x8C0, symBinAddr: 0x3ECD0, symSize: 0x24 }
  - { offset: 0x86657, size: 0x8, addend: 0x0, symName: __ZN8crashpad8internal24MinidumpStringListWriterINS0_25MinidumpUTF16StringWriterEED2Ev, symObjAddr: 0x8E4, symBinAddr: 0x3ECF4, symSize: 0x4 }
  - { offset: 0x8666E, size: 0x8, addend: 0x0, symName: __ZN8crashpad8internal24MinidumpStringListWriterINS0_25MinidumpUTF16StringWriterEED1Ev, symObjAddr: 0x8E8, symBinAddr: 0x3ECF8, symSize: 0x4 }
  - { offset: 0x86683, size: 0x8, addend: 0x0, symName: __ZN8crashpad8internal24MinidumpStringListWriterINS0_25MinidumpUTF16StringWriterEED1Ev, symObjAddr: 0x8E8, symBinAddr: 0x3ECF8, symSize: 0x4 }
  - { offset: 0x8669A, size: 0x8, addend: 0x0, symName: __ZN8crashpad8internal24MinidumpStringListWriterINS0_25MinidumpUTF16StringWriterEED0Ev, symObjAddr: 0x8EC, symBinAddr: 0x3ECFC, symSize: 0x14 }
  - { offset: 0x866ED, size: 0x8, addend: 0x0, symName: __ZN8crashpad8internal24MinidumpStringListWriterINS0_25MinidumpUTF16StringWriterEE20InitializeFromVectorERKNSt3__16vectorINS4_12basic_stringIcNS4_11char_traitsIcEENS4_9allocatorIcEEEENS9_ISB_EEEE, symObjAddr: 0x900, symBinAddr: 0x3ED10, symSize: 0x110 }
  - { offset: 0x867E0, size: 0x8, addend: 0x0, symName: __ZN8crashpad8internal24MinidumpStringListWriterINS0_25MinidumpUTF16StringWriterEE13AddStringUTF8ERKNSt3__112basic_stringIcNS4_11char_traitsIcEENS4_9allocatorIcEEEE, symObjAddr: 0xA10, symBinAddr: 0x3EE20, symSize: 0xC4 }
  - { offset: 0x86A66, size: 0x8, addend: 0x0, symName: __ZN8crashpad8internal25MinidumpUTF16StringWriter7SetUTF8ERKNSt3__112basic_stringIcNS2_11char_traitsIcEENS2_9allocatorIcEEEE, symObjAddr: 0xAD4, symBinAddr: 0x3EEE4, symSize: 0xC4 }
  - { offset: 0x86C6B, size: 0x8, addend: 0x0, symName: __ZNK8crashpad8internal24MinidumpStringListWriterINS0_25MinidumpUTF16StringWriterEE8IsUsefulEv, symObjAddr: 0xB98, symBinAddr: 0x3EFA8, symSize: 0x10 }
  - { offset: 0x86C80, size: 0x8, addend: 0x0, symName: __ZNK8crashpad8internal24MinidumpStringListWriterINS0_25MinidumpUTF16StringWriterEE8IsUsefulEv, symObjAddr: 0xB98, symBinAddr: 0x3EFA8, symSize: 0x10 }
  - { offset: 0x86C94, size: 0x8, addend: 0x0, symName: __ZNK8crashpad8internal24MinidumpStringListWriterINS0_25MinidumpUTF16StringWriterEE8IsUsefulEv, symObjAddr: 0xB98, symBinAddr: 0x3EFA8, symSize: 0x10 }
  - { offset: 0x86CA6, size: 0x8, addend: 0x0, symName: __ZN8crashpad8internal24MinidumpStringListWriterINS0_24MinidumpUTF8StringWriterEEC2Ev, symObjAddr: 0xBA8, symBinAddr: 0x3EFB8, symSize: 0x24 }
  - { offset: 0x86CBD, size: 0x8, addend: 0x0, symName: __ZN8crashpad8internal24MinidumpStringListWriterINS0_24MinidumpUTF8StringWriterEEC1Ev, symObjAddr: 0xBCC, symBinAddr: 0x3EFDC, symSize: 0x24 }
  - { offset: 0x86CE3, size: 0x8, addend: 0x0, symName: __ZN8crashpad8internal24MinidumpStringListWriterINS0_24MinidumpUTF8StringWriterEED2Ev, symObjAddr: 0xBF0, symBinAddr: 0x3F000, symSize: 0x4 }
  - { offset: 0x86CFA, size: 0x8, addend: 0x0, symName: __ZN8crashpad8internal24MinidumpStringListWriterINS0_24MinidumpUTF8StringWriterEED1Ev, symObjAddr: 0xBF4, symBinAddr: 0x3F004, symSize: 0x4 }
  - { offset: 0x86D0F, size: 0x8, addend: 0x0, symName: __ZN8crashpad8internal24MinidumpStringListWriterINS0_24MinidumpUTF8StringWriterEED1Ev, symObjAddr: 0xBF4, symBinAddr: 0x3F004, symSize: 0x4 }
  - { offset: 0x86D26, size: 0x8, addend: 0x0, symName: __ZN8crashpad8internal24MinidumpStringListWriterINS0_24MinidumpUTF8StringWriterEED0Ev, symObjAddr: 0xBF8, symBinAddr: 0x3F008, symSize: 0x14 }
  - { offset: 0x86D61, size: 0x8, addend: 0x0, symName: __ZN8crashpad8internal24MinidumpStringListWriterINS0_24MinidumpUTF8StringWriterEE20InitializeFromVectorERKNSt3__16vectorINS4_12basic_stringIcNS4_11char_traitsIcEENS4_9allocatorIcEEEENS9_ISB_EEEE, symObjAddr: 0xC0C, symBinAddr: 0x3F01C, symSize: 0x110 }
  - { offset: 0x86E54, size: 0x8, addend: 0x0, symName: __ZN8crashpad8internal24MinidumpStringListWriterINS0_24MinidumpUTF8StringWriterEE13AddStringUTF8ERKNSt3__112basic_stringIcNS4_11char_traitsIcEENS4_9allocatorIcEEEE, symObjAddr: 0xD1C, symBinAddr: 0x3F12C, symSize: 0xC4 }
  - { offset: 0x870FF, size: 0x8, addend: 0x0, symName: __ZNK8crashpad8internal24MinidumpStringListWriterINS0_24MinidumpUTF8StringWriterEE8IsUsefulEv, symObjAddr: 0xDE0, symBinAddr: 0x3F1F0, symSize: 0x10 }
  - { offset: 0x87114, size: 0x8, addend: 0x0, symName: __ZNK8crashpad8internal24MinidumpStringListWriterINS0_24MinidumpUTF8StringWriterEE8IsUsefulEv, symObjAddr: 0xDE0, symBinAddr: 0x3F1F0, symSize: 0x10 }
  - { offset: 0x87128, size: 0x8, addend: 0x0, symName: __ZNK8crashpad8internal24MinidumpStringListWriterINS0_24MinidumpUTF8StringWriterEE8IsUsefulEv, symObjAddr: 0xDE0, symBinAddr: 0x3F1F0, symSize: 0x10 }
  - { offset: 0x8713A, size: 0x8, addend: 0x0, symName: __ZN8crashpad8internal25MinidumpUTF16StringWriterD2Ev, symObjAddr: 0xDF0, symBinAddr: 0x3F200, symSize: 0x4 }
  - { offset: 0x8714F, size: 0x8, addend: 0x0, symName: __ZN8crashpad8internal25MinidumpUTF16StringWriterD2Ev, symObjAddr: 0xDF0, symBinAddr: 0x3F200, symSize: 0x4 }
  - { offset: 0x87159, size: 0x8, addend: 0x0, symName: __ZN8crashpad8internal25MinidumpUTF16StringWriterD1Ev, symObjAddr: 0xDF4, symBinAddr: 0x3F204, symSize: 0x4 }
  - { offset: 0x8716E, size: 0x8, addend: 0x0, symName: __ZN8crashpad8internal25MinidumpUTF16StringWriterD1Ev, symObjAddr: 0xDF4, symBinAddr: 0x3F204, symSize: 0x4 }
  - { offset: 0x87182, size: 0x8, addend: 0x0, symName: __ZN8crashpad8internal25MinidumpUTF16StringWriterD1Ev, symObjAddr: 0xDF4, symBinAddr: 0x3F204, symSize: 0x4 }
  - { offset: 0x8718C, size: 0x8, addend: 0x0, symName: __ZN8crashpad8internal25MinidumpUTF16StringWriterD0Ev, symObjAddr: 0xDF8, symBinAddr: 0x3F208, symSize: 0x14 }
  - { offset: 0x871D4, size: 0x8, addend: 0x0, symName: __ZN8crashpad8internal24MinidumpUTF8StringWriterD2Ev, symObjAddr: 0xE0C, symBinAddr: 0x3F21C, symSize: 0x4 }
  - { offset: 0x871E9, size: 0x8, addend: 0x0, symName: __ZN8crashpad8internal24MinidumpUTF8StringWriterD2Ev, symObjAddr: 0xE0C, symBinAddr: 0x3F21C, symSize: 0x4 }
  - { offset: 0x871F3, size: 0x8, addend: 0x0, symName: __ZN8crashpad8internal24MinidumpUTF8StringWriterD1Ev, symObjAddr: 0xE10, symBinAddr: 0x3F220, symSize: 0x4 }
  - { offset: 0x87208, size: 0x8, addend: 0x0, symName: __ZN8crashpad8internal24MinidumpUTF8StringWriterD1Ev, symObjAddr: 0xE10, symBinAddr: 0x3F220, symSize: 0x4 }
  - { offset: 0x8721C, size: 0x8, addend: 0x0, symName: __ZN8crashpad8internal24MinidumpUTF8StringWriterD1Ev, symObjAddr: 0xE10, symBinAddr: 0x3F220, symSize: 0x4 }
  - { offset: 0x87226, size: 0x8, addend: 0x0, symName: __ZN8crashpad8internal24MinidumpUTF8StringWriterD0Ev, symObjAddr: 0xE14, symBinAddr: 0x3F224, symSize: 0x14 }
  - { offset: 0x87696, size: 0x8, addend: 0x0, symName: __ZNSt3__112basic_stringIDsNS_11char_traitsIDsEENS_9allocatorIDsEEE17__assign_no_aliasILb0EEERS5_PKDsm, symObjAddr: 0x15FC, symBinAddr: 0x3F2F8, symSize: 0x88 }
  - { offset: 0x87749, size: 0x8, addend: 0x0, symName: __ZNSt3__112basic_stringIDsNS_11char_traitsIDsEENS_9allocatorIDsEEE17__assign_no_aliasILb1EEERS5_PKDsm, symObjAddr: 0x158C, symBinAddr: 0x3F288, symSize: 0x70 }
  - { offset: 0x877F0, size: 0x8, addend: 0x0, symName: __ZNSt3__112basic_stringIDsNS_11char_traitsIDsEENS_9allocatorIDsEEE21__grow_by_and_replaceEmmmmmmPKDs, symObjAddr: 0x1684, symBinAddr: 0x3F380, symSize: 0x148 }
  - { offset: 0x87A37, size: 0x8, addend: 0x0, symName: __ZN8crashpad24MinidumpSystemInfoWriterC2Ev, symObjAddr: 0x0, symBinAddr: 0x3F4C8, symSize: 0x34 }
  - { offset: 0x87AB7, size: 0x8, addend: 0x0, symName: __ZN8crashpad24MinidumpSystemInfoWriterC1Ev, symObjAddr: 0x34, symBinAddr: 0x3F4FC, symSize: 0x34 }
  - { offset: 0x87B52, size: 0x8, addend: 0x0, symName: __ZN8crashpad24MinidumpSystemInfoWriterD2Ev, symObjAddr: 0x68, symBinAddr: 0x3F530, symSize: 0x2C }
  - { offset: 0x87BB0, size: 0x8, addend: 0x0, symName: __ZN8crashpad24MinidumpSystemInfoWriterD1Ev, symObjAddr: 0x94, symBinAddr: 0x3F55C, symSize: 0x2C }
  - { offset: 0x87C14, size: 0x8, addend: 0x0, symName: __ZN8crashpad24MinidumpSystemInfoWriterD0Ev, symObjAddr: 0xC0, symBinAddr: 0x3F588, symSize: 0x30 }
  - { offset: 0x87D53, size: 0x8, addend: 0x0, symName: __ZN8crashpad24MinidumpSystemInfoWriter22InitializeFromSnapshotEPKNS_14SystemSnapshotE, symObjAddr: 0xF0, symBinAddr: 0x3F5B8, symSize: 0x54C }
  - { offset: 0x88699, size: 0x8, addend: 0x0, symName: __ZN8crashpad24MinidumpSystemInfoWriter21SetCPUX86VendorStringERKNSt3__112basic_stringIcNS1_11char_traitsIcEENS1_9allocatorIcEEEE, symObjAddr: 0x63C, symBinAddr: 0x3FB04, symSize: 0x104 }
  - { offset: 0x88738, size: 0x8, addend: 0x0, symName: __ZN8crashpad24MinidumpSystemInfoWriter27SetCPUX86VersionAndFeaturesEjj, symObjAddr: 0x740, symBinAddr: 0x3FC08, symSize: 0x104 }
  - { offset: 0x887CD, size: 0x8, addend: 0x0, symName: __ZN8crashpad24MinidumpSystemInfoWriter19SetCPUOtherFeaturesEyy, symObjAddr: 0x9CC, symBinAddr: 0x3FE94, symSize: 0x104 }
  - { offset: 0x88867, size: 0x8, addend: 0x0, symName: __ZN8crashpad24MinidumpSystemInfoWriter28SetCPUX86AMDExtendedFeaturesEj, symObjAddr: 0x844, symBinAddr: 0x3FD0C, symSize: 0x188 }
  - { offset: 0x88952, size: 0x8, addend: 0x0, symName: __ZN8crashpad24MinidumpSystemInfoWriter13SetCSDVersionERKNSt3__112basic_stringIcNS1_11char_traitsIcEENS1_9allocatorIcEEEE, symObjAddr: 0xAD0, symBinAddr: 0x3FF98, symSize: 0xD4 }
  - { offset: 0x88C4D, size: 0x8, addend: 0x0, symName: __ZN8crashpad24MinidumpSystemInfoWriter15SetCPUX86VendorEjjj, symObjAddr: 0xBCC, symBinAddr: 0x4006C, symSize: 0x10C }
  - { offset: 0x88CFA, size: 0x8, addend: 0x0, symName: __ZN8crashpad24MinidumpSystemInfoWriter6FreezeEv, symObjAddr: 0xCD8, symBinAddr: 0x40178, symSize: 0x108 }
  - { offset: 0x88DC4, size: 0x8, addend: 0x0, symName: __ZN8crashpad24MinidumpSystemInfoWriter12SizeOfObjectEv, symObjAddr: 0xDE0, symBinAddr: 0x40280, symSize: 0x7C }
  - { offset: 0x88E19, size: 0x8, addend: 0x0, symName: __ZN8crashpad24MinidumpSystemInfoWriter8ChildrenEv, symObjAddr: 0xE5C, symBinAddr: 0x402FC, symSize: 0x10C }
  - { offset: 0x88FB4, size: 0x8, addend: 0x0, symName: __ZN8crashpad24MinidumpSystemInfoWriter11WriteObjectEPNS_19FileWriterInterfaceE, symObjAddr: 0xF68, symBinAddr: 0x40408, symSize: 0xA0 }
  - { offset: 0x89008, size: 0x8, addend: 0x0, symName: __ZNK8crashpad24MinidumpSystemInfoWriter10StreamTypeEv, symObjAddr: 0x1008, symBinAddr: 0x404A8, symSize: 0x8 }
  - { offset: 0x895BB, size: 0x8, addend: 0x0, symName: __ZN8crashpad24BuildMinidumpThreadIDMapERKNSt3__16vectorIPKNS_14ThreadSnapshotENS0_9allocatorIS4_EEEEPNS0_3mapIyjNS0_4lessIyEENS5_INS0_4pairIKyjEEEEEE, symObjAddr: 0x0, symBinAddr: 0x404B0, symSize: 0x288 }
  - { offset: 0x89C5A, size: 0x8, addend: 0x0, symName: __ZNSt3__16__treeINS_12__value_typeIyjEENS_19__map_value_compareIyS2_NS_4lessIyEELb1EEENS_9allocatorIS2_EEE25__emplace_unique_key_argsIyJNS_4pairIyjEEEEENSB_INS_15__tree_iteratorIS2_PNS_11__tree_nodeIS2_PvEElEEbEERKT_DpOT0_, symObjAddr: 0x94C, symBinAddr: 0x40738, symSize: 0xC0 }
  - { offset: 0x8A5AB, size: 0x8, addend: 0x0, symName: __ZN8crashpad24MinidumpThreadNameWriterC2Ev, symObjAddr: 0x0, symBinAddr: 0x407F8, symSize: 0x2C }
  - { offset: 0x8A62B, size: 0x8, addend: 0x0, symName: __ZN8crashpad24MinidumpThreadNameWriterC1Ev, symObjAddr: 0x2C, symBinAddr: 0x40824, symSize: 0x2C }
  - { offset: 0x8A6C6, size: 0x8, addend: 0x0, symName: __ZN8crashpad24MinidumpThreadNameWriterD2Ev, symObjAddr: 0x58, symBinAddr: 0x40850, symSize: 0x2C }
  - { offset: 0x8A724, size: 0x8, addend: 0x0, symName: __ZN8crashpad24MinidumpThreadNameWriterD1Ev, symObjAddr: 0x84, symBinAddr: 0x4087C, symSize: 0x2C }
  - { offset: 0x8A788, size: 0x8, addend: 0x0, symName: __ZN8crashpad24MinidumpThreadNameWriterD0Ev, symObjAddr: 0xB0, symBinAddr: 0x408A8, symSize: 0x30 }
  - { offset: 0x8A879, size: 0x8, addend: 0x0, symName: __ZN8crashpad24MinidumpThreadNameWriter22InitializeFromSnapshotEPKNS_14ThreadSnapshotERKNSt3__13mapIyjNS4_4lessIyEENS4_9allocatorINS4_4pairIKyjEEEEEE, symObjAddr: 0xE0, symBinAddr: 0x408D8, symSize: 0x18C }
  - { offset: 0x8AE65, size: 0x8, addend: 0x0, symName: __ZN8crashpad24MinidumpThreadNameWriter13SetThreadNameERKNSt3__112basic_stringIcNS1_11char_traitsIcEENS1_9allocatorIcEEEE, symObjAddr: 0x26C, symBinAddr: 0x40A64, symSize: 0xD4 }
  - { offset: 0x8AF22, size: 0x8, addend: 0x0, symName: __ZNK8crashpad24MinidumpThreadNameWriter15RvaOfThreadNameEv, symObjAddr: 0x340, symBinAddr: 0x40B38, symSize: 0x80 }
  - { offset: 0x8AF69, size: 0x8, addend: 0x0, symName: __ZNK8crashpad24MinidumpThreadNameWriter8ThreadIdEv, symObjAddr: 0x3C0, symBinAddr: 0x40BB8, symSize: 0x80 }
  - { offset: 0x8AFB0, size: 0x8, addend: 0x0, symName: __ZN8crashpad24MinidumpThreadNameWriter6FreezeEv, symObjAddr: 0x440, symBinAddr: 0x40C38, symSize: 0x88 }
  - { offset: 0x8B017, size: 0x8, addend: 0x0, symName: __ZN8crashpad24MinidumpThreadNameWriter12SizeOfObjectEv, symObjAddr: 0x4F0, symBinAddr: 0x40CC0, symSize: 0x7C }
  - { offset: 0x8B0DC, size: 0x8, addend: 0x0, symName: __ZN8crashpad24MinidumpThreadNameWriter8ChildrenEv, symObjAddr: 0x56C, symBinAddr: 0x40D3C, symSize: 0x164 }
  - { offset: 0x8B43A, size: 0x8, addend: 0x0, symName: __ZNSt3__16vectorINS_10unique_ptrIN8crashpad24MinidumpThreadNameWriterENS_14default_deleteIS3_EEEENS_9allocatorIS6_EEE16__destroy_vectorclB8ne190102Ev, symObjAddr: 0x1A1C, symBinAddr: 0x41A78, symSize: 0x74 }
  - { offset: 0x8B444, size: 0x8, addend: 0x0, symName: __ZN8crashpad24MinidumpThreadNameWriter11WriteObjectEPNS_19FileWriterInterfaceE, symObjAddr: 0x6D0, symBinAddr: 0x40EA0, symSize: 0x7C }
  - { offset: 0x8B497, size: 0x8, addend: 0x0, symName: __ZN8crashpad28MinidumpThreadNameListWriterC2Ev, symObjAddr: 0x74C, symBinAddr: 0x40F1C, symSize: 0x28 }
  - { offset: 0x8B4D9, size: 0x8, addend: 0x0, symName: __ZN8crashpad28MinidumpThreadNameListWriterC1Ev, symObjAddr: 0x774, symBinAddr: 0x40F44, symSize: 0x28 }
  - { offset: 0x8B542, size: 0x8, addend: 0x0, symName: __ZN8crashpad28MinidumpThreadNameListWriterD2Ev, symObjAddr: 0x79C, symBinAddr: 0x40F6C, symSize: 0x3C }
  - { offset: 0x8B5B7, size: 0x8, addend: 0x0, symName: __ZNSt3__16vectorINS_10unique_ptrIN8crashpad24MinidumpThreadNameWriterENS_14default_deleteIS3_EEEENS_9allocatorIS6_EEE16__destroy_vectorclB8ne190102Ev, symObjAddr: 0x1A1C, symBinAddr: 0x41A78, symSize: 0x74 }
  - { offset: 0x8B6BA, size: 0x8, addend: 0x0, symName: __ZN8crashpad28MinidumpThreadNameListWriterD1Ev, symObjAddr: 0x7D8, symBinAddr: 0x40FA8, symSize: 0x3C }
  - { offset: 0x8B74A, size: 0x8, addend: 0x0, symName: __ZN8crashpad28MinidumpThreadNameListWriterD0Ev, symObjAddr: 0x814, symBinAddr: 0x40FE4, symSize: 0x40 }
  - { offset: 0x8B843, size: 0x8, addend: 0x0, symName: __ZN8crashpad28MinidumpThreadNameListWriter22InitializeFromSnapshotERKNSt3__16vectorIPKNS_14ThreadSnapshotENS1_9allocatorIS5_EEEERKNS1_3mapIyjNS1_4lessIyEENS6_INS1_4pairIKyjEEEEEE, symObjAddr: 0x854, symBinAddr: 0x41024, symSize: 0x1C0 }
  - { offset: 0x8BB51, size: 0x8, addend: 0x0, symName: __ZN8crashpad28MinidumpThreadNameListWriter13AddThreadNameENSt3__110unique_ptrINS_24MinidumpThreadNameWriterENS1_14default_deleteIS3_EEEE, symObjAddr: 0xA14, symBinAddr: 0x411E4, symSize: 0x154 }
  - { offset: 0x8BE50, size: 0x8, addend: 0x0, symName: __ZN8crashpad28MinidumpThreadNameListWriter6FreezeEv, symObjAddr: 0xB68, symBinAddr: 0x41338, symSize: 0x11C }
  - { offset: 0x8BE5A, size: 0x8, addend: 0x0, symName: __ZNSt3__110unique_ptrIN8crashpad24MinidumpThreadNameWriterENS_14default_deleteIS2_EEE5resetB8ne190102EPS2_, symObjAddr: 0x1A90, symBinAddr: 0x41AEC, symSize: 0x44 }
  - { offset: 0x8BF7F, size: 0x8, addend: 0x0, symName: __ZNSt3__114__split_bufferINS_10unique_ptrIN8crashpad24MinidumpThreadNameWriterENS_14default_deleteIS3_EEEERNS_9allocatorIS6_EEED2Ev, symObjAddr: 0x1B1C, symBinAddr: 0x41B30, symSize: 0x50 }
  - { offset: 0x8BF89, size: 0x8, addend: 0x0, symName: __ZNSt3__114__split_bufferINS_10unique_ptrIN8crashpad24MinidumpThreadNameWriterENS_14default_deleteIS3_EEEERNS_9allocatorIS6_EEED2Ev, symObjAddr: 0x1B1C, symBinAddr: 0x41B30, symSize: 0x50 }
  - { offset: 0x8C0C3, size: 0x8, addend: 0x0, symName: __ZN8crashpad28MinidumpThreadNameListWriter6FreezeEv, symObjAddr: 0xB68, symBinAddr: 0x41338, symSize: 0x11C }
  - { offset: 0x8C170, size: 0x8, addend: 0x0, symName: __ZN8crashpad28MinidumpThreadNameListWriter12SizeOfObjectEv, symObjAddr: 0xC84, symBinAddr: 0x41454, symSize: 0x94 }
  - { offset: 0x8C20D, size: 0x8, addend: 0x0, symName: __ZN8crashpad28MinidumpThreadNameListWriter8ChildrenEv, symObjAddr: 0xD18, symBinAddr: 0x414E8, symSize: 0x1A8 }
  - { offset: 0x8C648, size: 0x8, addend: 0x0, symName: __ZN8crashpad28MinidumpThreadNameListWriter11WriteObjectEPNS_19FileWriterInterfaceE, symObjAddr: 0xF50, symBinAddr: 0x41690, symSize: 0x330 }
  - { offset: 0x8C785, size: 0x8, addend: 0x0, symName: __ZN8crashpad28MinidumpThreadNameListWriter11WriteObjectEPNS_19FileWriterInterfaceE, symObjAddr: 0xF50, symBinAddr: 0x41690, symSize: 0x330 }
  - { offset: 0x8D169, size: 0x8, addend: 0x0, symName: __ZNSt3__16vectorI20MINIDUMP_THREAD_NAMENS_9allocatorIS1_EEE7reserveEm, symObjAddr: 0x1310, symBinAddr: 0x419C0, symSize: 0xB0 }
  - { offset: 0x8D173, size: 0x8, addend: 0x0, symName: __ZNSt3__16vectorI20MINIDUMP_THREAD_NAMENS_9allocatorIS1_EEE7reserveEm, symObjAddr: 0x1310, symBinAddr: 0x419C0, symSize: 0xB0 }
  - { offset: 0x8D2D7, size: 0x8, addend: 0x0, symName: __ZNK8crashpad28MinidumpThreadNameListWriter10StreamTypeEv, symObjAddr: 0x13C0, symBinAddr: 0x41A70, symSize: 0x8 }
  - { offset: 0x8D363, size: 0x8, addend: 0x0, symName: __ZNK8crashpad28MinidumpThreadNameListWriter10StreamTypeEv, symObjAddr: 0x13C0, symBinAddr: 0x41A70, symSize: 0x8 }
  - { offset: 0x8D849, size: 0x8, addend: 0x0, symName: __ZN8crashpad20MinidumpThreadWriterC2Ev, symObjAddr: 0x0, symBinAddr: 0x41B80, symSize: 0x34 }
  - { offset: 0x8D8C9, size: 0x8, addend: 0x0, symName: __ZN8crashpad20MinidumpThreadWriterC1Ev, symObjAddr: 0x34, symBinAddr: 0x41BB4, symSize: 0x34 }
  - { offset: 0x8D988, size: 0x8, addend: 0x0, symName: __ZN8crashpad20MinidumpThreadWriterD2Ev, symObjAddr: 0x68, symBinAddr: 0x41BE8, symSize: 0x50 }
  - { offset: 0x8DA5C, size: 0x8, addend: 0x0, symName: __ZN8crashpad20MinidumpThreadWriterD1Ev, symObjAddr: 0xB8, symBinAddr: 0x41C38, symSize: 0x4 }
  - { offset: 0x8DA71, size: 0x8, addend: 0x0, symName: __ZN8crashpad20MinidumpThreadWriterD1Ev, symObjAddr: 0xB8, symBinAddr: 0x41C38, symSize: 0x4 }
  - { offset: 0x8DA81, size: 0x8, addend: 0x0, symName: __ZN8crashpad20MinidumpThreadWriterD0Ev, symObjAddr: 0xBC, symBinAddr: 0x41C3C, symSize: 0x14 }
  - { offset: 0x8DB5C, size: 0x8, addend: 0x0, symName: __ZN8crashpad20MinidumpThreadWriter22InitializeFromSnapshotEPKNS_14ThreadSnapshotEPKNSt3__13mapIyjNS4_4lessIyEENS4_9allocatorINS4_4pairIKyjEEEEEE, symObjAddr: 0xD0, symBinAddr: 0x41C50, symSize: 0x344 }
  - { offset: 0x8E420, size: 0x8, addend: 0x0, symName: __ZN8crashpad20MinidumpThreadWriter8SetStackENSt3__110unique_ptrINS_28SnapshotMinidumpMemoryWriterENS1_14default_deleteIS3_EEEE, symObjAddr: 0x414, symBinAddr: 0x41F94, symSize: 0xA0 }
  - { offset: 0x8E4C5, size: 0x8, addend: 0x0, symName: __ZN8crashpad20MinidumpThreadWriter10SetContextENSt3__110unique_ptrINS_21MinidumpContextWriterENS1_14default_deleteIS3_EEEE, symObjAddr: 0x4B4, symBinAddr: 0x42034, symSize: 0xA0 }
  - { offset: 0x8E5A8, size: 0x8, addend: 0x0, symName: __ZNK8crashpad20MinidumpThreadWriter14MinidumpThreadEv, symObjAddr: 0x554, symBinAddr: 0x420D4, symSize: 0x80 }
  - { offset: 0x8E5F5, size: 0x8, addend: 0x0, symName: __ZN8crashpad20MinidumpThreadWriter6FreezeEv, symObjAddr: 0x5D4, symBinAddr: 0x42154, symSize: 0x118 }
  - { offset: 0x8E6CC, size: 0x8, addend: 0x0, symName: __ZN8crashpad20MinidumpThreadWriter12SizeOfObjectEv, symObjAddr: 0x6EC, symBinAddr: 0x4226C, symSize: 0x7C }
  - { offset: 0x8E7C1, size: 0x8, addend: 0x0, symName: __ZN8crashpad20MinidumpThreadWriter8ChildrenEv, symObjAddr: 0x768, symBinAddr: 0x422E8, symSize: 0x23C }
  - { offset: 0x8ED11, size: 0x8, addend: 0x0, symName: __ZNSt3__16vectorINS_10unique_ptrIN8crashpad20MinidumpThreadWriterENS_14default_deleteIS3_EEEENS_9allocatorIS6_EEE16__destroy_vectorclB8ne190102Ev, symObjAddr: 0x1B3C, symBinAddr: 0x43068, symSize: 0x74 }
  - { offset: 0x8ED2E, size: 0x8, addend: 0x0, symName: __ZN8crashpad20MinidumpThreadWriter11WriteObjectEPNS_19FileWriterInterfaceE, symObjAddr: 0x9A4, symBinAddr: 0x42524, symSize: 0x7C }
  - { offset: 0x8ED75, size: 0x8, addend: 0x0, symName: __ZN8crashpad24MinidumpThreadListWriterC2Ev, symObjAddr: 0xA20, symBinAddr: 0x425A0, symSize: 0x2C }
  - { offset: 0x8ED8C, size: 0x8, addend: 0x0, symName: __ZN8crashpad24MinidumpThreadListWriterC1Ev, symObjAddr: 0xA4C, symBinAddr: 0x425CC, symSize: 0x2C }
  - { offset: 0x8EDCA, size: 0x8, addend: 0x0, symName: __ZN8crashpad24MinidumpThreadListWriterD2Ev, symObjAddr: 0xA78, symBinAddr: 0x425F8, symSize: 0x3C }
  - { offset: 0x8EE3F, size: 0x8, addend: 0x0, symName: __ZNSt3__16vectorINS_10unique_ptrIN8crashpad20MinidumpThreadWriterENS_14default_deleteIS3_EEEENS_9allocatorIS6_EEE16__destroy_vectorclB8ne190102Ev, symObjAddr: 0x1B3C, symBinAddr: 0x43068, symSize: 0x74 }
  - { offset: 0x8EF42, size: 0x8, addend: 0x0, symName: __ZN8crashpad24MinidumpThreadListWriterD1Ev, symObjAddr: 0xAB4, symBinAddr: 0x42634, symSize: 0x3C }
  - { offset: 0x8EFD2, size: 0x8, addend: 0x0, symName: __ZN8crashpad24MinidumpThreadListWriterD0Ev, symObjAddr: 0xAF0, symBinAddr: 0x42670, symSize: 0x40 }
  - { offset: 0x8F0EF, size: 0x8, addend: 0x0, symName: __ZN8crashpad24MinidumpThreadListWriter22InitializeFromSnapshotERKNSt3__16vectorIPKNS_14ThreadSnapshotENS1_9allocatorIS5_EEEEPNS1_3mapIyjNS1_4lessIyEENS6_INS1_4pairIKyjEEEEEE, symObjAddr: 0xB30, symBinAddr: 0x426B0, symSize: 0x224 }
  - { offset: 0x8F673, size: 0x8, addend: 0x0, symName: __ZN8crashpad24MinidumpThreadListWriter9AddThreadENSt3__110unique_ptrINS_20MinidumpThreadWriterENS1_14default_deleteIS3_EEEE, symObjAddr: 0xD54, symBinAddr: 0x428D4, symSize: 0x16C }
  - { offset: 0x8F9AF, size: 0x8, addend: 0x0, symName: __ZN8crashpad24MinidumpThreadListWriter19SetMemoryListWriterEPNS_24MinidumpMemoryListWriterE, symObjAddr: 0xEC0, symBinAddr: 0x42A40, symSize: 0xF4 }
  - { offset: 0x8FA5B, size: 0x8, addend: 0x0, symName: __ZNSt3__114__split_bufferINS_10unique_ptrIN8crashpad20MinidumpThreadWriterENS_14default_deleteIS3_EEEERNS_9allocatorIS6_EEED2Ev, symObjAddr: 0x1C20, symBinAddr: 0x43104, symSize: 0x50 }
  - { offset: 0x8FA65, size: 0x8, addend: 0x0, symName: __ZNSt3__114__split_bufferINS_10unique_ptrIN8crashpad20MinidumpThreadWriterENS_14default_deleteIS3_EEEERNS_9allocatorIS6_EEED2Ev, symObjAddr: 0x1C20, symBinAddr: 0x43104, symSize: 0x50 }
  - { offset: 0x8FB99, size: 0x8, addend: 0x0, symName: __ZN8crashpad24MinidumpThreadListWriter19SetMemoryListWriterEPNS_24MinidumpMemoryListWriterE, symObjAddr: 0xEC0, symBinAddr: 0x42A40, symSize: 0xF4 }
  - { offset: 0x8FC48, size: 0x8, addend: 0x0, symName: __ZN8crashpad24MinidumpThreadListWriter6FreezeEv, symObjAddr: 0xFB4, symBinAddr: 0x42B34, symSize: 0x11C }
  - { offset: 0x8FCF5, size: 0x8, addend: 0x0, symName: __ZN8crashpad24MinidumpThreadListWriter12SizeOfObjectEv, symObjAddr: 0x10D0, symBinAddr: 0x42C50, symSize: 0x94 }
  - { offset: 0x8FD62, size: 0x8, addend: 0x0, symName: __ZN8crashpad24MinidumpThreadListWriter8ChildrenEv, symObjAddr: 0x1164, symBinAddr: 0x42CE4, symSize: 0x190 }
  - { offset: 0x90162, size: 0x8, addend: 0x0, symName: __ZN8crashpad24MinidumpThreadListWriter11WriteObjectEPNS_19FileWriterInterfaceE, symObjAddr: 0x12F4, symBinAddr: 0x42E74, symSize: 0x1EC }
  - { offset: 0x906B5, size: 0x8, addend: 0x0, symName: __ZNK8crashpad24MinidumpThreadListWriter10StreamTypeEv, symObjAddr: 0x14E0, symBinAddr: 0x43060, symSize: 0x8 }
  - { offset: 0x90AEF, size: 0x8, addend: 0x0, symName: __ZNSt3__110unique_ptrIN8crashpad20MinidumpThreadWriterENS_14default_deleteIS2_EEE5resetB8ne190102EPS2_, symObjAddr: 0x1BB0, symBinAddr: 0x430DC, symSize: 0x28 }
  - { offset: 0x90BFC, size: 0x8, addend: 0x0, symName: __ZN8crashpad28MinidumpUnloadedModuleWriterC2Ev, symObjAddr: 0x0, symBinAddr: 0x43154, symSize: 0x30 }
  - { offset: 0x90C7C, size: 0x8, addend: 0x0, symName: __ZN8crashpad28MinidumpUnloadedModuleWriterC1Ev, symObjAddr: 0x30, symBinAddr: 0x43184, symSize: 0x30 }
  - { offset: 0x90D17, size: 0x8, addend: 0x0, symName: __ZN8crashpad28MinidumpUnloadedModuleWriterD2Ev, symObjAddr: 0x60, symBinAddr: 0x431B4, symSize: 0x2C }
  - { offset: 0x90D75, size: 0x8, addend: 0x0, symName: __ZN8crashpad28MinidumpUnloadedModuleWriterD1Ev, symObjAddr: 0x8C, symBinAddr: 0x431E0, symSize: 0x2C }
  - { offset: 0x90DD9, size: 0x8, addend: 0x0, symName: __ZN8crashpad28MinidumpUnloadedModuleWriterD0Ev, symObjAddr: 0xB8, symBinAddr: 0x4320C, symSize: 0x30 }
  - { offset: 0x90EE2, size: 0x8, addend: 0x0, symName: __ZN8crashpad28MinidumpUnloadedModuleWriter22InitializeFromSnapshotERKNS_22UnloadedModuleSnapshotE, symObjAddr: 0xE8, symBinAddr: 0x4323C, symSize: 0x174 }
  - { offset: 0x915A7, size: 0x8, addend: 0x0, symName: __ZN8crashpad28MinidumpUnloadedModuleWriter7SetNameERKNSt3__112basic_stringIcNS1_11char_traitsIcEENS1_9allocatorIcEEEE, symObjAddr: 0x25C, symBinAddr: 0x433B0, symSize: 0xD4 }
  - { offset: 0x91684, size: 0x8, addend: 0x0, symName: __ZN8crashpad28MinidumpUnloadedModuleWriter12SetTimestampEl, symObjAddr: 0x3E0, symBinAddr: 0x43484, symSize: 0x8C }
  - { offset: 0x916DD, size: 0x8, addend: 0x0, symName: __ZNK8crashpad28MinidumpUnloadedModuleWriter22MinidumpUnloadedModuleEv, symObjAddr: 0x46C, symBinAddr: 0x43510, symSize: 0x80 }
  - { offset: 0x9172A, size: 0x8, addend: 0x0, symName: __ZN8crashpad28MinidumpUnloadedModuleWriter6FreezeEv, symObjAddr: 0x514, symBinAddr: 0x43590, symSize: 0x108 }
  - { offset: 0x917ED, size: 0x8, addend: 0x0, symName: __ZN8crashpad28MinidumpUnloadedModuleWriter12SizeOfObjectEv, symObjAddr: 0x61C, symBinAddr: 0x43698, symSize: 0x7C }
  - { offset: 0x91840, size: 0x8, addend: 0x0, symName: __ZN8crashpad28MinidumpUnloadedModuleWriter8ChildrenEv, symObjAddr: 0x698, symBinAddr: 0x43714, symSize: 0x10C }
  - { offset: 0x919D3, size: 0x8, addend: 0x0, symName: __ZN8crashpad28MinidumpUnloadedModuleWriter11WriteObjectEPNS_19FileWriterInterfaceE, symObjAddr: 0x7A4, symBinAddr: 0x43820, symSize: 0x7C }
  - { offset: 0x91A1A, size: 0x8, addend: 0x0, symName: __ZN8crashpad32MinidumpUnloadedModuleListWriterC2Ev, symObjAddr: 0x820, symBinAddr: 0x4389C, symSize: 0x2C }
  - { offset: 0x91A31, size: 0x8, addend: 0x0, symName: __ZN8crashpad32MinidumpUnloadedModuleListWriterC1Ev, symObjAddr: 0x84C, symBinAddr: 0x438C8, symSize: 0x2C }
  - { offset: 0x91A6F, size: 0x8, addend: 0x0, symName: __ZN8crashpad32MinidumpUnloadedModuleListWriterD2Ev, symObjAddr: 0x878, symBinAddr: 0x438F4, symSize: 0x3C }
  - { offset: 0x91AE4, size: 0x8, addend: 0x0, symName: __ZNSt3__16vectorINS_10unique_ptrIN8crashpad28MinidumpUnloadedModuleWriterENS_14default_deleteIS3_EEEENS_9allocatorIS6_EEE16__destroy_vectorclB8ne190102Ev, symObjAddr: 0x1960, symBinAddr: 0x441F0, symSize: 0x74 }
  - { offset: 0x91BE7, size: 0x8, addend: 0x0, symName: __ZN8crashpad32MinidumpUnloadedModuleListWriterD1Ev, symObjAddr: 0x8B4, symBinAddr: 0x43930, symSize: 0x3C }
  - { offset: 0x91C77, size: 0x8, addend: 0x0, symName: __ZN8crashpad32MinidumpUnloadedModuleListWriterD0Ev, symObjAddr: 0x8F0, symBinAddr: 0x4396C, symSize: 0x40 }
  - { offset: 0x91D70, size: 0x8, addend: 0x0, symName: __ZN8crashpad32MinidumpUnloadedModuleListWriter22InitializeFromSnapshotERKNSt3__16vectorINS_22UnloadedModuleSnapshotENS1_9allocatorIS3_EEEE, symObjAddr: 0x930, symBinAddr: 0x439AC, symSize: 0x1B0 }
  - { offset: 0x9207E, size: 0x8, addend: 0x0, symName: __ZN8crashpad32MinidumpUnloadedModuleListWriter17AddUnloadedModuleENSt3__110unique_ptrINS_28MinidumpUnloadedModuleWriterENS1_14default_deleteIS3_EEEE, symObjAddr: 0xAE0, symBinAddr: 0x43B5C, symSize: 0x154 }
  - { offset: 0x9237D, size: 0x8, addend: 0x0, symName: __ZN8crashpad32MinidumpUnloadedModuleListWriter6FreezeEv, symObjAddr: 0xC34, symBinAddr: 0x43CB0, symSize: 0x128 }
  - { offset: 0x92387, size: 0x8, addend: 0x0, symName: __ZNSt3__110unique_ptrIN8crashpad28MinidumpUnloadedModuleWriterENS_14default_deleteIS2_EEE5resetB8ne190102EPS2_, symObjAddr: 0x19D4, symBinAddr: 0x44264, symSize: 0x44 }
  - { offset: 0x924AC, size: 0x8, addend: 0x0, symName: __ZNSt3__114__split_bufferINS_10unique_ptrIN8crashpad28MinidumpUnloadedModuleWriterENS_14default_deleteIS3_EEEERNS_9allocatorIS6_EEED2Ev, symObjAddr: 0x1A60, symBinAddr: 0x442A8, symSize: 0x50 }
  - { offset: 0x924B6, size: 0x8, addend: 0x0, symName: __ZNSt3__114__split_bufferINS_10unique_ptrIN8crashpad28MinidumpUnloadedModuleWriterENS_14default_deleteIS3_EEEERNS_9allocatorIS6_EEED2Ev, symObjAddr: 0x1A60, symBinAddr: 0x442A8, symSize: 0x50 }
  - { offset: 0x925F0, size: 0x8, addend: 0x0, symName: __ZN8crashpad32MinidumpUnloadedModuleListWriter6FreezeEv, symObjAddr: 0xC34, symBinAddr: 0x43CB0, symSize: 0x128 }
  - { offset: 0x9269D, size: 0x8, addend: 0x0, symName: __ZN8crashpad32MinidumpUnloadedModuleListWriter12SizeOfObjectEv, symObjAddr: 0xD5C, symBinAddr: 0x43DD8, symSize: 0x94 }
  - { offset: 0x9279A, size: 0x8, addend: 0x0, symName: __ZN8crashpad32MinidumpUnloadedModuleListWriter8ChildrenEv, symObjAddr: 0xDF0, symBinAddr: 0x43E6C, symSize: 0x190 }
  - { offset: 0x92B34, size: 0x8, addend: 0x0, symName: __ZNSt3__16vectorINS_10unique_ptrIN8crashpad28MinidumpUnloadedModuleWriterENS_14default_deleteIS3_EEEENS_9allocatorIS6_EEE16__destroy_vectorclB8ne190102Ev, symObjAddr: 0x1960, symBinAddr: 0x441F0, symSize: 0x74 }
  - { offset: 0x92BE1, size: 0x8, addend: 0x0, symName: __ZN8crashpad32MinidumpUnloadedModuleListWriter11WriteObjectEPNS_19FileWriterInterfaceE, symObjAddr: 0xF80, symBinAddr: 0x43FFC, symSize: 0x1EC }
  - { offset: 0x93134, size: 0x8, addend: 0x0, symName: __ZNK8crashpad32MinidumpUnloadedModuleListWriter10StreamTypeEv, symObjAddr: 0x116C, symBinAddr: 0x441E8, symSize: 0x8 }
  - { offset: 0x9364E, size: 0x8, addend: 0x0, symName: __ZN8crashpad37MinidumpUserExtensionStreamDataSourceC2Ej, symObjAddr: 0x0, symBinAddr: 0x442F8, symSize: 0x14 }
  - { offset: 0x9365B, size: 0x8, addend: 0x0, symName: __ZN8crashpad37MinidumpUserExtensionStreamDataSourceC2Ej, symObjAddr: 0x0, symBinAddr: 0x442F8, symSize: 0x14 }
  - { offset: 0x9366C, size: 0x8, addend: 0x0, symName: __ZN8crashpad37MinidumpUserExtensionStreamDataSourceD2Ev, symObjAddr: 0x14, symBinAddr: 0x4430C, symSize: 0x4 }
  - { offset: 0x9367D, size: 0x8, addend: 0x0, symName: __ZN8crashpad37MinidumpUserExtensionStreamDataSourceD1Ev, symObjAddr: 0x18, symBinAddr: 0x44310, symSize: 0x4 }
  - { offset: 0x9368E, size: 0x8, addend: 0x0, symName: __ZN8crashpad37MinidumpUserExtensionStreamDataSourceD0Ev, symObjAddr: 0x1C, symBinAddr: 0x44314, symSize: 0x4 }
  - { offset: 0x936EC, size: 0x8, addend: 0x0, symName: __ZN8crashpad24MinidumpUserStreamWriterC2Ev, symObjAddr: 0x0, symBinAddr: 0x44318, symSize: 0x28 }
  - { offset: 0x9376C, size: 0x8, addend: 0x0, symName: __ZN8crashpad24MinidumpUserStreamWriterC1Ev, symObjAddr: 0x28, symBinAddr: 0x44340, symSize: 0x28 }
  - { offset: 0x93813, size: 0x8, addend: 0x0, symName: __ZN8crashpad24MinidumpUserStreamWriterD2Ev, symObjAddr: 0x50, symBinAddr: 0x44368, symSize: 0x38 }
  - { offset: 0x9388C, size: 0x8, addend: 0x0, symName: __ZN8crashpad24MinidumpUserStreamWriterD1Ev, symObjAddr: 0x88, symBinAddr: 0x443A0, symSize: 0x38 }
  - { offset: 0x9391A, size: 0x8, addend: 0x0, symName: __ZN8crashpad24MinidumpUserStreamWriterD0Ev, symObjAddr: 0xC0, symBinAddr: 0x443D8, symSize: 0x3C }
  - { offset: 0x939FF, size: 0x8, addend: 0x0, symName: __ZN8crashpad24MinidumpUserStreamWriter22InitializeFromSnapshotEPKNS_18UserMinidumpStreamE, symObjAddr: 0xFC, symBinAddr: 0x44414, symSize: 0x134 }
  - { offset: 0x93EB8, size: 0x8, addend: 0x0, symName: __ZN8crashpad24MinidumpUserStreamWriter33InitializeFromUserExtensionStreamENSt3__110unique_ptrINS_37MinidumpUserExtensionStreamDataSourceENS1_14default_deleteIS3_EEEE, symObjAddr: 0x230, symBinAddr: 0x44548, symSize: 0x138 }
  - { offset: 0x940C0, size: 0x8, addend: 0x0, symName: __ZN8crashpad24MinidumpUserStreamWriter6FreezeEv, symObjAddr: 0x368, symBinAddr: 0x44680, symSize: 0xC8 }
  - { offset: 0x94120, size: 0x8, addend: 0x0, symName: __ZN7logging17MakeCheckOpStringIN8crashpad18MinidumpStreamTypeEjEEPNSt3__112basic_stringIcNS3_11char_traitsIcEENS3_9allocatorIcEEEERKT_RKT0_PKc, symObjAddr: 0xE28, symBinAddr: 0x44B5C, symSize: 0x160 }
  - { offset: 0x94661, size: 0x8, addend: 0x0, symName: __ZN8crashpad24MinidumpUserStreamWriter12SizeOfObjectEv, symObjAddr: 0x430, symBinAddr: 0x44748, symSize: 0x8C }
  - { offset: 0x946D3, size: 0x8, addend: 0x0, symName: __ZN8crashpad24MinidumpUserStreamWriter8ChildrenEv, symObjAddr: 0x4BC, symBinAddr: 0x447D4, symSize: 0x84 }
  - { offset: 0x94744, size: 0x8, addend: 0x0, symName: __ZN8crashpad24MinidumpUserStreamWriter11WriteObjectEPNS_19FileWriterInterfaceE, symObjAddr: 0x540, symBinAddr: 0x44858, symSize: 0x9C }
  - { offset: 0x947AA, size: 0x8, addend: 0x0, symName: __ZNK8crashpad24MinidumpUserStreamWriter10StreamTypeEv, symObjAddr: 0x5DC, symBinAddr: 0x448F4, symSize: 0x8 }
  - { offset: 0x94B9F, size: 0x8, addend: 0x0, symName: __ZN8crashpad24MinidumpUserStreamWriter22SnapshotContentsWriterD1Ev, symObjAddr: 0xBC8, symBinAddr: 0x448FC, symSize: 0x4 }
  - { offset: 0x94BC7, size: 0x8, addend: 0x0, symName: __ZN8crashpad24MinidumpUserStreamWriter22SnapshotContentsWriterD1Ev, symObjAddr: 0xBC8, symBinAddr: 0x448FC, symSize: 0x4 }
  - { offset: 0x94BD8, size: 0x8, addend: 0x0, symName: __ZN8crashpad24MinidumpUserStreamWriter22SnapshotContentsWriterD0Ev, symObjAddr: 0xBCC, symBinAddr: 0x44900, symSize: 0x4 }
  - { offset: 0x94BE9, size: 0x8, addend: 0x0, symName: __ZN8crashpad24MinidumpUserStreamWriter22SnapshotContentsWriter13WriteContentsEPNS_19FileWriterInterfaceE, symObjAddr: 0xBD0, symBinAddr: 0x44904, symSize: 0xC0 }
  - { offset: 0x94C54, size: 0x8, addend: 0x0, symName: __ZNK8crashpad24MinidumpUserStreamWriter22SnapshotContentsWriter7GetSizeEv, symObjAddr: 0xC90, symBinAddr: 0x449C4, symSize: 0x18 }
  - { offset: 0x94C71, size: 0x8, addend: 0x0, symName: __ZN8crashpad24MinidumpUserStreamWriter22SnapshotContentsWriter26MemorySnapshotDelegateReadEPvm, symObjAddr: 0xCA8, symBinAddr: 0x449DC, symSize: 0x10 }
  - { offset: 0x94C8E, size: 0x8, addend: 0x0, symName: __ZThn8_N8crashpad24MinidumpUserStreamWriter22SnapshotContentsWriterD1Ev, symObjAddr: 0xCB8, symBinAddr: 0x449EC, symSize: 0x4 }
  - { offset: 0x94CA1, size: 0x8, addend: 0x0, symName: __ZThn8_N8crashpad24MinidumpUserStreamWriter22SnapshotContentsWriterD0Ev, symObjAddr: 0xCBC, symBinAddr: 0x449F0, symSize: 0x8 }
  - { offset: 0x94CC8, size: 0x8, addend: 0x0, symName: __ZThn8_N8crashpad24MinidumpUserStreamWriter22SnapshotContentsWriter26MemorySnapshotDelegateReadEPvm, symObjAddr: 0xCC4, symBinAddr: 0x449F8, symSize: 0x10 }
  - { offset: 0x94CD9, size: 0x8, addend: 0x0, symName: __ZThn8_N8crashpad24MinidumpUserStreamWriter22SnapshotContentsWriter26MemorySnapshotDelegateReadEPvm, symObjAddr: 0xCC4, symBinAddr: 0x449F8, symSize: 0x10 }
  - { offset: 0x94D12, size: 0x8, addend: 0x0, symName: __ZN8crashpad24MinidumpUserStreamWriter29ExtensionStreamContentsWriterD1Ev, symObjAddr: 0xCD4, symBinAddr: 0x44A08, symSize: 0x38 }
  - { offset: 0x94DA0, size: 0x8, addend: 0x0, symName: __ZN8crashpad24MinidumpUserStreamWriter29ExtensionStreamContentsWriterD0Ev, symObjAddr: 0xD0C, symBinAddr: 0x44A40, symSize: 0x38 }
  - { offset: 0x94E3D, size: 0x8, addend: 0x0, symName: __ZN8crashpad24MinidumpUserStreamWriter29ExtensionStreamContentsWriter13WriteContentsEPNS_19FileWriterInterfaceE, symObjAddr: 0xD44, symBinAddr: 0x44A78, symSize: 0xB4 }
  - { offset: 0x94EBC, size: 0x8, addend: 0x0, symName: __ZNK8crashpad24MinidumpUserStreamWriter29ExtensionStreamContentsWriter7GetSizeEv, symObjAddr: 0xDF8, symBinAddr: 0x44B2C, symSize: 0x10 }
  - { offset: 0x94ED1, size: 0x8, addend: 0x0, symName: __ZNK8crashpad24MinidumpUserStreamWriter29ExtensionStreamContentsWriter7GetSizeEv, symObjAddr: 0xDF8, symBinAddr: 0x44B2C, symSize: 0x10 }
  - { offset: 0x94EED, size: 0x8, addend: 0x0, symName: __ZN8crashpad24MinidumpUserStreamWriter29ExtensionStreamContentsWriter29ExtensionStreamDataSourceReadEPKvm, symObjAddr: 0xE08, symBinAddr: 0x44B3C, symSize: 0x10 }
  - { offset: 0x94F10, size: 0x8, addend: 0x0, symName: __ZThn8_N8crashpad24MinidumpUserStreamWriter29ExtensionStreamContentsWriter29ExtensionStreamDataSourceReadEPKvm, symObjAddr: 0xE18, symBinAddr: 0x44B4C, symSize: 0x10 }
  - { offset: 0x94F21, size: 0x8, addend: 0x0, symName: __ZThn8_N8crashpad24MinidumpUserStreamWriter29ExtensionStreamContentsWriter29ExtensionStreamDataSourceReadEPKvm, symObjAddr: 0xE18, symBinAddr: 0x44B4C, symSize: 0x10 }
  - { offset: 0x95039, size: 0x8, addend: 0x0, symName: __ZN8crashpad8internal16MinidumpWritableD2Ev, symObjAddr: 0x0, symBinAddr: 0x44CBC, symSize: 0x6C }
  - { offset: 0x953AB, size: 0x8, addend: 0x0, symName: __ZN8crashpad8internal16MinidumpWritableD1Ev, symObjAddr: 0x6C, symBinAddr: 0x44D28, symSize: 0x4 }
  - { offset: 0x953BC, size: 0x8, addend: 0x0, symName: __ZN8crashpad8internal16MinidumpWritableD0Ev, symObjAddr: 0x70, symBinAddr: 0x44D2C, symSize: 0x4 }
  - { offset: 0x95421, size: 0x8, addend: 0x0, symName: __ZN8crashpad8internal16MinidumpWritable15WriteEverythingEPNS_19FileWriterInterfaceE, symObjAddr: 0x74, symBinAddr: 0x44D30, symSize: 0x2B8 }
  - { offset: 0x9597A, size: 0x8, addend: 0x0, symName: __ZN8crashpad8internal16MinidumpWritable17WillWriteAtOffsetENS1_5PhaseEPxPNSt3__16vectorIPS1_NS4_9allocatorIS6_EEEE, symObjAddr: 0x32C, symBinAddr: 0x44FE8, symSize: 0x614 }
  - { offset: 0x9625C, size: 0x8, addend: 0x0, symName: __ZN8crashpad8internal16MinidumpWritable21WritePaddingAndObjectEPNS_19FileWriterInterfaceE, symObjAddr: 0x940, symBinAddr: 0x455FC, symSize: 0x130 }
  - { offset: 0x96935, size: 0x8, addend: 0x0, symName: __ZN8crashpad8internal16MinidumpWritable11RegisterRVAEPj, symObjAddr: 0xA70, symBinAddr: 0x4572C, symSize: 0x134 }
  - { offset: 0x96B47, size: 0x8, addend: 0x0, symName: __ZN8crashpad8internal16MinidumpWritable11RegisterRVAEPy, symObjAddr: 0xBA4, symBinAddr: 0x45860, symSize: 0x134 }
  - { offset: 0x96BEC, size: 0x8, addend: 0x0, symName: __ZN8crashpad8internal16MinidumpWritable11RegisterRVAEPy, symObjAddr: 0xBA4, symBinAddr: 0x45860, symSize: 0x134 }
  - { offset: 0x96DFE, size: 0x8, addend: 0x0, symName: __ZN8crashpad8internal16MinidumpWritable26RegisterLocationDescriptorEP28MINIDUMP_LOCATION_DESCRIPTOR, symObjAddr: 0xCD8, symBinAddr: 0x45994, symSize: 0x134 }
  - { offset: 0x96EA3, size: 0x8, addend: 0x0, symName: __ZN8crashpad8internal16MinidumpWritable26RegisterLocationDescriptorEP28MINIDUMP_LOCATION_DESCRIPTOR, symObjAddr: 0xCD8, symBinAddr: 0x45994, symSize: 0x134 }
  - { offset: 0x970B5, size: 0x8, addend: 0x0, symName: __ZN8crashpad8internal16MinidumpWritable26RegisterLocationDescriptorEP30MINIDUMP_LOCATION_DESCRIPTOR64, symObjAddr: 0xE0C, symBinAddr: 0x45AC8, symSize: 0x134 }
  - { offset: 0x9715A, size: 0x8, addend: 0x0, symName: __ZN8crashpad8internal16MinidumpWritable26RegisterLocationDescriptorEP30MINIDUMP_LOCATION_DESCRIPTOR64, symObjAddr: 0xE0C, symBinAddr: 0x45AC8, symSize: 0x134 }
  - { offset: 0x9736C, size: 0x8, addend: 0x0, symName: __ZN8crashpad8internal16MinidumpWritableC2Ev, symObjAddr: 0xF40, symBinAddr: 0x45BFC, symSize: 0x30 }
  - { offset: 0x973C3, size: 0x8, addend: 0x0, symName: __ZN8crashpad8internal16MinidumpWritableC2Ev, symObjAddr: 0xF40, symBinAddr: 0x45BFC, symSize: 0x30 }
  - { offset: 0x973FF, size: 0x8, addend: 0x0, symName: __ZN8crashpad8internal16MinidumpWritable6FreezeEv, symObjAddr: 0xF70, symBinAddr: 0x45C2C, symSize: 0xF4 }
  - { offset: 0x9760A, size: 0x8, addend: 0x0, symName: __ZN8crashpad8internal16MinidumpWritable9AlignmentEv, symObjAddr: 0x1064, symBinAddr: 0x45D20, symSize: 0x74 }
  - { offset: 0x97635, size: 0x8, addend: 0x0, symName: __ZN8crashpad8internal16MinidumpWritable8ChildrenEv, symObjAddr: 0x10D8, symBinAddr: 0x45D94, symSize: 0x7C }
  - { offset: 0x9768A, size: 0x8, addend: 0x0, symName: __ZN8crashpad8internal16MinidumpWritable10WritePhaseEv, symObjAddr: 0x1154, symBinAddr: 0x45E10, symSize: 0x8 }
  - { offset: 0x9769B, size: 0x8, addend: 0x0, symName: __ZN8crashpad8internal16MinidumpWritable21WillWriteAtOffsetImplEx, symObjAddr: 0x115C, symBinAddr: 0x45E18, symSize: 0x8 }
  - { offset: 0x97B34, size: 0x8, addend: 0x0, symName: __ZN8crashpad8internal18MinidumpWriterUtil11AssignTimeTEPjl, symObjAddr: 0x0, symBinAddr: 0x45E20, symSize: 0xA8 }
  - { offset: 0x97CA0, size: 0x8, addend: 0x0, symName: __ZN8crashpad8internal18MinidumpWriterUtil18ConvertUTF8ToUTF16ERKNSt3__112basic_stringIcNS2_11char_traitsIcEENS2_9allocatorIcEEEE, symObjAddr: 0xA8, symBinAddr: 0x45EC8, symSize: 0xF8 }
  - { offset: 0x97F00, size: 0x8, addend: 0x0, symName: __ZN8crashpad8internal18MinidumpWriterUtil17AssignUTF8ToUTF16EPDsmRKNSt3__112basic_stringIcNS3_11char_traitsIcEENS3_9allocatorIcEEEE, symObjAddr: 0x1A0, symBinAddr: 0x45FC0, symSize: 0x174 }
  - { offset: 0x9824B, size: 0x8, addend: 0x0, symName: __ZNSt3__112basic_stringIDsNS_11char_traitsIDsEENS_9allocatorIDsEEE6resizeEmDs, symObjAddr: 0x718, symBinAddr: 0x46134, symSize: 0x3C }
  - { offset: 0x9826D, size: 0x8, addend: 0x0, symName: __ZNSt3__112basic_stringIDsNS_11char_traitsIDsEENS_9allocatorIDsEEE6resizeEmDs, symObjAddr: 0x718, symBinAddr: 0x46134, symSize: 0x3C }
  - { offset: 0x9864D, size: 0x8, addend: 0x0, symName: __ZNSt3__112basic_stringIDsNS_11char_traitsIDsEENS_9allocatorIDsEEE6appendEmDs, symObjAddr: 0x754, symBinAddr: 0x46170, symSize: 0x1D8 }
  - { offset: 0x987FA, size: 0x8, addend: 0x0, symName: __ZNSt3__112basic_stringIDsNS_11char_traitsIDsEENS_9allocatorIDsEEE9__grow_byEmmmmmm, symObjAddr: 0x92C, symBinAddr: 0x46348, symSize: 0x11C }
  - { offset: 0x98A3F, size: 0x8, addend: 0x0, symName: __ZN8crashpad8internal33ModuleSnapshotIOSIntermediateDumpC2Ev, symObjAddr: 0x0, symBinAddr: 0x46464, symSize: 0x48 }
  - { offset: 0x98B6F, size: 0x8, addend: 0x0, symName: __ZN8crashpad8internal33ModuleSnapshotIOSIntermediateDumpC1Ev, symObjAddr: 0x48, symBinAddr: 0x464AC, symSize: 0x48 }
  - { offset: 0x98B84, size: 0x8, addend: 0x0, symName: __ZN8crashpad8internal33ModuleSnapshotIOSIntermediateDumpC1Ev, symObjAddr: 0x48, symBinAddr: 0x464AC, symSize: 0x48 }
  - { offset: 0x98D44, size: 0x8, addend: 0x0, symName: __ZN8crashpad8internal33ModuleSnapshotIOSIntermediateDumpD2Ev, symObjAddr: 0x90, symBinAddr: 0x464F4, symSize: 0x6C }
  - { offset: 0x9907A, size: 0x8, addend: 0x0, symName: __ZN8crashpad8internal33ModuleSnapshotIOSIntermediateDumpD1Ev, symObjAddr: 0xFC, symBinAddr: 0x46560, symSize: 0x4 }
  - { offset: 0x9908F, size: 0x8, addend: 0x0, symName: __ZN8crashpad8internal33ModuleSnapshotIOSIntermediateDumpD1Ev, symObjAddr: 0xFC, symBinAddr: 0x46560, symSize: 0x4 }
  - { offset: 0x9909F, size: 0x8, addend: 0x0, symName: __ZN8crashpad8internal33ModuleSnapshotIOSIntermediateDumpD0Ev, symObjAddr: 0x100, symBinAddr: 0x46564, symSize: 0x14 }
  - { offset: 0x991EC, size: 0x8, addend: 0x0, symName: __ZN8crashpad8internal33ModuleSnapshotIOSIntermediateDump10InitializeEPKNS0_22IOSIntermediateDumpMapE, symObjAddr: 0x114, symBinAddr: 0x46578, symSize: 0x86C }
  - { offset: 0x9AAA6, size: 0x8, addend: 0x0, symName: __ZNK8crashpad8internal33ModuleSnapshotIOSIntermediateDump4NameEv, symObjAddr: 0xAB0, symBinAddr: 0x46DE4, symSize: 0xB0 }
  - { offset: 0x9AB64, size: 0x8, addend: 0x0, symName: __ZNK8crashpad8internal33ModuleSnapshotIOSIntermediateDump7AddressEv, symObjAddr: 0xB60, symBinAddr: 0x46E94, symSize: 0x80 }
  - { offset: 0x9ABC0, size: 0x8, addend: 0x0, symName: __ZNK8crashpad8internal33ModuleSnapshotIOSIntermediateDump4SizeEv, symObjAddr: 0xBE0, symBinAddr: 0x46F14, symSize: 0x80 }
  - { offset: 0x9AC1C, size: 0x8, addend: 0x0, symName: __ZNK8crashpad8internal33ModuleSnapshotIOSIntermediateDump9TimestampEv, symObjAddr: 0xC60, symBinAddr: 0x46F94, symSize: 0x80 }
  - { offset: 0x9AC78, size: 0x8, addend: 0x0, symName: __ZNK8crashpad8internal33ModuleSnapshotIOSIntermediateDump11FileVersionEPtS2_S2_S2_, symObjAddr: 0xCE0, symBinAddr: 0x47014, symSize: 0xD8 }
  - { offset: 0x9ACD4, size: 0x8, addend: 0x0, symName: __ZNK8crashpad8internal33ModuleSnapshotIOSIntermediateDump13SourceVersionEPtS2_S2_S2_, symObjAddr: 0xDB8, symBinAddr: 0x470EC, symSize: 0xBC }
  - { offset: 0x9AD30, size: 0x8, addend: 0x0, symName: __ZNK8crashpad8internal33ModuleSnapshotIOSIntermediateDump13GetModuleTypeEv, symObjAddr: 0xE74, symBinAddr: 0x471A8, symSize: 0xA0 }
  - { offset: 0x9AD8C, size: 0x8, addend: 0x0, symName: __ZNK8crashpad8internal33ModuleSnapshotIOSIntermediateDump10UUIDAndAgeEPNS_4UUIDEPj, symObjAddr: 0xF14, symBinAddr: 0x47248, symSize: 0x98 }
  - { offset: 0x9ADE8, size: 0x8, addend: 0x0, symName: __ZNK8crashpad8internal33ModuleSnapshotIOSIntermediateDump13DebugFileNameEv, symObjAddr: 0xFAC, symBinAddr: 0x472E0, symSize: 0x130 }
  - { offset: 0x9B041, size: 0x8, addend: 0x0, symName: __ZNK8crashpad8internal33ModuleSnapshotIOSIntermediateDump7BuildIDEv, symObjAddr: 0x10DC, symBinAddr: 0x47410, symSize: 0x84 }
  - { offset: 0x9B0D9, size: 0x8, addend: 0x0, symName: __ZNK8crashpad8internal33ModuleSnapshotIOSIntermediateDump17AnnotationsVectorEv, symObjAddr: 0x1160, symBinAddr: 0x47494, symSize: 0xB0 }
  - { offset: 0x9B237, size: 0x8, addend: 0x0, symName: __ZNK8crashpad8internal33ModuleSnapshotIOSIntermediateDump20AnnotationsSimpleMapEv, symObjAddr: 0x1210, symBinAddr: 0x47544, symSize: 0x94 }
  - { offset: 0x9B2B4, size: 0x8, addend: 0x0, symName: __ZNSt3__13mapINS_12basic_stringIcNS_11char_traitsIcEENS_9allocatorIcEEEES6_NS_4lessIS6_EENS4_INS_4pairIKS6_S6_EEEEEC2B8ne190102ERKSD_, symObjAddr: 0x2884, symBinAddr: 0x47728, symSize: 0x54 }
  - { offset: 0x9B3F4, size: 0x8, addend: 0x0, symName: __ZNK8crashpad8internal33ModuleSnapshotIOSIntermediateDump17AnnotationObjectsEv, symObjAddr: 0x12A4, symBinAddr: 0x475D8, symSize: 0xB8 }
  - { offset: 0x9B4A0, size: 0x8, addend: 0x0, symName: __ZNSt3__16vectorIN8crashpad18AnnotationSnapshotENS_9allocatorIS2_EEE16__init_with_sizeB8ne190102IPS2_S7_EEvT_T0_m, symObjAddr: 0x2C60, symBinAddr: 0x4787C, symSize: 0x84 }
  - { offset: 0x9B61F, size: 0x8, addend: 0x0, symName: __ZNK8crashpad8internal33ModuleSnapshotIOSIntermediateDump17ExtraMemoryRangesEv, symObjAddr: 0x135C, symBinAddr: 0x47690, symSize: 0x8C }
  - { offset: 0x9B720, size: 0x8, addend: 0x0, symName: __ZNK8crashpad8internal33ModuleSnapshotIOSIntermediateDump21CustomMinidumpStreamsEv, symObjAddr: 0x13E8, symBinAddr: 0x4771C, symSize: 0xC }
  - { offset: 0x9B735, size: 0x8, addend: 0x0, symName: __ZNK8crashpad8internal33ModuleSnapshotIOSIntermediateDump21CustomMinidumpStreamsEv, symObjAddr: 0x13E8, symBinAddr: 0x4771C, symSize: 0xC }
  - { offset: 0x9B74A, size: 0x8, addend: 0x0, symName: __ZNK8crashpad8internal33ModuleSnapshotIOSIntermediateDump21CustomMinidumpStreamsEv, symObjAddr: 0x13E8, symBinAddr: 0x4771C, symSize: 0xC }
  - { offset: 0x9C6C0, size: 0x8, addend: 0x0, symName: __ZNSt3__13mapINS_12basic_stringIcNS_11char_traitsIcEENS_9allocatorIcEEEES6_NS_4lessIS6_EENS4_INS_4pairIKS6_S6_EEEEE6insertB8ne190102INS_20__map_const_iteratorINS_21__tree_const_iteratorINS_12__value_typeIS6_S6_EEPNS_11__tree_nodeISI_PvEElEEEEEEvT_SP_, symObjAddr: 0x28D8, symBinAddr: 0x4777C, symSize: 0x80 }
  - { offset: 0x9C83E, size: 0x8, addend: 0x0, symName: __ZNSt3__16__treeINS_12__value_typeINS_12basic_stringIcNS_11char_traitsIcEENS_9allocatorIcEEEES7_EENS_19__map_value_compareIS7_S8_NS_4lessIS7_EELb1EEENS5_IS8_EEE30__emplace_hint_unique_key_argsIS7_JRKNS_4pairIKS7_S7_EEEEENSG_INS_15__tree_iteratorIS8_PNS_11__tree_nodeIS8_PvEElEEbEENS_21__tree_const_iteratorIS8_SP_lEERKT_DpOT0_, symObjAddr: 0x2958, symBinAddr: 0x477FC, symSize: 0x80 }
  - { offset: 0x9CBFC, size: 0x8, addend: 0x0, symName: __ZNSt3__16vectorIN8crashpad18AnnotationSnapshotENS_9allocatorIS2_EEE11__vallocateB8ne190102Em, symObjAddr: 0x2CE4, symBinAddr: 0x47900, symSize: 0x54 }
  - { offset: 0x9CC33, size: 0x8, addend: 0x0, symName: __ZNSt3__135__uninitialized_allocator_copy_implB8ne190102INS_9allocatorIN8crashpad18AnnotationSnapshotEEEPS3_S5_S5_EET2_RT_T0_T1_S6_, symObjAddr: 0x2D38, symBinAddr: 0x47954, symSize: 0x90 }
  - { offset: 0x9CC3D, size: 0x8, addend: 0x0, symName: __ZNSt3__135__uninitialized_allocator_copy_implB8ne190102INS_9allocatorIN8crashpad18AnnotationSnapshotEEEPS3_S5_S5_EET2_RT_T0_T1_S6_, symObjAddr: 0x2D38, symBinAddr: 0x47954, symSize: 0x90 }
  - { offset: 0x9CD0D, size: 0x8, addend: 0x0, symName: __ZNSt3__19allocatorIN8crashpad18AnnotationSnapshotEE9constructB8ne190102IS2_JRS2_EEEvPT_DpOT0_, symObjAddr: 0x2DC8, symBinAddr: 0x479E4, symSize: 0x84 }
  - { offset: 0x9CF10, size: 0x8, addend: 0x0, symName: __ZN8crashpad8internal22ModuleSnapshotMinidumpC2Ev, symObjAddr: 0x0, symBinAddr: 0x47A68, symSize: 0x6C }
  - { offset: 0x9D016, size: 0x8, addend: 0x0, symName: __ZN8crashpad8internal22ModuleSnapshotMinidumpC1Ev, symObjAddr: 0x6C, symBinAddr: 0x47AD4, symSize: 0x6C }
  - { offset: 0x9D02B, size: 0x8, addend: 0x0, symName: __ZN8crashpad8internal22ModuleSnapshotMinidumpC1Ev, symObjAddr: 0x6C, symBinAddr: 0x47AD4, symSize: 0x6C }
  - { offset: 0x9D1EB, size: 0x8, addend: 0x0, symName: __ZN8crashpad8internal22ModuleSnapshotMinidumpD2Ev, symObjAddr: 0xD8, symBinAddr: 0x47B40, symSize: 0x8C }
  - { offset: 0x9D6BA, size: 0x8, addend: 0x0, symName: __ZN8crashpad8internal22ModuleSnapshotMinidumpD1Ev, symObjAddr: 0x164, symBinAddr: 0x47BCC, symSize: 0x4 }
  - { offset: 0x9D6CF, size: 0x8, addend: 0x0, symName: __ZN8crashpad8internal22ModuleSnapshotMinidumpD1Ev, symObjAddr: 0x164, symBinAddr: 0x47BCC, symSize: 0x4 }
  - { offset: 0x9D6DF, size: 0x8, addend: 0x0, symName: __ZN8crashpad8internal22ModuleSnapshotMinidumpD0Ev, symObjAddr: 0x168, symBinAddr: 0x47BD0, symSize: 0x14 }
  - { offset: 0x9D718, size: 0x8, addend: 0x0, symName: __ZN8crashpad8internal22ModuleSnapshotMinidump10InitializeEPNS_19FileReaderInterfaceEjPK28MINIDUMP_LOCATION_DESCRIPTOR, symObjAddr: 0x17C, symBinAddr: 0x47BE4, symSize: 0x15C }
  - { offset: 0x9D9F5, size: 0x8, addend: 0x0, symName: __ZN8crashpad8internal22ModuleSnapshotMinidump28InitializeModuleCrashpadInfoEPNS_19FileReaderInterfaceEPK28MINIDUMP_LOCATION_DESCRIPTOR, symObjAddr: 0x2D8, symBinAddr: 0x47D40, symSize: 0x160 }
  - { offset: 0x9DA91, size: 0x8, addend: 0x0, symName: __ZN8crashpad8internal22ModuleSnapshotMinidump24InitializeModuleCodeViewEPNS_19FileReaderInterfaceE, symObjAddr: 0x438, symBinAddr: 0x47EA0, symSize: 0x30C }
  - { offset: 0x9E388, size: 0x8, addend: 0x0, symName: __ZNSt3__120back_insert_iteratorINS_6vectorIhNS_9allocatorIhEEEEEaSB8ne190102ERKh, symObjAddr: 0x1AE0, symBinAddr: 0x48B38, symSize: 0xE0 }
  - { offset: 0x9E5F2, size: 0x8, addend: 0x0, symName: __ZNK8crashpad8internal22ModuleSnapshotMinidump4NameEv, symObjAddr: 0x744, symBinAddr: 0x481AC, symSize: 0xB0 }
  - { offset: 0x9E71E, size: 0x8, addend: 0x0, symName: __ZNK8crashpad8internal22ModuleSnapshotMinidump7AddressEv, symObjAddr: 0x7F4, symBinAddr: 0x4825C, symSize: 0x80 }
  - { offset: 0x9E77A, size: 0x8, addend: 0x0, symName: __ZNK8crashpad8internal22ModuleSnapshotMinidump4SizeEv, symObjAddr: 0x874, symBinAddr: 0x482DC, symSize: 0x80 }
  - { offset: 0x9E7D6, size: 0x8, addend: 0x0, symName: __ZNK8crashpad8internal22ModuleSnapshotMinidump9TimestampEv, symObjAddr: 0x8F4, symBinAddr: 0x4835C, symSize: 0x8 }
  - { offset: 0x9E7E7, size: 0x8, addend: 0x0, symName: __ZNK8crashpad8internal22ModuleSnapshotMinidump11FileVersionEPtS2_S2_S2_, symObjAddr: 0x8FC, symBinAddr: 0x48364, symSize: 0xB8 }
  - { offset: 0x9E843, size: 0x8, addend: 0x0, symName: __ZNK8crashpad8internal22ModuleSnapshotMinidump13SourceVersionEPtS2_S2_S2_, symObjAddr: 0x9B4, symBinAddr: 0x4841C, symSize: 0xB8 }
  - { offset: 0x9E89F, size: 0x8, addend: 0x0, symName: __ZNK8crashpad8internal22ModuleSnapshotMinidump13GetModuleTypeEv, symObjAddr: 0xA6C, symBinAddr: 0x484D4, symSize: 0x94 }
  - { offset: 0x9E8FB, size: 0x8, addend: 0x0, symName: __ZNK8crashpad8internal22ModuleSnapshotMinidump10UUIDAndAgeEPNS_4UUIDEPj, symObjAddr: 0xB00, symBinAddr: 0x48568, symSize: 0x9C }
  - { offset: 0x9E957, size: 0x8, addend: 0x0, symName: __ZNK8crashpad8internal22ModuleSnapshotMinidump13DebugFileNameEv, symObjAddr: 0xB9C, symBinAddr: 0x48604, symSize: 0xB0 }
  - { offset: 0x9EA21, size: 0x8, addend: 0x0, symName: __ZNK8crashpad8internal22ModuleSnapshotMinidump7BuildIDEv, symObjAddr: 0xC4C, symBinAddr: 0x486B4, symSize: 0xA0 }
  - { offset: 0x9EBC8, size: 0x8, addend: 0x0, symName: __ZNK8crashpad8internal22ModuleSnapshotMinidump17AnnotationsVectorEv, symObjAddr: 0xCEC, symBinAddr: 0x48754, symSize: 0xB0 }
  - { offset: 0x9ED26, size: 0x8, addend: 0x0, symName: __ZNK8crashpad8internal22ModuleSnapshotMinidump20AnnotationsSimpleMapEv, symObjAddr: 0xD9C, symBinAddr: 0x48804, symSize: 0x94 }
  - { offset: 0x9EE47, size: 0x8, addend: 0x0, symName: __ZNK8crashpad8internal22ModuleSnapshotMinidump17AnnotationObjectsEv, symObjAddr: 0xE30, symBinAddr: 0x48898, symSize: 0xB8 }
  - { offset: 0x9EFC3, size: 0x8, addend: 0x0, symName: __ZNK8crashpad8internal22ModuleSnapshotMinidump17ExtraMemoryRangesEv, symObjAddr: 0xEE8, symBinAddr: 0x48950, symSize: 0xF8 }
  - { offset: 0x9F10F, size: 0x8, addend: 0x0, symName: __ZNK8crashpad8internal22ModuleSnapshotMinidump21CustomMinidumpStreamsEv, symObjAddr: 0xFE0, symBinAddr: 0x48A48, symSize: 0xF0 }
  - { offset: 0x9F7EE, size: 0x8, addend: 0x0, symName: __ZNSt3__120back_insert_iteratorINS_6vectorIhNS_9allocatorIhEEEEEaSB8ne190102ERKh, symObjAddr: 0x1AE0, symBinAddr: 0x48B38, symSize: 0xE0 }
  - { offset: 0xA03DE, size: 0x8, addend: 0x0, symName: __ZN8crashpad11ProcessInfoC2Ev, symObjAddr: 0x0, symBinAddr: 0x48C18, symSize: 0x2C }
  - { offset: 0xA0434, size: 0x8, addend: 0x0, symName: __ZN8crashpad11ProcessInfoC1Ev, symObjAddr: 0x2C, symBinAddr: 0x48C44, symSize: 0x2C }
  - { offset: 0xA04AB, size: 0x8, addend: 0x0, symName: __ZN8crashpad11ProcessInfoD2Ev, symObjAddr: 0x58, symBinAddr: 0x48C70, symSize: 0xC }
  - { offset: 0xA0501, size: 0x8, addend: 0x0, symName: __ZN8crashpad11ProcessInfoD1Ev, symObjAddr: 0x64, symBinAddr: 0x48C7C, symSize: 0xC }
  - { offset: 0xA0584, size: 0x8, addend: 0x0, symName: __ZN8crashpad11ProcessInfo17InitializeWithPidEi, symObjAddr: 0x70, symBinAddr: 0x48C88, symSize: 0x284 }
  - { offset: 0xA0C03, size: 0x8, addend: 0x0, symName: __ZN8crashpad11ProcessInfo18InitializeWithTaskEj, symObjAddr: 0x2F4, symBinAddr: 0x48F0C, symSize: 0xA4 }
  - { offset: 0xA0C70, size: 0x8, addend: 0x0, symName: __ZNK8crashpad11ProcessInfo9ProcessIDEv, symObjAddr: 0x398, symBinAddr: 0x48FB0, symSize: 0x80 }
  - { offset: 0xA0CCC, size: 0x8, addend: 0x0, symName: __ZNK8crashpad11ProcessInfo15ParentProcessIDEv, symObjAddr: 0x418, symBinAddr: 0x49030, symSize: 0x80 }
  - { offset: 0xA0D28, size: 0x8, addend: 0x0, symName: __ZNK8crashpad11ProcessInfo10RealUserIDEv, symObjAddr: 0x498, symBinAddr: 0x490B0, symSize: 0x80 }
  - { offset: 0xA0D84, size: 0x8, addend: 0x0, symName: __ZNK8crashpad11ProcessInfo15EffectiveUserIDEv, symObjAddr: 0x518, symBinAddr: 0x49130, symSize: 0x80 }
  - { offset: 0xA0DE0, size: 0x8, addend: 0x0, symName: __ZNK8crashpad11ProcessInfo11SavedUserIDEv, symObjAddr: 0x598, symBinAddr: 0x491B0, symSize: 0x80 }
  - { offset: 0xA0E3C, size: 0x8, addend: 0x0, symName: __ZNK8crashpad11ProcessInfo11RealGroupIDEv, symObjAddr: 0x618, symBinAddr: 0x49230, symSize: 0x80 }
  - { offset: 0xA0E98, size: 0x8, addend: 0x0, symName: __ZNK8crashpad11ProcessInfo16EffectiveGroupIDEv, symObjAddr: 0x698, symBinAddr: 0x492B0, symSize: 0x80 }
  - { offset: 0xA0EF4, size: 0x8, addend: 0x0, symName: __ZNK8crashpad11ProcessInfo12SavedGroupIDEv, symObjAddr: 0x718, symBinAddr: 0x49330, symSize: 0x80 }
  - { offset: 0xA0F62, size: 0x8, addend: 0x0, symName: __ZNK8crashpad11ProcessInfo19SupplementaryGroupsEv, symObjAddr: 0x798, symBinAddr: 0x493B0, symSize: 0x148 }
  - { offset: 0xA1021, size: 0x8, addend: 0x0, symName: __ZN7logging17MakeCheckOpStringIsiEEPNSt3__112basic_stringIcNS1_11char_traitsIcEENS1_9allocatorIcEEEERKT_RKT0_PKc, symObjAddr: 0x1968, symBinAddr: 0x49E0C, symSize: 0x168 }
  - { offset: 0xA1791, size: 0x8, addend: 0x0, symName: __ZNSt3__13setIjNS_4lessIjEENS_9allocatorIjEEEC2B8ne190102IPKjEET_S9_RKS2_, symObjAddr: 0x1C38, symBinAddr: 0x49F74, symSize: 0x80 }
  - { offset: 0xA18BE, size: 0x8, addend: 0x0, symName: __ZNK8crashpad11ProcessInfo9AllGroupsEv, symObjAddr: 0x8E0, symBinAddr: 0x494F8, symSize: 0x108 }
  - { offset: 0xA1B2E, size: 0x8, addend: 0x0, symName: __ZNK8crashpad11ProcessInfo19DidChangePrivilegesEv, symObjAddr: 0x9E8, symBinAddr: 0x49600, symSize: 0x84 }
  - { offset: 0xA1B8A, size: 0x8, addend: 0x0, symName: __ZNK8crashpad11ProcessInfo7Is64BitEv, symObjAddr: 0xA6C, symBinAddr: 0x49684, symSize: 0x84 }
  - { offset: 0xA1BE6, size: 0x8, addend: 0x0, symName: __ZNK8crashpad11ProcessInfo9StartTimeEP7timeval, symObjAddr: 0xAF0, symBinAddr: 0x49708, symSize: 0x94 }
  - { offset: 0xA1D68, size: 0x8, addend: 0x0, symName: __ZNK8crashpad11ProcessInfo9ArgumentsEPNSt3__16vectorINS1_12basic_stringIcNS1_11char_traitsIcEENS1_9allocatorIcEEEENS6_IS8_EEEE, symObjAddr: 0xB84, symBinAddr: 0x4979C, symSize: 0x670 }
  - { offset: 0xA2BA3, size: 0x8, addend: 0x0, symName: __ZN7logging17MakeCheckOpStringIsiEEPNSt3__112basic_stringIcNS1_11char_traitsIcEENS1_9allocatorIcEEEERKT_RKT0_PKc, symObjAddr: 0x1968, symBinAddr: 0x49E0C, symSize: 0x168 }
  - { offset: 0xA2C03, size: 0x8, addend: 0x0, symName: __ZNSt3__16__treeIjNS_4lessIjEENS_9allocatorIjEEE30__emplace_hint_unique_key_argsIjJRKjEEENS_4pairINS_15__tree_iteratorIjPNS_11__tree_nodeIjPvEElEEbEENS_21__tree_const_iteratorIjSE_lEERKT_DpOT0_, symObjAddr: 0x1CB8, symBinAddr: 0x49FF4, symSize: 0x84 }
  - { offset: 0xA2CE4, size: 0x8, addend: 0x0, symName: __ZNSt3__16__treeIjNS_4lessIjEENS_9allocatorIjEEE12__find_equalIjEERPNS_16__tree_node_baseIPvEENS_21__tree_const_iteratorIjPNS_11__tree_nodeIjS8_EElEERPNS_15__tree_end_nodeISA_EESB_RKT_, symObjAddr: 0x1D3C, symBinAddr: 0x4A078, symSize: 0x1A8 }
  - { offset: 0xA2CF9, size: 0x8, addend: 0x0, symName: __ZNSt3__16__treeIjNS_4lessIjEENS_9allocatorIjEEE12__find_equalIjEERPNS_16__tree_node_baseIPvEENS_21__tree_const_iteratorIjPNS_11__tree_nodeIjS8_EElEERPNS_15__tree_end_nodeISA_EESB_RKT_, symObjAddr: 0x1D3C, symBinAddr: 0x4A078, symSize: 0x1A8 }
  - { offset: 0xA2D0E, size: 0x8, addend: 0x0, symName: __ZNSt3__16__treeIjNS_4lessIjEENS_9allocatorIjEEE12__find_equalIjEERPNS_16__tree_node_baseIPvEENS_21__tree_const_iteratorIjPNS_11__tree_nodeIjS8_EElEERPNS_15__tree_end_nodeISA_EESB_RKT_, symObjAddr: 0x1D3C, symBinAddr: 0x4A078, symSize: 0x1A8 }
  - { offset: 0xA3169, size: 0x8, addend: 0x0, symName: __ZNK8crashpad13ProcessMemory4ReadEyyPv, symObjAddr: 0x0, symBinAddr: 0x4A220, symSize: 0x15C }
  - { offset: 0xA3508, size: 0x8, addend: 0x0, symName: __ZNK8crashpad13ProcessMemory19ReadCStringInternalEybyPNSt3__112basic_stringIcNS1_11char_traitsIcEENS1_9allocatorIcEEEE, symObjAddr: 0x15C, symBinAddr: 0x4A37C, symSize: 0x188 }
  - { offset: 0xA3623, size: 0x8, addend: 0x0, symName: __ZN8crashpad13ProcessMemoryD1Ev, symObjAddr: 0x2E4, symBinAddr: 0x1B7FA0, symSize: 0x4 }
  - { offset: 0xA3634, size: 0x8, addend: 0x0, symName: __ZN8crashpad13ProcessMemoryD0Ev, symObjAddr: 0x2E8, symBinAddr: 0x1B7FA4, symSize: 0x4 }
  - { offset: 0xA3A3C, size: 0x8, addend: 0x0, symName: __ZN8crashpad8internal34ProcessSnapshotIOSIntermediateDump22InitializeWithFilePathERKN4base8FilePathERKNSt3__13mapINS6_12basic_stringIcNS6_11char_traitsIcEENS6_9allocatorIcEEEESD_NS6_4lessISD_EENSB_INS6_4pairIKSD_SD_EEEEEE, symObjAddr: 0x0, symBinAddr: 0x4A504, symSize: 0xC4 }
  - { offset: 0xA3C55, size: 0x8, addend: 0x0, symName: __ZN8crashpad8internal34ProcessSnapshotIOSIntermediateDump27InitializeWithFileInterfaceERKNS0_28IOSIntermediateDumpInterfaceERKNSt3__13mapINS5_12basic_stringIcNS5_11char_traitsIcEENS5_9allocatorIcEEEESC_NS5_4lessISC_EENSA_INS5_4pairIKSC_SC_EEEEEE, symObjAddr: 0xC4, symBinAddr: 0x4A5C8, symSize: 0x9BC }
  - { offset: 0xA551D, size: 0x8, addend: 0x0, symName: __ZNSt3__16__treeINS_12__value_typeINS_12basic_stringIcNS_11char_traitsIcEENS_9allocatorIcEEEES7_EENS_19__map_value_compareIS7_S8_NS_4lessIS7_EELb1EEENS5_IS8_EEE25__emplace_unique_key_argsIS7_JRKNS_21piecewise_construct_tENS_5tupleIJOS7_EEENSJ_IJEEEEEENS_4pairINS_15__tree_iteratorIS8_PNS_11__tree_nodeIS8_PvEElEEbEERKT_DpOT0_, symObjAddr: 0x25F8, symBinAddr: 0x4BD74, symSize: 0x9C }
  - { offset: 0xA5527, size: 0x8, addend: 0x0, symName: __ZNSt3__16__treeINS_12__value_typeINS_12basic_stringIcNS_11char_traitsIcEENS_9allocatorIcEEEES7_EENS_19__map_value_compareIS7_S8_NS_4lessIS7_EELb1EEENS5_IS8_EEE25__emplace_unique_key_argsIS7_JRKNS_21piecewise_construct_tENS_5tupleIJOS7_EEENSJ_IJEEEEEENS_4pairINS_15__tree_iteratorIS8_PNS_11__tree_nodeIS8_PvEElEEbEERKT_DpOT0_, symObjAddr: 0x25F8, symBinAddr: 0x4BD74, symSize: 0x9C }
  - { offset: 0xA56C1, size: 0x8, addend: 0x0, symName: __ZN8crashpad8internal19GetDataValueFromMapIhEEbPKNS0_22IOSIntermediateDumpMapERKNS0_19IntermediateDumpKeyEPT_NS0_26LogMissingDataValueFromMapE, symObjAddr: 0xAD8, symBinAddr: 0x4AF84, symSize: 0x58 }
  - { offset: 0xA5730, size: 0x8, addend: 0x0, symName: __ZN8crashpad8internal19GetDataValueFromMapI7timevalEEbPKNS0_22IOSIntermediateDumpMapERKNS0_19IntermediateDumpKeyEPT_NS0_26LogMissingDataValueFromMapE, symObjAddr: 0xB80, symBinAddr: 0x4AFDC, symSize: 0x50 }
  - { offset: 0xA585D, size: 0x8, addend: 0x0, symName: __ZNSt3__114__split_bufferINS_10unique_ptrIN8crashpad8internal33ThreadSnapshotIOSIntermediateDumpENS_14default_deleteIS4_EEEERNS_9allocatorIS7_EEED2Ev, symObjAddr: 0x2B84, symBinAddr: 0x4BE10, symSize: 0x50 }
  - { offset: 0xA5867, size: 0x8, addend: 0x0, symName: __ZNSt3__114__split_bufferINS_10unique_ptrIN8crashpad8internal33ThreadSnapshotIOSIntermediateDumpENS_14default_deleteIS4_EEEERNS_9allocatorIS7_EEED2Ev, symObjAddr: 0x2B84, symBinAddr: 0x4BE10, symSize: 0x50 }
  - { offset: 0xA59AC, size: 0x8, addend: 0x0, symName: __ZNSt3__114__split_bufferINS_10unique_ptrIN8crashpad8internal33ModuleSnapshotIOSIntermediateDumpENS_14default_deleteIS4_EEEERNS_9allocatorIS7_EEED2Ev, symObjAddr: 0x2C44, symBinAddr: 0x4BE60, symSize: 0x50 }
  - { offset: 0xA59B6, size: 0x8, addend: 0x0, symName: __ZNSt3__114__split_bufferINS_10unique_ptrIN8crashpad8internal33ModuleSnapshotIOSIntermediateDumpENS_14default_deleteIS4_EEEERNS_9allocatorIS7_EEED2Ev, symObjAddr: 0x2C44, symBinAddr: 0x4BE60, symSize: 0x50 }
  - { offset: 0xA5C9D, size: 0x8, addend: 0x0, symName: __ZN8crashpad8internal34ProcessSnapshotIOSIntermediateDump11SetClientIDERKNS_4UUIDE, symObjAddr: 0xC88, symBinAddr: 0x4B02C, symSize: 0x94 }
  - { offset: 0xA5CF9, size: 0x8, addend: 0x0, symName: __ZN8crashpad8internal34ProcessSnapshotIOSIntermediateDump11SetReportIDERKNS_4UUIDE, symObjAddr: 0xD1C, symBinAddr: 0x4B0C0, symSize: 0x94 }
  - { offset: 0xA5D55, size: 0x8, addend: 0x0, symName: __ZNK8crashpad8internal34ProcessSnapshotIOSIntermediateDump9ProcessIDEv, symObjAddr: 0xDB0, symBinAddr: 0x4B154, symSize: 0x80 }
  - { offset: 0xA5DB1, size: 0x8, addend: 0x0, symName: __ZNK8crashpad8internal34ProcessSnapshotIOSIntermediateDump15ParentProcessIDEv, symObjAddr: 0xE30, symBinAddr: 0x4B1D4, symSize: 0x80 }
  - { offset: 0xA5E0D, size: 0x8, addend: 0x0, symName: __ZNK8crashpad8internal34ProcessSnapshotIOSIntermediateDump12SnapshotTimeEP7timeval, symObjAddr: 0xEB0, symBinAddr: 0x4B254, symSize: 0x90 }
  - { offset: 0xA5E69, size: 0x8, addend: 0x0, symName: __ZNK8crashpad8internal34ProcessSnapshotIOSIntermediateDump16ProcessStartTimeEP7timeval, symObjAddr: 0xF40, symBinAddr: 0x4B2E4, symSize: 0x90 }
  - { offset: 0xA5ECB, size: 0x8, addend: 0x0, symName: __ZNK8crashpad8internal34ProcessSnapshotIOSIntermediateDump15ProcessCPUTimesEP7timevalS3_, symObjAddr: 0xFD0, symBinAddr: 0x4B374, symSize: 0x12C }
  - { offset: 0xA5F77, size: 0x8, addend: 0x0, symName: __ZNK8crashpad8internal34ProcessSnapshotIOSIntermediateDump8ReportIDEPNS_4UUIDE, symObjAddr: 0x10FC, symBinAddr: 0x4B4A0, symSize: 0x94 }
  - { offset: 0xA5FD3, size: 0x8, addend: 0x0, symName: __ZNK8crashpad8internal34ProcessSnapshotIOSIntermediateDump8ClientIDEPNS_4UUIDE, symObjAddr: 0x1190, symBinAddr: 0x4B534, symSize: 0x94 }
  - { offset: 0xA602F, size: 0x8, addend: 0x0, symName: __ZNK8crashpad8internal34ProcessSnapshotIOSIntermediateDump20AnnotationsSimpleMapEv, symObjAddr: 0x1224, symBinAddr: 0x4B5C8, symSize: 0x80 }
  - { offset: 0xA608B, size: 0x8, addend: 0x0, symName: __ZNK8crashpad8internal34ProcessSnapshotIOSIntermediateDump6SystemEv, symObjAddr: 0x12A4, symBinAddr: 0x4B648, symSize: 0x80 }
  - { offset: 0xA6189, size: 0x8, addend: 0x0, symName: __ZNK8crashpad8internal34ProcessSnapshotIOSIntermediateDump7ThreadsEv, symObjAddr: 0x1324, symBinAddr: 0x4B6C8, symSize: 0x190 }
  - { offset: 0xA65FF, size: 0x8, addend: 0x0, symName: __ZNK8crashpad8internal34ProcessSnapshotIOSIntermediateDump7ModulesEv, symObjAddr: 0x14B4, symBinAddr: 0x4B858, symSize: 0x190 }
  - { offset: 0xA69DF, size: 0x8, addend: 0x0, symName: __ZNK8crashpad8internal34ProcessSnapshotIOSIntermediateDump15UnloadedModulesEv, symObjAddr: 0x1644, symBinAddr: 0x4B9E8, symSize: 0x84 }
  - { offset: 0xA6A6E, size: 0x8, addend: 0x0, symName: __ZNK8crashpad8internal34ProcessSnapshotIOSIntermediateDump9ExceptionEv, symObjAddr: 0x16C8, symBinAddr: 0x4BA6C, symSize: 0x80 }
  - { offset: 0xA6AED, size: 0x8, addend: 0x0, symName: __ZNK8crashpad8internal34ProcessSnapshotIOSIntermediateDump9MemoryMapEv, symObjAddr: 0x1748, symBinAddr: 0x4BAEC, symSize: 0x84 }
  - { offset: 0xA6B82, size: 0x8, addend: 0x0, symName: __ZNK8crashpad8internal34ProcessSnapshotIOSIntermediateDump7HandlesEv, symObjAddr: 0x17CC, symBinAddr: 0x4BB70, symSize: 0x84 }
  - { offset: 0xA6C17, size: 0x8, addend: 0x0, symName: __ZNK8crashpad8internal34ProcessSnapshotIOSIntermediateDump11ExtraMemoryEv, symObjAddr: 0x1850, symBinAddr: 0x4BBF4, symSize: 0x84 }
  - { offset: 0xA6CA0, size: 0x8, addend: 0x0, symName: __ZNK8crashpad8internal34ProcessSnapshotIOSIntermediateDump6MemoryEv, symObjAddr: 0x18D4, symBinAddr: 0x4BC78, symSize: 0x7C }
  - { offset: 0xA6ED0, size: 0x8, addend: 0x0, symName: __ZN8crashpad8internal34ProcessSnapshotIOSIntermediateDumpD0Ev, symObjAddr: 0x19CC, symBinAddr: 0x4BCF4, symSize: 0x80 }
  - { offset: 0xA7DA8, size: 0x8, addend: 0x0, symName: __ZN8crashpad23ProcessSnapshotMinidumpC2Ev, symObjAddr: 0x0, symBinAddr: 0x4BEB0, symSize: 0x1A0 }
  - { offset: 0xA8474, size: 0x8, addend: 0x0, symName: __ZNSt3__16vectorINS_10unique_ptrIN8crashpad14MinidumpStreamENS_14default_deleteIS3_EEEENS_9allocatorIS6_EEE16__destroy_vectorclB8ne190102Ev, symObjAddr: 0x35A0, symBinAddr: 0x4EED4, symSize: 0x40 }
  - { offset: 0xA868F, size: 0x8, addend: 0x0, symName: __ZNSt3__16__treeINS_12__value_typeIjNS_12basic_stringIcNS_11char_traitsIcEENS_9allocatorIcEEEEEENS_19__map_value_compareIjS8_NS_4lessIjEELb1EEENS5_IS8_EEE7destroyEPNS_11__tree_nodeIS8_PvEE, symObjAddr: 0x33E8, symBinAddr: 0x4EE84, symSize: 0x50 }
  - { offset: 0xA88CD, size: 0x8, addend: 0x0, symName: __ZNSt3__16vectorINS_10unique_ptrIN8crashpad8internal22ModuleSnapshotMinidumpENS_14default_deleteIS4_EEEENS_9allocatorIS7_EEE16__destroy_vectorclB8ne190102Ev, symObjAddr: 0x32F8, symBinAddr: 0x4EE10, symSize: 0x74 }
  - { offset: 0xA8A1A, size: 0x8, addend: 0x0, symName: __ZN8crashpad23ProcessSnapshotMinidumpC1Ev, symObjAddr: 0x1A0, symBinAddr: 0x4C050, symSize: 0x4 }
  - { offset: 0xA8A2F, size: 0x8, addend: 0x0, symName: __ZN8crashpad23ProcessSnapshotMinidumpC1Ev, symObjAddr: 0x1A0, symBinAddr: 0x4C050, symSize: 0x4 }
  - { offset: 0xA8A8D, size: 0x8, addend: 0x0, symName: __ZN8crashpad23ProcessSnapshotMinidumpD2Ev, symObjAddr: 0x1A4, symBinAddr: 0x4C054, symSize: 0xF4 }
  - { offset: 0xA9111, size: 0x8, addend: 0x0, symName: __ZN8crashpad23ProcessSnapshotMinidumpD1Ev, symObjAddr: 0x298, symBinAddr: 0x4C148, symSize: 0x4 }
  - { offset: 0xA9126, size: 0x8, addend: 0x0, symName: __ZN8crashpad23ProcessSnapshotMinidumpD1Ev, symObjAddr: 0x298, symBinAddr: 0x4C148, symSize: 0x4 }
  - { offset: 0xA9136, size: 0x8, addend: 0x0, symName: __ZN8crashpad23ProcessSnapshotMinidumpD0Ev, symObjAddr: 0x29C, symBinAddr: 0x4C14C, symSize: 0x14 }
  - { offset: 0xA91B7, size: 0x8, addend: 0x0, symName: __ZN8crashpad23ProcessSnapshotMinidump10InitializeEPNS_19FileReaderInterfaceE, symObjAddr: 0x2B0, symBinAddr: 0x4C160, symSize: 0x36C }
  - { offset: 0xA967F, size: 0x8, addend: 0x0, symName: __ZNSt3__16vectorI18MINIDUMP_DIRECTORYNS_9allocatorIS1_EEE6resizeEm, symObjAddr: 0x61C, symBinAddr: 0x4C4CC, symSize: 0x3C }
  - { offset: 0xA9694, size: 0x8, addend: 0x0, symName: __ZNSt3__16vectorI18MINIDUMP_DIRECTORYNS_9allocatorIS1_EEE6resizeEm, symObjAddr: 0x61C, symBinAddr: 0x4C4CC, symSize: 0x3C }
  - { offset: 0xA96DE, size: 0x8, addend: 0x0, symName: __ZNSt3__16__treeINS_12__value_typeIN8crashpad18MinidumpStreamTypeEPK28MINIDUMP_LOCATION_DESCRIPTOREENS_19__map_value_compareIS3_S7_NS_4lessIS3_EELb1EEENS_9allocatorIS7_EEE25__emplace_unique_key_argsIS3_JRKNS_21piecewise_construct_tENS_5tupleIJRKS3_EEENSJ_IJEEEEEENS_4pairINS_15__tree_iteratorIS7_PNS_11__tree_nodeIS7_PvEElEEbEERKT_DpOT0_, symObjAddr: 0x3BCC, symBinAddr: 0x4F0D8, symSize: 0xC0 }
  - { offset: 0xA982A, size: 0x8, addend: 0x0, symName: __ZN8crashpad23ProcessSnapshotMinidump22InitializeCrashpadInfoEv, symObjAddr: 0x658, symBinAddr: 0x4C508, symSize: 0x180 }
  - { offset: 0xA9954, size: 0x8, addend: 0x0, symName: __ZN8crashpad23ProcessSnapshotMinidump18InitializeMiscInfoEv, symObjAddr: 0x7D8, symBinAddr: 0x4C688, symSize: 0x234 }
  - { offset: 0xA9C2D, size: 0x8, addend: 0x0, symName: __ZN8crashpad23ProcessSnapshotMinidump17InitializeModulesEv, symObjAddr: 0xA0C, symBinAddr: 0x4C8BC, symSize: 0x374 }
  - { offset: 0xAA2CD, size: 0x8, addend: 0x0, symName: __ZN8crashpad23ProcessSnapshotMinidump24InitializeSystemSnapshotEv, symObjAddr: 0xD80, symBinAddr: 0x4CC30, symSize: 0xC8 }
  - { offset: 0xAA3BB, size: 0x8, addend: 0x0, symName: __ZN8crashpad23ProcessSnapshotMinidump20InitializeMemoryInfoEv, symObjAddr: 0xE48, symBinAddr: 0x4CCF8, symSize: 0x388 }
  - { offset: 0xAAA04, size: 0x8, addend: 0x0, symName: __ZN8crashpad23ProcessSnapshotMinidump21InitializeExtraMemoryEv, symObjAddr: 0x11D0, symBinAddr: 0x4D080, symSize: 0x274 }
  - { offset: 0xAADF9, size: 0x8, addend: 0x0, symName: __ZN8crashpad23ProcessSnapshotMinidump17InitializeThreadsEv, symObjAddr: 0x1444, symBinAddr: 0x4D2F4, symSize: 0x2F0 }
  - { offset: 0xAB277, size: 0x8, addend: 0x0, symName: __ZN8crashpad23ProcessSnapshotMinidump31InitializeCustomMinidumpStreamsEv, symObjAddr: 0x1734, symBinAddr: 0x4D5E4, symSize: 0x348 }
  - { offset: 0xABB21, size: 0x8, addend: 0x0, symName: __ZN8crashpad23ProcessSnapshotMinidump27InitializeExceptionSnapshotEv, symObjAddr: 0x1A7C, symBinAddr: 0x4D92C, symSize: 0xEC }
  - { offset: 0xABCBB, size: 0x8, addend: 0x0, symName: __ZNSt3__16vectorI18MINIDUMP_DIRECTORYNS_9allocatorIS1_EEE8__appendEm, symObjAddr: 0x3A10, symBinAddr: 0x4EF74, symSize: 0x164 }
  - { offset: 0xAC014, size: 0x8, addend: 0x0, symName: __ZN8crashpad23ProcessSnapshotMinidump29InitializeModulesCrashpadInfoEPNSt3__13mapIj28MINIDUMP_LOCATION_DESCRIPTORNS1_4lessIjEENS1_9allocatorINS1_4pairIKjS3_EEEEEE, symObjAddr: 0x2B54, symBinAddr: 0x4E974, symSize: 0x264 }
  - { offset: 0xAC277, size: 0x8, addend: 0x0, symName: __ZNSt3__114__split_bufferINS_10unique_ptrIN8crashpad8internal22ModuleSnapshotMinidumpENS_14default_deleteIS4_EEEERNS_9allocatorIS7_EEED2Ev, symObjAddr: 0x43BC, symBinAddr: 0x4F3CC, symSize: 0x50 }
  - { offset: 0xAC281, size: 0x8, addend: 0x0, symName: __ZNSt3__114__split_bufferINS_10unique_ptrIN8crashpad8internal22ModuleSnapshotMinidumpENS_14default_deleteIS4_EEEERNS_9allocatorIS7_EEED2Ev, symObjAddr: 0x43BC, symBinAddr: 0x4F3CC, symSize: 0x50 }
  - { offset: 0xAC84E, size: 0x8, addend: 0x0, symName: __ZN8crashpad23ProcessSnapshotMinidump21InitializeThreadNamesEv, symObjAddr: 0x2DB8, symBinAddr: 0x4EBD8, symSize: 0x238 }
  - { offset: 0xACF7A, size: 0x8, addend: 0x0, symName: __ZNSt3__114__split_bufferINS_10unique_ptrIN8crashpad14MinidumpStreamENS_14default_deleteIS3_EEEERNS_9allocatorIS6_EEED2Ev, symObjAddr: 0x4A0C, symBinAddr: 0x4F5F8, symSize: 0x34 }
  - { offset: 0xACF84, size: 0x8, addend: 0x0, symName: __ZNSt3__114__split_bufferINS_10unique_ptrIN8crashpad14MinidumpStreamENS_14default_deleteIS3_EEEERNS_9allocatorIS6_EEED2Ev, symObjAddr: 0x4A0C, symBinAddr: 0x4F5F8, symSize: 0x34 }
  - { offset: 0xAD024, size: 0x8, addend: 0x0, symName: __ZNKSt3__114default_deleteIN8crashpad14MinidumpStreamEEclB8ne190102EPS2_, symObjAddr: 0x498C, symBinAddr: 0x4F5C0, symSize: 0x38 }
  - { offset: 0xAD157, size: 0x8, addend: 0x0, symName: __ZNK8crashpad23ProcessSnapshotMinidump9ProcessIDEv, symObjAddr: 0x1B68, symBinAddr: 0x4DA18, symSize: 0x80 }
  - { offset: 0xAD1B3, size: 0x8, addend: 0x0, symName: __ZNK8crashpad23ProcessSnapshotMinidump15ParentProcessIDEv, symObjAddr: 0x1BE8, symBinAddr: 0x4DA98, symSize: 0xE0 }
  - { offset: 0xAD25D, size: 0x8, addend: 0x0, symName: __ZNK8crashpad23ProcessSnapshotMinidump12SnapshotTimeEP7timeval, symObjAddr: 0x1CC8, symBinAddr: 0x4DB78, symSize: 0x94 }
  - { offset: 0xAD2B9, size: 0x8, addend: 0x0, symName: __ZNK8crashpad23ProcessSnapshotMinidump16ProcessStartTimeEP7timeval, symObjAddr: 0x1D5C, symBinAddr: 0x4DC0C, symSize: 0x94 }
  - { offset: 0xAD315, size: 0x8, addend: 0x0, symName: __ZNK8crashpad23ProcessSnapshotMinidump15ProcessCPUTimesEP7timevalS2_, symObjAddr: 0x1DF0, symBinAddr: 0x4DCA0, symSize: 0xA4 }
  - { offset: 0xAD371, size: 0x8, addend: 0x0, symName: __ZNK8crashpad23ProcessSnapshotMinidump8ReportIDEPNS_4UUIDE, symObjAddr: 0x1E94, symBinAddr: 0x4DD44, symSize: 0x94 }
  - { offset: 0xAD3CD, size: 0x8, addend: 0x0, symName: __ZNK8crashpad23ProcessSnapshotMinidump8ClientIDEPNS_4UUIDE, symObjAddr: 0x1F28, symBinAddr: 0x4DDD8, symSize: 0x94 }
  - { offset: 0xAD429, size: 0x8, addend: 0x0, symName: __ZNK8crashpad23ProcessSnapshotMinidump20AnnotationsSimpleMapEv, symObjAddr: 0x1FBC, symBinAddr: 0x4DE6C, symSize: 0x80 }
  - { offset: 0xAD485, size: 0x8, addend: 0x0, symName: __ZNK8crashpad23ProcessSnapshotMinidump6SystemEv, symObjAddr: 0x203C, symBinAddr: 0x4DEEC, symSize: 0x80 }
  - { offset: 0xAD583, size: 0x8, addend: 0x0, symName: __ZNK8crashpad23ProcessSnapshotMinidump7ThreadsEv, symObjAddr: 0x20BC, symBinAddr: 0x4DF6C, symSize: 0x190 }
  - { offset: 0xAD9F1, size: 0x8, addend: 0x0, symName: __ZNK8crashpad23ProcessSnapshotMinidump7ModulesEv, symObjAddr: 0x224C, symBinAddr: 0x4E0FC, symSize: 0x190 }
  - { offset: 0xADDA0, size: 0x8, addend: 0x0, symName: __ZNSt3__16vectorIN8crashpad22UnloadedModuleSnapshotENS_9allocatorIS2_EEE16__init_with_sizeB8ne190102IPS2_S7_EEvT_T0_m, symObjAddr: 0x3F0C, symBinAddr: 0x4F198, symSize: 0x84 }
  - { offset: 0xADDCF, size: 0x8, addend: 0x0, symName: __ZNK8crashpad23ProcessSnapshotMinidump15UnloadedModulesEv, symObjAddr: 0x23DC, symBinAddr: 0x4E28C, symSize: 0x114 }
  - { offset: 0xADEC6, size: 0x8, addend: 0x0, symName: __ZNSt3__16vectorIN8crashpad22UnloadedModuleSnapshotENS_9allocatorIS2_EEE16__init_with_sizeB8ne190102IPS2_S7_EEvT_T0_m, symObjAddr: 0x3F0C, symBinAddr: 0x4F198, symSize: 0x84 }
  - { offset: 0xAE02D, size: 0x8, addend: 0x0, symName: __ZNK8crashpad23ProcessSnapshotMinidump9ExceptionEv, symObjAddr: 0x24F0, symBinAddr: 0x4E3A0, symSize: 0x8C }
  - { offset: 0xAE0BE, size: 0x8, addend: 0x0, symName: __ZNK8crashpad23ProcessSnapshotMinidump9MemoryMapEv, symObjAddr: 0x257C, symBinAddr: 0x4E42C, symSize: 0xA4 }
  - { offset: 0xAE167, size: 0x8, addend: 0x0, symName: __ZNSt3__16vectorIPKN8crashpad23MemoryMapRegionSnapshotENS_9allocatorIS4_EEE16__init_with_sizeB8ne190102IPS4_S9_EEvT_T0_m, symObjAddr: 0x417C, symBinAddr: 0x4F32C, symSize: 0x78 }
  - { offset: 0xAE37F, size: 0x8, addend: 0x0, symName: __ZNK8crashpad23ProcessSnapshotMinidump7HandlesEv, symObjAddr: 0x2620, symBinAddr: 0x4E4D0, symSize: 0xF0 }
  - { offset: 0xAE4F5, size: 0x8, addend: 0x0, symName: __ZNK8crashpad23ProcessSnapshotMinidump11ExtraMemoryEv, symObjAddr: 0x2710, symBinAddr: 0x4E5C0, symSize: 0x190 }
  - { offset: 0xAE8C1, size: 0x8, addend: 0x0, symName: __ZNK8crashpad23ProcessSnapshotMinidump6MemoryEv, symObjAddr: 0x28A0, symBinAddr: 0x4E750, symSize: 0x7C }
  - { offset: 0xAE9BF, size: 0x8, addend: 0x0, symName: __ZNK8crashpad23ProcessSnapshotMinidump21CustomMinidumpStreamsEv, symObjAddr: 0x291C, symBinAddr: 0x4E7CC, symSize: 0x1A8 }
  - { offset: 0xAEE15, size: 0x8, addend: 0x0, symName: __ZN8crashpad23ProcessSnapshotMinidump29InitializeModulesCrashpadInfoEPNSt3__13mapIj28MINIDUMP_LOCATION_DESCRIPTORNS1_4lessIjEENS1_9allocatorINS1_4pairIKjS3_EEEEEE, symObjAddr: 0x2B54, symBinAddr: 0x4E974, symSize: 0x264 }
  - { offset: 0xAEEAE, size: 0x8, addend: 0x0, symName: __ZNSt3__16__treeINS_12__value_typeIj28MINIDUMP_LOCATION_DESCRIPTOREENS_19__map_value_compareIjS3_NS_4lessIjEELb1EEENS_9allocatorIS3_EEE25__emplace_unique_key_argsIjJNS_4pairIjS2_EEEEENSC_INS_15__tree_iteratorIS3_PNS_11__tree_nodeIS3_PvEElEEbEERKT_DpOT0_, symObjAddr: 0x440C, symBinAddr: 0x4F41C, symSize: 0xC0 }
  - { offset: 0xAF015, size: 0x8, addend: 0x0, symName: __ZNSt3__16__treeINS_12__value_typeIjNS_12basic_stringIcNS_11char_traitsIcEENS_9allocatorIcEEEEEENS_19__map_value_compareIjS8_NS_4lessIjEELb1EEENS5_IS8_EEE25__emplace_unique_key_argsIjJRKjS7_EEENS_4pairINS_15__tree_iteratorIS8_PNS_11__tree_nodeIS8_PvEElEEbEERKT_DpOT0_, symObjAddr: 0x4728, symBinAddr: 0x4F4EC, symSize: 0xD4 }
  - { offset: 0xAF316, size: 0x8, addend: 0x0, symName: __ZNSt3__110unique_ptrIN8crashpad8internal22ModuleSnapshotMinidumpENS_14default_deleteIS3_EEE5resetB8ne190102EPS3_, symObjAddr: 0x434C, symBinAddr: 0x4F3A4, symSize: 0x28 }
  - { offset: 0xAF403, size: 0x8, addend: 0x0, symName: __ZNSt3__16vectorINS_10unique_ptrIN8crashpad14MinidumpStreamENS_14default_deleteIS3_EEEENS_9allocatorIS6_EEE22__base_destruct_at_endB8ne190102EPS6_, symObjAddr: 0x35E0, symBinAddr: 0x4EF14, symSize: 0x60 }
  - { offset: 0xAF7A5, size: 0x8, addend: 0x0, symName: __ZNSt3__16vectorI18MINIDUMP_DIRECTORYNS_9allocatorIS1_EEE8__appendEm, symObjAddr: 0x3A10, symBinAddr: 0x4EF74, symSize: 0x164 }
  - { offset: 0xAF845, size: 0x8, addend: 0x0, symName: __ZNSt3__16__treeINS_12__value_typeIN8crashpad18MinidumpStreamTypeEPK28MINIDUMP_LOCATION_DESCRIPTOREENS_19__map_value_compareIS3_S7_NS_4lessIS3_EELb1EEENS_9allocatorIS7_EEE25__emplace_unique_key_argsIS3_JRKNS_21piecewise_construct_tENS_5tupleIJRKS3_EEENSJ_IJEEEEEENS_4pairINS_15__tree_iteratorIS7_PNS_11__tree_nodeIS7_PvEElEEbEERKT_DpOT0_, symObjAddr: 0x3BCC, symBinAddr: 0x4F0D8, symSize: 0xC0 }
  - { offset: 0xAF9ED, size: 0x8, addend: 0x0, symName: __ZNSt3__16vectorIN8crashpad22UnloadedModuleSnapshotENS_9allocatorIS2_EEE11__vallocateB8ne190102Em, symObjAddr: 0x3F90, symBinAddr: 0x4F21C, symSize: 0x50 }
  - { offset: 0xAFA2E, size: 0x8, addend: 0x0, symName: __ZNSt3__135__uninitialized_allocator_copy_implB8ne190102INS_9allocatorIN8crashpad22UnloadedModuleSnapshotEEEPS3_S5_S5_EET2_RT_T0_T1_S6_, symObjAddr: 0x4038, symBinAddr: 0x4F26C, symSize: 0xC0 }
  - { offset: 0xAFBB2, size: 0x8, addend: 0x0, symName: __ZNSt3__135__uninitialized_allocator_copy_implB8ne190102INS_9allocatorIN8crashpad22UnloadedModuleSnapshotEEEPS3_S5_S5_EET2_RT_T0_T1_S6_, symObjAddr: 0x4038, symBinAddr: 0x4F26C, symSize: 0xC0 }
  - { offset: 0xAFC81, size: 0x8, addend: 0x0, symName: __ZNSt3__16vectorIPKN8crashpad23MemoryMapRegionSnapshotENS_9allocatorIS4_EEE16__init_with_sizeB8ne190102IPS4_S9_EEvT_T0_m, symObjAddr: 0x417C, symBinAddr: 0x4F32C, symSize: 0x78 }
  - { offset: 0xAFD8D, size: 0x8, addend: 0x0, symName: __ZN8crashpad8internal31MemoryMapRegionSnapshotMinidumpD1Ev, symObjAddr: 0x4520, symBinAddr: 0x4F4DC, symSize: 0x4 }
  - { offset: 0xAFD9E, size: 0x8, addend: 0x0, symName: __ZN8crashpad8internal31MemoryMapRegionSnapshotMinidumpD0Ev, symObjAddr: 0x4524, symBinAddr: 0x4F4E0, symSize: 0x4 }
  - { offset: 0xAFDAF, size: 0x8, addend: 0x0, symName: __ZNK8crashpad8internal31MemoryMapRegionSnapshotMinidump20AsMinidumpMemoryInfoEv, symObjAddr: 0x4528, symBinAddr: 0x4F4E4, symSize: 0x8 }
  - { offset: 0xAFF2C, size: 0x8, addend: 0x0, symName: __ZNSt3__114__split_bufferINS_10unique_ptrIN8crashpad14MinidumpStreamENS_14default_deleteIS3_EEEERNS_9allocatorIS6_EEE17__destruct_at_endB8ne190102EPS6_, symObjAddr: 0x4A40, symBinAddr: 0x4F62C, symSize: 0x50 }
  - { offset: 0xAFF41, size: 0x8, addend: 0x0, symName: __ZNSt3__114__split_bufferINS_10unique_ptrIN8crashpad14MinidumpStreamENS_14default_deleteIS3_EEEERNS_9allocatorIS6_EEE17__destruct_at_endB8ne190102EPS6_, symObjAddr: 0x4A40, symBinAddr: 0x4F62C, symSize: 0x50 }
  - { offset: 0xB0001, size: 0x8, addend: 0x0, symName: __ZN4base10RandUint64Ev, symObjAddr: 0x0, symBinAddr: 0x4F67C, symSize: 0x28 }
  - { offset: 0xB0020, size: 0x8, addend: 0x0, symName: __ZN4base9RandBytesEPvm, symObjAddr: 0x28, symBinAddr: 0x4F6A4, symSize: 0xFC }
  - { offset: 0xB015F, size: 0x8, addend: 0x0, symName: __ZN12_GLOBAL__N_120GetUrandomFDInternalEv, symObjAddr: 0x28C, symBinAddr: 0x4F908, symSize: 0x4C }
  - { offset: 0xB0197, size: 0x8, addend: 0x0, symName: __ZN4base7RandIntEii, symObjAddr: 0x124, symBinAddr: 0x4F7A0, symSize: 0x6C }
  - { offset: 0xB01DF, size: 0x8, addend: 0x0, symName: __ZN4base13RandGeneratorEy, symObjAddr: 0x190, symBinAddr: 0x4F80C, symSize: 0x54 }
  - { offset: 0xB0218, size: 0x8, addend: 0x0, symName: __ZN4base10RandDoubleEv, symObjAddr: 0x1E4, symBinAddr: 0x4F860, symSize: 0x34 }
  - { offset: 0xB02C5, size: 0x8, addend: 0x0, symName: __ZN4base17RandBytesAsStringEm, symObjAddr: 0x218, symBinAddr: 0x4F894, symSize: 0x74 }
  - { offset: 0xB0752, size: 0x8, addend: 0x0, symName: __ZN8crashpad12RandomStringEv, symObjAddr: 0x0, symBinAddr: 0x4F954, symSize: 0x68 }
  - { offset: 0xB07B3, size: 0x8, addend: 0x0, symName: __ZN8crashpad12RandomStringEv, symObjAddr: 0x0, symBinAddr: 0x4F954, symSize: 0x68 }
  - { offset: 0xB0926, size: 0x8, addend: 0x0, symName: __ZN8crashpad8internal23SetFileHandleForTestingEi, symObjAddr: 0x0, symBinAddr: 0x4F9BC, symSize: 0x10 }
  - { offset: 0xB0945, size: 0x8, addend: 0x0, symName: __ZN8crashpad8internal23SetFileHandleForTestingEi, symObjAddr: 0x0, symBinAddr: 0x4F9BC, symSize: 0x10 }
  - { offset: 0xB095A, size: 0x8, addend: 0x0, symName: __ZN8crashpad8internal23SetFileHandleForTestingEi, symObjAddr: 0x0, symBinAddr: 0x4F9BC, symSize: 0x10 }
  - { offset: 0xB096E, size: 0x8, addend: 0x0, symName: __ZN8crashpad8internal23SetFileHandleForTestingEi, symObjAddr: 0x0, symBinAddr: 0x4F9BC, symSize: 0x10 }
  - { offset: 0xB0982, size: 0x8, addend: 0x0, symName: __ZN8crashpad8internal23SetFileHandleForTestingEi, symObjAddr: 0x0, symBinAddr: 0x4F9BC, symSize: 0x10 }
  - { offset: 0xB09AD, size: 0x8, addend: 0x0, symName: __ZN8crashpad8internal6RawLogEPKciS2_i, symObjAddr: 0x10, symBinAddr: 0x4F9CC, symSize: 0x194 }
  - { offset: 0xB0B30, size: 0x8, addend: 0x0, symName: __ZN8crashpad8internalL12RawLogStringEPKc, symObjAddr: 0x1A4, symBinAddr: 0x4FB60, symSize: 0x80 }
  - { offset: 0xB0BDF, size: 0x8, addend: 0x0, symName: __ZN4base15safe_strerror_rEiPcm, symObjAddr: 0x0, symBinAddr: 0x4FBE0, symSize: 0x64 }
  - { offset: 0xB0BEC, size: 0x8, addend: 0x0, symName: __ZN4base15safe_strerror_rEiPcm, symObjAddr: 0x0, symBinAddr: 0x4FBE0, symSize: 0x64 }
  - { offset: 0xB0C41, size: 0x8, addend: 0x0, symName: __ZN4base13safe_strerrorEi, symObjAddr: 0x64, symBinAddr: 0x4FC44, symSize: 0x68 }
  - { offset: 0xB0DD9, size: 0x8, addend: 0x0, symName: __ZN8crashpad8internal20ScopedBackgroundTaskC2EPKc, symObjAddr: 0x0, symBinAddr: 0x4FCAC, symSize: 0x134 }
  - { offset: 0xB0DE6, size: 0x8, addend: 0x0, symName: __ZN8crashpad8internal20ScopedBackgroundTaskC2EPKc, symObjAddr: 0x0, symBinAddr: 0x4FCAC, symSize: 0x134 }
  - { offset: 0xB0E0C, size: 0x8, addend: 0x0, symName: ____ZN8crashpad8internal20ScopedBackgroundTaskC2EPKc_block_invoke, symObjAddr: 0x134, symBinAddr: 0x4FDE0, symSize: 0x40 }
  - { offset: 0xB0E32, size: 0x8, addend: 0x0, symName: ___copy_helper_block_ea8_32w, symObjAddr: 0x174, symBinAddr: 0x4FE20, symSize: 0xC }
  - { offset: 0xB0E3F, size: 0x8, addend: 0x0, symName: ___destroy_helper_block_ea8_32w, symObjAddr: 0x180, symBinAddr: 0x4FE2C, symSize: 0x8 }
  - { offset: 0xB0E4C, size: 0x8, addend: 0x0, symName: __ZN8crashpad8internal20ScopedBackgroundTaskC1EPKc, symObjAddr: 0x188, symBinAddr: 0x4FE34, symSize: 0x4 }
  - { offset: 0xB0E61, size: 0x8, addend: 0x0, symName: __ZN8crashpad8internal20ScopedBackgroundTaskC1EPKc, symObjAddr: 0x188, symBinAddr: 0x4FE34, symSize: 0x4 }
  - { offset: 0xB0E6B, size: 0x8, addend: 0x0, symName: __ZN8crashpad8internal20ScopedBackgroundTaskD2Ev, symObjAddr: 0x18C, symBinAddr: 0x4FE38, symSize: 0x30 }
  - { offset: 0xB0E97, size: 0x8, addend: 0x0, symName: __ZN8crashpad8internal20ScopedBackgroundTaskD1Ev, symObjAddr: 0x1BC, symBinAddr: 0x4FE68, symSize: 0x30 }
  - { offset: 0xB0F0B, size: 0x8, addend: 0x0, symName: __ZN8crashpad8internal20ScopedDIRCloseTraits4FreeEP3DIR, symObjAddr: 0x0, symBinAddr: 0x4FE98, symSize: 0xA0 }
  - { offset: 0xB1367, size: 0x8, addend: 0x0, symName: __ZN4base8internal19ScopedFDCloseTraits4FreeEi, symObjAddr: 0x0, symBinAddr: 0x4FF38, symSize: 0xAC }
  - { offset: 0xB14B1, size: 0x8, addend: 0x0, symName: __ZNK4base8internal16ScopedFILECloserclEP7__sFILE, symObjAddr: 0xAC, symBinAddr: 0x4FFE4, symSize: 0x8C }
  - { offset: 0xB1853, size: 0x8, addend: 0x0, symName: __ZN8crashpad18ScopedForbidReturnD2Ev, symObjAddr: 0x0, symBinAddr: 0x50070, symSize: 0x80 }
  - { offset: 0xB1932, size: 0x8, addend: 0x0, symName: __ZN8crashpad18ScopedForbidReturnD1Ev, symObjAddr: 0x90, symBinAddr: 0x500F0, symSize: 0x4 }
  - { offset: 0xB1947, size: 0x8, addend: 0x0, symName: __ZN8crashpad18ScopedForbidReturnD1Ev, symObjAddr: 0x90, symBinAddr: 0x500F0, symSize: 0x4 }
  - { offset: 0xB1C7F, size: 0x8, addend: 0x0, symName: __ZN4base3mac8internal15SendRightTraits4FreeEj, symObjAddr: 0x0, symBinAddr: 0x500F4, symSize: 0x90 }
  - { offset: 0xB1D72, size: 0x8, addend: 0x0, symName: __ZN4base3mac8internal18ReceiveRightTraits4FreeEj, symObjAddr: 0x90, symBinAddr: 0x50184, symSize: 0x98 }
  - { offset: 0xB1DC5, size: 0x8, addend: 0x0, symName: __ZN4base3mac8internal13PortSetTraits4FreeEj, symObjAddr: 0x128, symBinAddr: 0x5021C, symSize: 0x98 }
  - { offset: 0xB2126, size: 0x8, addend: 0x0, symName: __ZN4base3mac12ScopedMachVM5resetEmm, symObjAddr: 0x0, symBinAddr: 0x502B4, symSize: 0x84 }
  - { offset: 0xB2133, size: 0x8, addend: 0x0, symName: __ZN4base3mac12ScopedMachVM5resetEmm, symObjAddr: 0x0, symBinAddr: 0x502B4, symSize: 0x84 }
  - { offset: 0xB2188, size: 0x8, addend: 0x0, symName: __ZN8crashpad22ScopedRemoveFileTraits4FreeERKN4base8FilePathE, symObjAddr: 0x0, symBinAddr: 0x50338, symSize: 0x4 }
  - { offset: 0xB2195, size: 0x8, addend: 0x0, symName: __ZN8crashpad22ScopedRemoveFileTraits4FreeERKN4base8FilePathE, symObjAddr: 0x0, symBinAddr: 0x50338, symSize: 0x4 }
  - { offset: 0xB21AA, size: 0x8, addend: 0x0, symName: __ZN8crashpad22ScopedRemoveFileTraits4FreeERKN4base8FilePathE, symObjAddr: 0x0, symBinAddr: 0x50338, symSize: 0x4 }
  - { offset: 0xB21EA, size: 0x8, addend: 0x0, symName: __ZN8crashpad8internal19ScopedVMMapInternalC2Ev, symObjAddr: 0x0, symBinAddr: 0x5033C, symSize: 0x10 }
  - { offset: 0xB2201, size: 0x8, addend: 0x0, symName: __ZN8crashpad8internal19ScopedVMMapInternalC1Ev, symObjAddr: 0x10, symBinAddr: 0x5034C, symSize: 0x10 }
  - { offset: 0xB2216, size: 0x8, addend: 0x0, symName: __ZN8crashpad8internal19ScopedVMMapInternalC1Ev, symObjAddr: 0x10, symBinAddr: 0x5034C, symSize: 0x10 }
  - { offset: 0xB2227, size: 0x8, addend: 0x0, symName: __ZN8crashpad8internal19ScopedVMMapInternalD2Ev, symObjAddr: 0x20, symBinAddr: 0x5035C, symSize: 0x28 }
  - { offset: 0xB2246, size: 0x8, addend: 0x0, symName: __ZN8crashpad8internal19ScopedVMMapInternal5ResetEv, symObjAddr: 0x48, symBinAddr: 0x50384, symSize: 0x64 }
  - { offset: 0xB2286, size: 0x8, addend: 0x0, symName: __ZN8crashpad8internal19ScopedVMMapInternalD1Ev, symObjAddr: 0xBC, symBinAddr: 0x503E8, symSize: 0x28 }
  - { offset: 0xB22B1, size: 0x8, addend: 0x0, symName: __ZN8crashpad8internal19ScopedVMMapInternal3MapEPKvm, symObjAddr: 0xE4, symBinAddr: 0x50410, symSize: 0xE4 }
  - { offset: 0xB2321, size: 0x8, addend: 0x0, symName: __ZN8crashpad8internal20ScopedVMReadInternalC2Ev, symObjAddr: 0x0, symBinAddr: 0x504F4, symSize: 0xC }
  - { offset: 0xB2338, size: 0x8, addend: 0x0, symName: __ZN8crashpad8internal20ScopedVMReadInternalC1Ev, symObjAddr: 0xC, symBinAddr: 0x50500, symSize: 0xC }
  - { offset: 0xB234D, size: 0x8, addend: 0x0, symName: __ZN8crashpad8internal20ScopedVMReadInternalC1Ev, symObjAddr: 0xC, symBinAddr: 0x50500, symSize: 0xC }
  - { offset: 0xB235E, size: 0x8, addend: 0x0, symName: __ZN8crashpad8internal20ScopedVMReadInternalD2Ev, symObjAddr: 0x18, symBinAddr: 0x5050C, symSize: 0x28 }
  - { offset: 0xB237D, size: 0x8, addend: 0x0, symName: __ZN8crashpad8internal20ScopedVMReadInternal5ResetEv, symObjAddr: 0x40, symBinAddr: 0x50534, symSize: 0x60 }
  - { offset: 0xB23BD, size: 0x8, addend: 0x0, symName: __ZN8crashpad8internal20ScopedVMReadInternalD1Ev, symObjAddr: 0xB0, symBinAddr: 0x50594, symSize: 0x28 }
  - { offset: 0xB23E8, size: 0x8, addend: 0x0, symName: __ZN8crashpad8internal20ScopedVMReadInternal4ReadEPKvm, symObjAddr: 0xD8, symBinAddr: 0x505BC, symSize: 0xB4 }
  - { offset: 0xB2463, size: 0x8, addend: 0x0, symName: __ZN8crashpad9SemaphoreC2Ei, symObjAddr: 0x0, symBinAddr: 0x50670, symSize: 0xB4 }
  - { offset: 0xB2598, size: 0x8, addend: 0x0, symName: __ZN8crashpad9SemaphoreC1Ei, symObjAddr: 0xB4, symBinAddr: 0x50724, symSize: 0x4 }
  - { offset: 0xB25AD, size: 0x8, addend: 0x0, symName: __ZN8crashpad9SemaphoreC1Ei, symObjAddr: 0xB4, symBinAddr: 0x50724, symSize: 0x4 }
  - { offset: 0xB25B7, size: 0x8, addend: 0x0, symName: __ZN8crashpad9SemaphoreD2Ev, symObjAddr: 0xB8, symBinAddr: 0x50728, symSize: 0x28 }
  - { offset: 0xB25E4, size: 0x8, addend: 0x0, symName: __ZN8crashpad9SemaphoreD1Ev, symObjAddr: 0xE0, symBinAddr: 0x50750, symSize: 0x28 }
  - { offset: 0xB261D, size: 0x8, addend: 0x0, symName: __ZN8crashpad9Semaphore4WaitEv, symObjAddr: 0x108, symBinAddr: 0x50778, symSize: 0x78 }
  - { offset: 0xB28C0, size: 0x8, addend: 0x0, symName: __ZN8crashpad9Semaphore9TimedWaitEd, symObjAddr: 0x180, symBinAddr: 0x507F0, symSize: 0xC8 }
  - { offset: 0xB292E, size: 0x8, addend: 0x0, symName: __ZN7logging17MakeCheckOpStringIddEEPNSt3__112basic_stringIcNS1_11char_traitsIcEENS1_9allocatorIcEEEERKT_RKT0_PKc, symObjAddr: 0x794, symBinAddr: 0x508C0, symSize: 0x168 }
  - { offset: 0xB2E55, size: 0x8, addend: 0x0, symName: __ZN8crashpad9Semaphore6SignalEv, symObjAddr: 0x248, symBinAddr: 0x508B8, symSize: 0x8 }
  - { offset: 0xB3264, size: 0x8, addend: 0x0, symName: __ZN8crashpad8Settings22ScopedLockedFileHandleC2ERKi, symObjAddr: 0x0, symBinAddr: 0x50A28, symSize: 0x94 }
  - { offset: 0xB33A1, size: 0x8, addend: 0x0, symName: __ZNSt3__110unique_ptrIN8crashpad8internal20ScopedBackgroundTaskENS_14default_deleteIS3_EEE5resetB8ne190102EPS3_, symObjAddr: 0x128, symBinAddr: 0x50B50, symSize: 0x28 }
  - { offset: 0xB33C8, size: 0x8, addend: 0x0, symName: __ZN4base13ScopedGenericIiN8crashpad8internal28ScopedLockedFileHandleTraitsEE15FreeIfNecessaryEv, symObjAddr: 0xE54, symBinAddr: 0x5186C, symSize: 0x40 }
  - { offset: 0xB3408, size: 0x8, addend: 0x0, symName: __ZN8crashpad8Settings22ScopedLockedFileHandleC1ERKi, symObjAddr: 0x94, symBinAddr: 0x50ABC, symSize: 0x4 }
  - { offset: 0xB341D, size: 0x8, addend: 0x0, symName: __ZN8crashpad8Settings22ScopedLockedFileHandleC1ERKi, symObjAddr: 0x94, symBinAddr: 0x50ABC, symSize: 0x4 }
  - { offset: 0xB3439, size: 0x8, addend: 0x0, symName: __ZN8crashpad8Settings22ScopedLockedFileHandleC2EOS1_, symObjAddr: 0x98, symBinAddr: 0x50AC0, symSize: 0x90 }
  - { offset: 0xB358B, size: 0x8, addend: 0x0, symName: __ZN4base13ScopedGenericIiN8crashpad8internal28ScopedLockedFileHandleTraitsEE5resetERKi, symObjAddr: 0x150, symBinAddr: 0x50B78, symSize: 0x44 }
  - { offset: 0xB35AD, size: 0x8, addend: 0x0, symName: __ZN8crashpad8Settings22ScopedLockedFileHandleC1EOS1_, symObjAddr: 0x194, symBinAddr: 0x50BBC, symSize: 0x4 }
  - { offset: 0xB35C4, size: 0x8, addend: 0x0, symName: __ZN8crashpad8Settings22ScopedLockedFileHandleC1EOS1_, symObjAddr: 0x194, symBinAddr: 0x50BBC, symSize: 0x4 }
  - { offset: 0xB35D9, size: 0x8, addend: 0x0, symName: __ZN8crashpad8Settings22ScopedLockedFileHandleC1EOS1_, symObjAddr: 0x194, symBinAddr: 0x50BBC, symSize: 0x4 }
  - { offset: 0xB35E3, size: 0x8, addend: 0x0, symName: __ZN8crashpad8Settings22ScopedLockedFileHandleaSEOS1_, symObjAddr: 0x198, symBinAddr: 0x50BC0, symSize: 0x58 }
  - { offset: 0xB3637, size: 0x8, addend: 0x0, symName: __ZN8crashpad8Settings22ScopedLockedFileHandleD2Ev, symObjAddr: 0x1F0, symBinAddr: 0x50C18, symSize: 0x54 }
  - { offset: 0xB36A6, size: 0x8, addend: 0x0, symName: __ZN8crashpad8Settings22ScopedLockedFileHandleD1Ev, symObjAddr: 0x254, symBinAddr: 0x50C6C, symSize: 0x4 }
  - { offset: 0xB36BB, size: 0x8, addend: 0x0, symName: __ZN8crashpad8Settings22ScopedLockedFileHandleD1Ev, symObjAddr: 0x254, symBinAddr: 0x50C6C, symSize: 0x4 }
  - { offset: 0xB36C5, size: 0x8, addend: 0x0, symName: __ZN8crashpad8internal28ScopedLockedFileHandleTraits4FreeEi, symObjAddr: 0x258, symBinAddr: 0x50C70, symSize: 0x30 }
  - { offset: 0xB370D, size: 0x8, addend: 0x0, symName: __ZN8crashpad8SettingsC2Ev, symObjAddr: 0x288, symBinAddr: 0x50CA0, symSize: 0x18 }
  - { offset: 0xB374E, size: 0x8, addend: 0x0, symName: __ZN8crashpad8SettingsC1Ev, symObjAddr: 0x2A0, symBinAddr: 0x50CB8, symSize: 0x18 }
  - { offset: 0xB37AA, size: 0x8, addend: 0x0, symName: __ZN8crashpad8SettingsD2Ev, symObjAddr: 0x2B8, symBinAddr: 0x50CD0, symSize: 0xC }
  - { offset: 0xB37EB, size: 0x8, addend: 0x0, symName: __ZN8crashpad8SettingsD1Ev, symObjAddr: 0x2C4, symBinAddr: 0x50CDC, symSize: 0xC }
  - { offset: 0xB385F, size: 0x8, addend: 0x0, symName: __ZN8crashpad8Settings10InitializeERKN4base8FilePathE, symObjAddr: 0x2D0, symBinAddr: 0x50CE8, symSize: 0x78 }
  - { offset: 0xB38FC, size: 0x8, addend: 0x0, symName: __ZN8crashpad8Settings29OpenForWritingAndReadSettingsEPNS0_4DataE, symObjAddr: 0x348, symBinAddr: 0x50D60, symSize: 0x228 }
  - { offset: 0xB3D8F, size: 0x8, addend: 0x0, symName: __ZN8crashpad8Settings26MakeScopedLockedFileHandleERKNS_8internal33MakeScopedLockedFileHandleOptionsENS_11FileLockingERKN4base8FilePathE, symObjAddr: 0x888, symBinAddr: 0x512A0, symSize: 0xD0 }
  - { offset: 0xB3EDB, size: 0x8, addend: 0x0, symName: __ZN8crashpad8Settings12ReadSettingsEiPNS0_4DataEb, symObjAddr: 0xB40, symBinAddr: 0x51558, symSize: 0x144 }
  - { offset: 0xB3F72, size: 0x8, addend: 0x0, symName: __ZN8crashpad8Settings15RecoverSettingsEiPNS0_4DataE, symObjAddr: 0xC84, symBinAddr: 0x5169C, symSize: 0x17C }
  - { offset: 0xB41CA, size: 0x8, addend: 0x0, symName: __ZN8crashpad8Settings11GetClientIDEPNS_4UUIDE, symObjAddr: 0x570, symBinAddr: 0x50F88, symSize: 0x4C }
  - { offset: 0xB4212, size: 0x8, addend: 0x0, symName: __ZN8crashpad8Settings19OpenAndReadSettingsEPNS0_4DataE, symObjAddr: 0x5BC, symBinAddr: 0x50FD4, symSize: 0xB8 }
  - { offset: 0xB42CC, size: 0x8, addend: 0x0, symName: __ZN8crashpad8Settings17GetUploadsEnabledEPb, symObjAddr: 0x674, symBinAddr: 0x5108C, symSize: 0x50 }
  - { offset: 0xB4314, size: 0x8, addend: 0x0, symName: __ZN8crashpad8Settings17SetUploadsEnabledEb, symObjAddr: 0x6C4, symBinAddr: 0x510DC, symSize: 0x94 }
  - { offset: 0xB43BF, size: 0x8, addend: 0x0, symName: __ZN8crashpad8Settings13WriteSettingsEiRKNS0_4DataE, symObjAddr: 0x758, symBinAddr: 0x51170, symSize: 0x5C }
  - { offset: 0xB4410, size: 0x8, addend: 0x0, symName: __ZN8crashpad8Settings24GetLastUploadAttemptTimeEPl, symObjAddr: 0x7B4, symBinAddr: 0x511CC, symSize: 0x4C }
  - { offset: 0xB4458, size: 0x8, addend: 0x0, symName: __ZN8crashpad8Settings24SetLastUploadAttemptTimeEl, symObjAddr: 0x800, symBinAddr: 0x51218, symSize: 0x88 }
  - { offset: 0xB4539, size: 0x8, addend: 0x0, symName: __ZN8crashpad8Settings20GetHandleFromOptionsERKN4base8FilePathERKNS_8internal33MakeScopedLockedFileHandleOptionsE, symObjAddr: 0x958, symBinAddr: 0x51370, symSize: 0xE8 }
  - { offset: 0xB469D, size: 0x8, addend: 0x0, symName: __ZN8crashpad8Settings14OpenForReadingEv, symObjAddr: 0xA40, symBinAddr: 0x51458, symSize: 0x2C }
  - { offset: 0xB46BC, size: 0x8, addend: 0x0, symName: __ZN8crashpad8Settings24OpenForReadingAndWritingENS_13FileWriteModeEb, symObjAddr: 0xA6C, symBinAddr: 0x51484, symSize: 0xD4 }
  - { offset: 0xB473C, size: 0x8, addend: 0x0, symName: __ZN8crashpad8Settings18InitializeSettingsEi, symObjAddr: 0xE00, symBinAddr: 0x51818, symSize: 0x54 }
  - { offset: 0xB4AA1, size: 0x8, addend: 0x0, symName: __ZN8crashpad7Signals10OldActions15ActionForSignalEi, symObjAddr: 0x0, symBinAddr: 0x518AC, symSize: 0xC }
  - { offset: 0xB4AAE, size: 0x8, addend: 0x0, symName: __ZN8crashpad7Signals10OldActions15ActionForSignalEi, symObjAddr: 0x0, symBinAddr: 0x518AC, symSize: 0xC }
  - { offset: 0xB4ABF, size: 0x8, addend: 0x0, symName: __ZN8crashpad7Signals14InstallHandlerEiPFviP9__siginfoPvEiP9sigaction, symObjAddr: 0xC, symBinAddr: 0x518B8, symSize: 0x38 }
  - { offset: 0xB4AE5, size: 0x8, addend: 0x0, symName: __ZN8crashpad7Signals21InstallDefaultHandlerEi, symObjAddr: 0x44, symBinAddr: 0x518F0, symSize: 0x30 }
  - { offset: 0xB4B4C, size: 0x8, addend: 0x0, symName: __ZN8crashpad7Signals20InstallCrashHandlersEPFviP9__siginfoPvEiPNS0_10OldActionsEPKNSt3__13setIiNS8_4lessIiEENS8_9allocatorIiEEEE, symObjAddr: 0x74, symBinAddr: 0x51920, symSize: 0xA4 }
  - { offset: 0xB4D52, size: 0x8, addend: 0x0, symName: __ZNSt3__16vectorIiNS_9allocatorIiEEE16__init_with_sizeB8ne190102IPKiS6_EEvT_T0_m, symObjAddr: 0x428, symBinAddr: 0x51CD4, symSize: 0x78 }
  - { offset: 0xB4F5E, size: 0x8, addend: 0x0, symName: __ZN8crashpad12_GLOBAL__N_115InstallHandlersERKNSt3__16vectorIiNS1_9allocatorIiEEEEPFviP9__siginfoPvEiPNS_7Signals10OldActionsEPKNS1_3setIiNS1_4lessIiEES4_EE, symObjAddr: 0x118, symBinAddr: 0x519C4, symSize: 0xE0 }
  - { offset: 0xB5069, size: 0x8, addend: 0x0, symName: __ZN8crashpad7Signals24InstallTerminateHandlersEPFviP9__siginfoPvEiPNS0_10OldActionsE, symObjAddr: 0x1F8, symBinAddr: 0x51AA4, symSize: 0xA0 }
  - { offset: 0xB526F, size: 0x8, addend: 0x0, symName: __ZN8crashpad7Signals29WillSignalReraiseAutonomouslyEPK9__siginfo, symObjAddr: 0x298, symBinAddr: 0x51B44, symSize: 0x44 }
  - { offset: 0xB5286, size: 0x8, addend: 0x0, symName: __ZN8crashpad7Signals38RestoreHandlerAndReraiseSignalOnReturnEPK9__siginfoPK9sigaction, symObjAddr: 0x2DC, symBinAddr: 0x51B88, symSize: 0xBC }
  - { offset: 0xB52D7, size: 0x8, addend: 0x0, symName: __ZN8crashpad7Signals13IsCrashSignalEi, symObjAddr: 0x398, symBinAddr: 0x51C44, symSize: 0x48 }
  - { offset: 0xB52F6, size: 0x8, addend: 0x0, symName: __ZN8crashpad7Signals13IsCrashSignalEi, symObjAddr: 0x398, symBinAddr: 0x51C44, symSize: 0x48 }
  - { offset: 0xB5315, size: 0x8, addend: 0x0, symName: __ZN8crashpad7Signals17IsTerminateSignalEi, symObjAddr: 0x3E0, symBinAddr: 0x51C8C, symSize: 0x48 }
  - { offset: 0xB54AD, size: 0x8, addend: 0x0, symName: __ZN8crashpad10StringFileC2Ev, symObjAddr: 0x0, symBinAddr: 0x51D4C, symSize: 0x60 }
  - { offset: 0xB54C2, size: 0x8, addend: 0x0, symName: __ZN8crashpad10StringFileC2Ev, symObjAddr: 0x0, symBinAddr: 0x51D4C, symSize: 0x60 }
  - { offset: 0xB55A5, size: 0x8, addend: 0x0, symName: __ZN8crashpad10StringFileC1Ev, symObjAddr: 0x60, symBinAddr: 0x51DAC, symSize: 0x28 }
  - { offset: 0xB56AB, size: 0x8, addend: 0x0, symName: __ZN8crashpad10StringFileD2Ev, symObjAddr: 0x88, symBinAddr: 0x51DD4, symSize: 0x4C }
  - { offset: 0xB577E, size: 0x8, addend: 0x0, symName: __ZN8crashpad10StringFileD1Ev, symObjAddr: 0xD4, symBinAddr: 0x51E20, symSize: 0xC }
  - { offset: 0xB57A3, size: 0x8, addend: 0x0, symName: __ZThn8_N8crashpad10StringFileD1Ev, symObjAddr: 0xE0, symBinAddr: 0x51E2C, symSize: 0x10 }
  - { offset: 0xB57D1, size: 0x8, addend: 0x0, symName: __ZN8crashpad10StringFileD0Ev, symObjAddr: 0xF0, symBinAddr: 0x51E3C, symSize: 0x1C }
  - { offset: 0xB580A, size: 0x8, addend: 0x0, symName: __ZThn8_N8crashpad10StringFileD0Ev, symObjAddr: 0x10C, symBinAddr: 0x51E58, symSize: 0x20 }
  - { offset: 0xB585F, size: 0x8, addend: 0x0, symName: __ZN8crashpad10StringFile9SetStringERKNSt3__112basic_stringIcNS1_11char_traitsIcEENS1_9allocatorIcEEEE, symObjAddr: 0x12C, symBinAddr: 0x51E78, symSize: 0xA4 }
  - { offset: 0xB5B39, size: 0x8, addend: 0x0, symName: __ZN8crashpad10StringFile5ResetEv, symObjAddr: 0x1D0, symBinAddr: 0x51F1C, symSize: 0x30 }
  - { offset: 0xB5B4E, size: 0x8, addend: 0x0, symName: __ZN8crashpad10StringFile5ResetEv, symObjAddr: 0x1D0, symBinAddr: 0x51F1C, symSize: 0x30 }
  - { offset: 0xB5B62, size: 0x8, addend: 0x0, symName: __ZN8crashpad10StringFile5ResetEv, symObjAddr: 0x1D0, symBinAddr: 0x51F1C, symSize: 0x30 }
  - { offset: 0xB5B77, size: 0x8, addend: 0x0, symName: __ZN8crashpad10StringFile5ResetEv, symObjAddr: 0x1D0, symBinAddr: 0x51F1C, symSize: 0x30 }
  - { offset: 0xB5C54, size: 0x8, addend: 0x0, symName: __ZN8crashpad10StringFile4ReadEPvm, symObjAddr: 0x200, symBinAddr: 0x51F4C, symSize: 0x150 }
  - { offset: 0xB5EE1, size: 0x8, addend: 0x0, symName: __ZN8crashpad10StringFile5WriteEPKvm, symObjAddr: 0x350, symBinAddr: 0x5209C, symSize: 0x154 }
  - { offset: 0xB6102, size: 0x8, addend: 0x0, symName: __ZThn8_N8crashpad10StringFile5WriteEPKvm, symObjAddr: 0x4A4, symBinAddr: 0x521F0, symSize: 0x8 }
  - { offset: 0xB613B, size: 0x8, addend: 0x0, symName: __ZN8crashpad10StringFile10WriteIoVecEPNSt3__16vectorINS_13WritableIoVecENS1_9allocatorIS3_EEEE, symObjAddr: 0x4AC, symBinAddr: 0x521F8, symSize: 0x158 }
  - { offset: 0xB62F5, size: 0x8, addend: 0x0, symName: __ZThn8_N8crashpad10StringFile10WriteIoVecEPNSt3__16vectorINS_13WritableIoVecENS1_9allocatorIS3_EEEE, symObjAddr: 0x604, symBinAddr: 0x52350, symSize: 0x8 }
  - { offset: 0xB633A, size: 0x8, addend: 0x0, symName: __ZN8crashpad10StringFile4SeekExi, symObjAddr: 0x60C, symBinAddr: 0x52358, symSize: 0x164 }
  - { offset: 0xB64EC, size: 0x8, addend: 0x0, symName: __ZTv0_n24_N8crashpad10StringFile4SeekExi, symObjAddr: 0x770, symBinAddr: 0x524BC, symSize: 0x10 }
  - { offset: 0xB6819, size: 0x8, addend: 0x0, symName: __ZN8crashpad14StringToNumberERKNSt3__112basic_stringIcNS0_11char_traitsIcEENS0_9allocatorIcEEEEPi, symObjAddr: 0x0, symBinAddr: 0x524CC, symSize: 0xF8 }
  - { offset: 0xB6868, size: 0x8, addend: 0x0, symName: __ZN8crashpad14StringToNumberERKNSt3__112basic_stringIcNS0_11char_traitsIcEENS0_9allocatorIcEEEEPi, symObjAddr: 0x0, symBinAddr: 0x524CC, symSize: 0xF8 }
  - { offset: 0xB69F3, size: 0x8, addend: 0x0, symName: __ZN8crashpad14StringToNumberERKNSt3__112basic_stringIcNS0_11char_traitsIcEENS0_9allocatorIcEEEEPj, symObjAddr: 0xF8, symBinAddr: 0x525C4, symSize: 0x110 }
  - { offset: 0xB6B70, size: 0x8, addend: 0x0, symName: __ZN8crashpad14StringToNumberERKNSt3__112basic_stringIcNS0_11char_traitsIcEENS0_9allocatorIcEEEEPl, symObjAddr: 0x208, symBinAddr: 0x526D4, symSize: 0xF0 }
  - { offset: 0xB6CED, size: 0x8, addend: 0x0, symName: __ZN8crashpad14StringToNumberERKNSt3__112basic_stringIcNS0_11char_traitsIcEENS0_9allocatorIcEEEEPm, symObjAddr: 0x2F8, symBinAddr: 0x527C4, symSize: 0x108 }
  - { offset: 0xB6E6A, size: 0x8, addend: 0x0, symName: __ZN8crashpad14StringToNumberERKNSt3__112basic_stringIcNS0_11char_traitsIcEENS0_9allocatorIcEEEEPx, symObjAddr: 0x400, symBinAddr: 0x528CC, symSize: 0xF0 }
  - { offset: 0xB6FE0, size: 0x8, addend: 0x0, symName: __ZN8crashpad14StringToNumberERKNSt3__112basic_stringIcNS0_11char_traitsIcEENS0_9allocatorIcEEEEPy, symObjAddr: 0x4F0, symBinAddr: 0x529BC, symSize: 0x108 }
  - { offset: 0xB716C, size: 0x8, addend: 0x0, symName: __ZN4base11StringToIntERKNS_16BasicStringPieceINSt3__112basic_stringIcNS1_11char_traitsIcEENS1_9allocatorIcEEEEEEPi, symObjAddr: 0x0, symBinAddr: 0x52AC4, symSize: 0x1B0 }
  - { offset: 0xB71D3, size: 0x8, addend: 0x0, symName: __ZN4base11StringToIntERKNS_16BasicStringPieceINSt3__112basic_stringIcNS1_11char_traitsIcEENS1_9allocatorIcEEEEEEPi, symObjAddr: 0x0, symBinAddr: 0x52AC4, symSize: 0x1B0 }
  - { offset: 0xB7358, size: 0x8, addend: 0x0, symName: __ZN4base12StringToUintERKNS_16BasicStringPieceINSt3__112basic_stringIcNS1_11char_traitsIcEENS1_9allocatorIcEEEEEEPj, symObjAddr: 0x1B0, symBinAddr: 0x52C74, symSize: 0x19C }
  - { offset: 0xB74D6, size: 0x8, addend: 0x0, symName: __ZN4base13StringToInt64ERKNS_16BasicStringPieceINSt3__112basic_stringIcNS1_11char_traitsIcEENS1_9allocatorIcEEEEEEPx, symObjAddr: 0x34C, symBinAddr: 0x52E10, symSize: 0x1AC }
  - { offset: 0xB7657, size: 0x8, addend: 0x0, symName: __ZN4base14StringToUint64ERKNS_16BasicStringPieceINSt3__112basic_stringIcNS1_11char_traitsIcEENS1_9allocatorIcEEEEEEPy, symObjAddr: 0x4F8, symBinAddr: 0x52FBC, symSize: 0x190 }
  - { offset: 0xB77E8, size: 0x8, addend: 0x0, symName: __ZN4base13StringToSizeTERKNS_16BasicStringPieceINSt3__112basic_stringIcNS1_11char_traitsIcEENS1_9allocatorIcEEEEEEPm, symObjAddr: 0x688, symBinAddr: 0x5314C, symSize: 0x190 }
  - { offset: 0xB7985, size: 0x8, addend: 0x0, symName: __ZN4base14HexStringToIntERKNS_16BasicStringPieceINSt3__112basic_stringIcNS1_11char_traitsIcEENS1_9allocatorIcEEEEEEPi, symObjAddr: 0x818, symBinAddr: 0x532DC, symSize: 0x264 }
  - { offset: 0xB7B4E, size: 0x8, addend: 0x0, symName: __ZN4base16HexStringToBytesERKNSt3__112basic_stringIcNS0_11char_traitsIcEENS0_9allocatorIcEEEEPNS0_6vectorIhNS4_IhEEEE, symObjAddr: 0xA7C, symBinAddr: 0x53540, symSize: 0x198 }
  - { offset: 0xB7E8B, size: 0x8, addend: 0x0, symName: __ZN4base7strlcpyEPcPKcm, symObjAddr: 0x0, symBinAddr: 0x536D8, symSize: 0x40 }
  - { offset: 0xB7E9E, size: 0x8, addend: 0x0, symName: __ZN4base7strlcpyEPcPKcm, symObjAddr: 0x0, symBinAddr: 0x536D8, symSize: 0x40 }
  - { offset: 0xB7EB3, size: 0x8, addend: 0x0, symName: __ZN4base7strlcpyEPcPKcm, symObjAddr: 0x0, symBinAddr: 0x536D8, symSize: 0x40 }
  - { offset: 0xB7ECA, size: 0x8, addend: 0x0, symName: __ZN4base7wcslcpyEPwPKwm, symObjAddr: 0x40, symBinAddr: 0x53718, symSize: 0x44 }
  - { offset: 0xB7EDF, size: 0x8, addend: 0x0, symName: __ZN4base7wcslcpyEPwPKwm, symObjAddr: 0x40, symBinAddr: 0x53718, symSize: 0x44 }
  - { offset: 0xB7F73, size: 0x8, addend: 0x0, symName: __ZN4base12StringPrintfEPKcz, symObjAddr: 0x0, symBinAddr: 0x5375C, symSize: 0x60 }
  - { offset: 0xB80BD, size: 0x8, addend: 0x0, symName: __ZN4base13StringAppendVEPNSt3__112basic_stringIcNS0_11char_traitsIcEENS0_9allocatorIcEEEEPKcPc, symObjAddr: 0x60, symBinAddr: 0x537BC, symSize: 0x254 }
  - { offset: 0xB85A8, size: 0x8, addend: 0x0, symName: __ZNSt3__16vectorIcNS_9allocatorIcEEEC2B8ne190102Em, symObjAddr: 0x690, symBinAddr: 0x53A10, symSize: 0x70 }
  - { offset: 0xB8B35, size: 0x8, addend: 0x0, symName: __ZN8crashpad7c16lcpyEPDsPKDsm, symObjAddr: 0x0, symBinAddr: 0x53A80, symSize: 0x88 }
  - { offset: 0xB8B54, size: 0x8, addend: 0x0, symName: __ZN8crashpad7c16lcpyEPDsPKDsm, symObjAddr: 0x0, symBinAddr: 0x53A80, symSize: 0x88 }
  - { offset: 0xB8BF0, size: 0x8, addend: 0x0, symName: __ZN8crashpad17ExceptionToStringEij, symObjAddr: 0x0, symBinAddr: 0x53B08, symSize: 0x80 }
  - { offset: 0xB8C21, size: 0x8, addend: 0x0, symName: __ZN8crashpad17ExceptionToStringEij, symObjAddr: 0x0, symBinAddr: 0x53B08, symSize: 0x80 }
  - { offset: 0xB8DDE, size: 0x8, addend: 0x0, symName: __ZN8crashpad17StringToExceptionERKN4base16BasicStringPieceINSt3__112basic_stringIcNS2_11char_traitsIcEENS2_9allocatorIcEEEEEEjPi, symObjAddr: 0x80, symBinAddr: 0x53B88, symSize: 0x190 }
  - { offset: 0xB920E, size: 0x8, addend: 0x0, symName: __ZN8crashpad21ExceptionMaskToStringEjj, symObjAddr: 0x210, symBinAddr: 0x53D18, symSize: 0x1F0 }
  - { offset: 0xB97A8, size: 0x8, addend: 0x0, symName: __ZN8crashpad21StringToExceptionMaskERKN4base16BasicStringPieceINSt3__112basic_stringIcNS2_11char_traitsIcEENS2_9allocatorIcEEEEEEjPj, symObjAddr: 0x400, symBinAddr: 0x53F08, symSize: 0x288 }
  - { offset: 0xB9BCA, size: 0x8, addend: 0x0, symName: __ZNK4base16BasicStringPieceINSt3__112basic_stringIcNS1_11char_traitsIcEENS1_9allocatorIcEEEEE4findEcm, symObjAddr: 0x688, symBinAddr: 0x54190, symSize: 0x54 }
  - { offset: 0xB9BDF, size: 0x8, addend: 0x0, symName: __ZNK4base16BasicStringPieceINSt3__112basic_stringIcNS1_11char_traitsIcEENS1_9allocatorIcEEEEE4findEcm, symObjAddr: 0x688, symBinAddr: 0x54190, symSize: 0x54 }
  - { offset: 0xB9CA1, size: 0x8, addend: 0x0, symName: __ZN8crashpad25ExceptionBehaviorToStringEij, symObjAddr: 0x6DC, symBinAddr: 0x541E4, symSize: 0x128 }
  - { offset: 0xB9F6B, size: 0x8, addend: 0x0, symName: __ZN8crashpad25StringToExceptionBehaviorERKN4base16BasicStringPieceINSt3__112basic_stringIcNS2_11char_traitsIcEENS2_9allocatorIcEEEEEEjPi, symObjAddr: 0x804, symBinAddr: 0x5430C, symSize: 0x2F0 }
  - { offset: 0xBA42C, size: 0x8, addend: 0x0, symName: __ZN8crashpad25ThreadStateFlavorToStringEij, symObjAddr: 0xAF4, symBinAddr: 0x545FC, symSize: 0xE4 }
  - { offset: 0xBA546, size: 0x8, addend: 0x0, symName: __ZN12_GLOBAL__N_128ThreadStateFlavorFullToShortERKN4base16BasicStringPieceINSt3__112basic_stringIcNS2_11char_traitsIcEENS2_9allocatorIcEEEEEE, symObjAddr: 0xBD8, symBinAddr: 0x546E0, symSize: 0x16C }
  - { offset: 0xBA878, size: 0x8, addend: 0x0, symName: __ZN8crashpad25StringToThreadStateFlavorERKN4base16BasicStringPieceINSt3__112basic_stringIcNS2_11char_traitsIcEENS2_9allocatorIcEEEEEEjPi, symObjAddr: 0xD44, symBinAddr: 0x5484C, symSize: 0x288 }
  - { offset: 0xBB054, size: 0x8, addend: 0x0, symName: __ZN4base20SysCFStringRefToUTF8EPK10__CFString, symObjAddr: 0x0, symBinAddr: 0x54AD4, symSize: 0x118 }
  - { offset: 0xBB0D9, size: 0x8, addend: 0x0, symName: __ZN4base20SysCFStringRefToUTF8EPK10__CFString, symObjAddr: 0x0, symBinAddr: 0x54AD4, symSize: 0x118 }
  - { offset: 0xBB48F, size: 0x8, addend: 0x0, symName: __ZN4base17SysNSStringToUTF8EP8NSString, symObjAddr: 0x118, symBinAddr: 0x54BEC, symSize: 0x64 }
  - { offset: 0xBB5FC, size: 0x8, addend: 0x0, symName: __ZN4base20SysUTF8ToCFStringRefERKNSt3__112basic_stringIcNS0_11char_traitsIcEENS0_9allocatorIcEEEE, symObjAddr: 0x17C, symBinAddr: 0x54C50, symSize: 0x48 }
  - { offset: 0xBB6D2, size: 0x8, addend: 0x0, symName: __ZN4base17SysUTF8ToNSStringERKNSt3__112basic_stringIcNS0_11char_traitsIcEENS0_9allocatorIcEEEE, symObjAddr: 0x1C4, symBinAddr: 0x54C98, symSize: 0x20 }
  - { offset: 0xBB7F3, size: 0x8, addend: 0x0, symName: __ZN8crashpad8internal33SystemSnapshotIOSIntermediateDumpC2Ev, symObjAddr: 0x0, symBinAddr: 0x54CB8, symSize: 0x44 }
  - { offset: 0xBB830, size: 0x8, addend: 0x0, symName: __ZN8crashpad8internal33SystemSnapshotIOSIntermediateDumpC2Ev, symObjAddr: 0x0, symBinAddr: 0x54CB8, symSize: 0x44 }
  - { offset: 0xBB95A, size: 0x8, addend: 0x0, symName: __ZN8crashpad8internal33SystemSnapshotIOSIntermediateDumpC1Ev, symObjAddr: 0x44, symBinAddr: 0x54CFC, symSize: 0x44 }
  - { offset: 0xBB96F, size: 0x8, addend: 0x0, symName: __ZN8crashpad8internal33SystemSnapshotIOSIntermediateDumpC1Ev, symObjAddr: 0x44, symBinAddr: 0x54CFC, symSize: 0x44 }
  - { offset: 0xBBADB, size: 0x8, addend: 0x0, symName: __ZN8crashpad8internal33SystemSnapshotIOSIntermediateDumpD2Ev, symObjAddr: 0x88, symBinAddr: 0x54D40, symSize: 0x78 }
  - { offset: 0xBBEF0, size: 0x8, addend: 0x0, symName: __ZN8crashpad8internal33SystemSnapshotIOSIntermediateDumpD1Ev, symObjAddr: 0x100, symBinAddr: 0x54DB8, symSize: 0x4 }
  - { offset: 0xBBF05, size: 0x8, addend: 0x0, symName: __ZN8crashpad8internal33SystemSnapshotIOSIntermediateDumpD1Ev, symObjAddr: 0x100, symBinAddr: 0x54DB8, symSize: 0x4 }
  - { offset: 0xBBF15, size: 0x8, addend: 0x0, symName: __ZN8crashpad8internal33SystemSnapshotIOSIntermediateDumpD0Ev, symObjAddr: 0x104, symBinAddr: 0x54DBC, symSize: 0x14 }
  - { offset: 0xBBF4E, size: 0x8, addend: 0x0, symName: __ZN8crashpad8internal33SystemSnapshotIOSIntermediateDump10InitializeEPKNS0_22IOSIntermediateDumpMapE, symObjAddr: 0x118, symBinAddr: 0x54DD0, symSize: 0x37C }
  - { offset: 0xBC423, size: 0x8, addend: 0x0, symName: __ZNK8crashpad8internal33SystemSnapshotIOSIntermediateDump18GetCPUArchitectureEv, symObjAddr: 0x62C, symBinAddr: 0x5514C, symSize: 0x7C }
  - { offset: 0xBC47F, size: 0x8, addend: 0x0, symName: __ZNK8crashpad8internal33SystemSnapshotIOSIntermediateDump11CPURevisionEv, symObjAddr: 0x6A8, symBinAddr: 0x551C8, symSize: 0x7C }
  - { offset: 0xBC4DB, size: 0x8, addend: 0x0, symName: __ZNK8crashpad8internal33SystemSnapshotIOSIntermediateDump8CPUCountEv, symObjAddr: 0x724, symBinAddr: 0x55244, symSize: 0x80 }
  - { offset: 0xBC549, size: 0x8, addend: 0x0, symName: __ZNK8crashpad8internal33SystemSnapshotIOSIntermediateDump9CPUVendorEv, symObjAddr: 0x7A4, symBinAddr: 0x552C4, symSize: 0xB0 }
  - { offset: 0xBC675, size: 0x8, addend: 0x0, symName: __ZNK8crashpad8internal33SystemSnapshotIOSIntermediateDump12CPUFrequencyEPyS2_, symObjAddr: 0x854, symBinAddr: 0x55374, symSize: 0x90 }
  - { offset: 0xBC6D1, size: 0x8, addend: 0x0, symName: __ZNK8crashpad8internal33SystemSnapshotIOSIntermediateDump15CPUX86SignatureEv, symObjAddr: 0x8E4, symBinAddr: 0x55404, symSize: 0x7C }
  - { offset: 0xBC72D, size: 0x8, addend: 0x0, symName: __ZNK8crashpad8internal33SystemSnapshotIOSIntermediateDump14CPUX86FeaturesEv, symObjAddr: 0x960, symBinAddr: 0x55480, symSize: 0x7C }
  - { offset: 0xBC789, size: 0x8, addend: 0x0, symName: __ZNK8crashpad8internal33SystemSnapshotIOSIntermediateDump22CPUX86ExtendedFeaturesEv, symObjAddr: 0x9DC, symBinAddr: 0x554FC, symSize: 0x7C }
  - { offset: 0xBC7E5, size: 0x8, addend: 0x0, symName: __ZNK8crashpad8internal33SystemSnapshotIOSIntermediateDump19CPUX86Leaf7FeaturesEv, symObjAddr: 0xA58, symBinAddr: 0x55578, symSize: 0x7C }
  - { offset: 0xBC841, size: 0x8, addend: 0x0, symName: __ZNK8crashpad8internal33SystemSnapshotIOSIntermediateDump17CPUX86SupportsDAZEv, symObjAddr: 0xAD4, symBinAddr: 0x555F4, symSize: 0x7C }
  - { offset: 0xBC89D, size: 0x8, addend: 0x0, symName: __ZNK8crashpad8internal33SystemSnapshotIOSIntermediateDump18GetOperatingSystemEv, symObjAddr: 0xB50, symBinAddr: 0x55670, symSize: 0x7C }
  - { offset: 0xBC8F9, size: 0x8, addend: 0x0, symName: __ZNK8crashpad8internal33SystemSnapshotIOSIntermediateDump8OSServerEv, symObjAddr: 0xBCC, symBinAddr: 0x556EC, symSize: 0x7C }
  - { offset: 0xBC95B, size: 0x8, addend: 0x0, symName: __ZNK8crashpad8internal33SystemSnapshotIOSIntermediateDump9OSVersionEPiS2_S2_PNSt3__112basic_stringIcNS3_11char_traitsIcEENS3_9allocatorIcEEEE, symObjAddr: 0xC48, symBinAddr: 0x55768, symSize: 0xC0 }
  - { offset: 0xBC9DD, size: 0x8, addend: 0x0, symName: __ZNK8crashpad8internal33SystemSnapshotIOSIntermediateDump13OSVersionFullEv, symObjAddr: 0xD08, symBinAddr: 0x55828, symSize: 0xB8 }
  - { offset: 0xBCAB8, size: 0x8, addend: 0x0, symName: __ZNK8crashpad8internal33SystemSnapshotIOSIntermediateDump18MachineDescriptionEv, symObjAddr: 0xDC0, symBinAddr: 0x558E0, symSize: 0xB0 }
  - { offset: 0xBCB76, size: 0x8, addend: 0x0, symName: __ZNK8crashpad8internal33SystemSnapshotIOSIntermediateDump9NXEnabledEv, symObjAddr: 0xE70, symBinAddr: 0x55990, symSize: 0x7C }
  - { offset: 0xBCBD2, size: 0x8, addend: 0x0, symName: __ZNK8crashpad8internal33SystemSnapshotIOSIntermediateDump8TimeZoneEPNS_14SystemSnapshot24DaylightSavingTimeStatusEPiS5_PNSt3__112basic_stringIcNS6_11char_traitsIcEENS6_9allocatorIcEEEESD_, symObjAddr: 0xEEC, symBinAddr: 0x55A0C, symSize: 0xD8 }
  - { offset: 0xBCC56, size: 0x8, addend: 0x0, symName: __ZNK8crashpad8internal33SystemSnapshotIOSIntermediateDump11AddressMaskEv, symObjAddr: 0xFC4, symBinAddr: 0x55AE4, symSize: 0x80 }
  - { offset: 0xBCCB2, size: 0x8, addend: 0x0, symName: __ZNK8crashpad8internal33SystemSnapshotIOSIntermediateDump14CrashpadUptimeEv, symObjAddr: 0x1044, symBinAddr: 0x55B64, symSize: 0x80 }
  - { offset: 0xBCECC, size: 0x8, addend: 0x0, symName: __ZN8crashpad8internal22SystemSnapshotMinidumpC2Ev, symObjAddr: 0x0, symBinAddr: 0x55BE4, symSize: 0x34 }
  - { offset: 0xBCF8C, size: 0x8, addend: 0x0, symName: __ZN8crashpad8internal22SystemSnapshotMinidumpC1Ev, symObjAddr: 0x34, symBinAddr: 0x55C18, symSize: 0x34 }
  - { offset: 0xBCFA1, size: 0x8, addend: 0x0, symName: __ZN8crashpad8internal22SystemSnapshotMinidumpC1Ev, symObjAddr: 0x34, symBinAddr: 0x55C18, symSize: 0x34 }
  - { offset: 0xBD0A3, size: 0x8, addend: 0x0, symName: __ZN8crashpad8internal22SystemSnapshotMinidumpD2Ev, symObjAddr: 0x68, symBinAddr: 0x55C4C, symSize: 0x54 }
  - { offset: 0xBD275, size: 0x8, addend: 0x0, symName: __ZN8crashpad8internal22SystemSnapshotMinidumpD1Ev, symObjAddr: 0xBC, symBinAddr: 0x55CA0, symSize: 0x4 }
  - { offset: 0xBD28A, size: 0x8, addend: 0x0, symName: __ZN8crashpad8internal22SystemSnapshotMinidumpD1Ev, symObjAddr: 0xBC, symBinAddr: 0x55CA0, symSize: 0x4 }
  - { offset: 0xBD29A, size: 0x8, addend: 0x0, symName: __ZN8crashpad8internal22SystemSnapshotMinidumpD0Ev, symObjAddr: 0xC0, symBinAddr: 0x55CA4, symSize: 0x14 }
  - { offset: 0xBD2D3, size: 0x8, addend: 0x0, symName: __ZN8crashpad8internal22SystemSnapshotMinidump10InitializeEPNS_19FileReaderInterfaceEjRKNSt3__112basic_stringIcNS4_11char_traitsIcEENS4_9allocatorIcEEEE, symObjAddr: 0xD4, symBinAddr: 0x55CB8, symSize: 0x140 }
  - { offset: 0xBD5A9, size: 0x8, addend: 0x0, symName: __ZNK8crashpad8internal22SystemSnapshotMinidump18GetCPUArchitectureEv, symObjAddr: 0x214, symBinAddr: 0x55DF8, symSize: 0x108 }
  - { offset: 0xBD605, size: 0x8, addend: 0x0, symName: __ZNK8crashpad8internal22SystemSnapshotMinidump11CPURevisionEv, symObjAddr: 0x31C, symBinAddr: 0x55F00, symSize: 0x80 }
  - { offset: 0xBD661, size: 0x8, addend: 0x0, symName: __ZNK8crashpad8internal22SystemSnapshotMinidump8CPUCountEv, symObjAddr: 0x39C, symBinAddr: 0x55F80, symSize: 0x80 }
  - { offset: 0xBD6F3, size: 0x8, addend: 0x0, symName: __ZNK8crashpad8internal22SystemSnapshotMinidump9CPUVendorEv, symObjAddr: 0x41C, symBinAddr: 0x56000, symSize: 0xC8 }
  - { offset: 0xBD891, size: 0x8, addend: 0x0, symName: __ZNK8crashpad8internal22SystemSnapshotMinidump12CPUFrequencyEPyS2_, symObjAddr: 0x4E4, symBinAddr: 0x560C8, symSize: 0xDC }
  - { offset: 0xBD9DB, size: 0x8, addend: 0x0, symName: __ZNK8crashpad8internal22SystemSnapshotMinidump15CPUX86SignatureEv, symObjAddr: 0x5C0, symBinAddr: 0x561A4, symSize: 0xE0 }
  - { offset: 0xBDA85, size: 0x8, addend: 0x0, symName: __ZNK8crashpad8internal22SystemSnapshotMinidump14CPUX86FeaturesEv, symObjAddr: 0x6A0, symBinAddr: 0x56284, symSize: 0xE0 }
  - { offset: 0xBDB2F, size: 0x8, addend: 0x0, symName: __ZNK8crashpad8internal22SystemSnapshotMinidump22CPUX86ExtendedFeaturesEv, symObjAddr: 0x780, symBinAddr: 0x56364, symSize: 0xE0 }
  - { offset: 0xBDBD9, size: 0x8, addend: 0x0, symName: __ZNK8crashpad8internal22SystemSnapshotMinidump19CPUX86Leaf7FeaturesEv, symObjAddr: 0x860, symBinAddr: 0x56444, symSize: 0xE0 }
  - { offset: 0xBDC83, size: 0x8, addend: 0x0, symName: __ZNK8crashpad8internal22SystemSnapshotMinidump17CPUX86SupportsDAZEv, symObjAddr: 0x940, symBinAddr: 0x56524, symSize: 0xE0 }
  - { offset: 0xBDD2D, size: 0x8, addend: 0x0, symName: __ZNK8crashpad8internal22SystemSnapshotMinidump18GetOperatingSystemEv, symObjAddr: 0xA20, symBinAddr: 0x56604, symSize: 0xFC }
  - { offset: 0xBDD89, size: 0x8, addend: 0x0, symName: __ZNK8crashpad8internal22SystemSnapshotMinidump8OSServerEv, symObjAddr: 0xB1C, symBinAddr: 0x56700, symSize: 0x88 }
  - { offset: 0xBDDE5, size: 0x8, addend: 0x0, symName: __ZNK8crashpad8internal22SystemSnapshotMinidump9OSVersionEPiS2_S2_PNSt3__112basic_stringIcNS3_11char_traitsIcEENS3_9allocatorIcEEEE, symObjAddr: 0xBA4, symBinAddr: 0x56788, symSize: 0xC0 }
  - { offset: 0xBDE53, size: 0x8, addend: 0x0, symName: __ZNK8crashpad8internal22SystemSnapshotMinidump13OSVersionFullEv, symObjAddr: 0xC64, symBinAddr: 0x56848, symSize: 0xB0 }
  - { offset: 0xBDF7F, size: 0x8, addend: 0x0, symName: __ZNK8crashpad8internal22SystemSnapshotMinidump18MachineDescriptionEv, symObjAddr: 0xD14, symBinAddr: 0x568F8, symSize: 0xF0 }
  - { offset: 0xBE093, size: 0x8, addend: 0x0, symName: __ZNK8crashpad8internal22SystemSnapshotMinidump9NXEnabledEv, symObjAddr: 0xE04, symBinAddr: 0x569E8, symSize: 0xE0 }
  - { offset: 0xBE13D, size: 0x8, addend: 0x0, symName: __ZNK8crashpad8internal22SystemSnapshotMinidump8TimeZoneEPNS_14SystemSnapshot24DaylightSavingTimeStatusEPiS5_PNSt3__112basic_stringIcNS6_11char_traitsIcEENS6_9allocatorIcEEEESD_, symObjAddr: 0xEE4, symBinAddr: 0x56AC8, symSize: 0xDC }
  - { offset: 0xBE1E7, size: 0x8, addend: 0x0, symName: __ZNK8crashpad8internal22SystemSnapshotMinidump11AddressMaskEv, symObjAddr: 0xFC0, symBinAddr: 0x56BA4, symSize: 0xE0 }
  - { offset: 0xBE660, size: 0x8, addend: 0x0, symName: __ZN8crashpad6ThreadC2Ev, symObjAddr: 0x0, symBinAddr: 0x56C84, symSize: 0x10 }
  - { offset: 0xBE67D, size: 0x8, addend: 0x0, symName: __ZN8crashpad6ThreadD2Ev, symObjAddr: 0x10, symBinAddr: 0x56C94, symSize: 0x98 }
  - { offset: 0xBE77D, size: 0x8, addend: 0x0, symName: __ZN8crashpad6ThreadD1Ev, symObjAddr: 0xB8, symBinAddr: 0x56D2C, symSize: 0x4 }
  - { offset: 0xBE78E, size: 0x8, addend: 0x0, symName: __ZN8crashpad6ThreadD0Ev, symObjAddr: 0xBC, symBinAddr: 0x56D30, symSize: 0x4 }
  - { offset: 0xBEAD3, size: 0x8, addend: 0x0, symName: __ZN8crashpad6Thread5StartEv, symObjAddr: 0x0, symBinAddr: 0x56D34, symSize: 0x144 }
  - { offset: 0xBEC99, size: 0x8, addend: 0x0, symName: __ZN8crashpad6Thread16ThreadEntryThunkEPv, symObjAddr: 0x144, symBinAddr: 0x56E78, symSize: 0x20 }
  - { offset: 0xBECB6, size: 0x8, addend: 0x0, symName: __ZN8crashpad6Thread4JoinEv, symObjAddr: 0x164, symBinAddr: 0x56E98, symSize: 0x138 }
  - { offset: 0xBEDD5, size: 0x8, addend: 0x0, symName: __ZN8crashpad6Thread21GetThreadIdForTestingEv, symObjAddr: 0x29C, symBinAddr: 0x56FD0, symSize: 0xC4 }
  - { offset: 0xBF207, size: 0x8, addend: 0x0, symName: __ZN8crashpad8internal33ThreadSnapshotIOSIntermediateDumpC2Ev, symObjAddr: 0x0, symBinAddr: 0x57094, symSize: 0x80 }
  - { offset: 0xBF2EF, size: 0x8, addend: 0x0, symName: __ZN8crashpad8internal33ThreadSnapshotIOSIntermediateDumpC1Ev, symObjAddr: 0x80, symBinAddr: 0x57114, symSize: 0x80 }
  - { offset: 0xBF47C, size: 0x8, addend: 0x0, symName: __ZN8crashpad8internal33ThreadSnapshotIOSIntermediateDumpD2Ev, symObjAddr: 0x100, symBinAddr: 0x57194, symSize: 0x74 }
  - { offset: 0xBF808, size: 0x8, addend: 0x0, symName: __ZNSt3__16vectorINS_10unique_ptrIN8crashpad8internal33MemorySnapshotIOSIntermediateDumpENS_14default_deleteIS4_EEEENS_9allocatorIS7_EEE16__destroy_vectorclB8ne190102Ev, symObjAddr: 0x138C, symBinAddr: 0x57D28, symSize: 0x40 }
  - { offset: 0xBF8A8, size: 0x8, addend: 0x0, symName: __ZN8crashpad8internal33ThreadSnapshotIOSIntermediateDumpD1Ev, symObjAddr: 0x174, symBinAddr: 0x57208, symSize: 0x4 }
  - { offset: 0xBF8BD, size: 0x8, addend: 0x0, symName: __ZN8crashpad8internal33ThreadSnapshotIOSIntermediateDumpD1Ev, symObjAddr: 0x174, symBinAddr: 0x57208, symSize: 0x4 }
  - { offset: 0xBF8CD, size: 0x8, addend: 0x0, symName: __ZN8crashpad8internal33ThreadSnapshotIOSIntermediateDumpD0Ev, symObjAddr: 0x178, symBinAddr: 0x5720C, symSize: 0x14 }
  - { offset: 0xBFA2C, size: 0x8, addend: 0x0, symName: __ZN8crashpad8internal33ThreadSnapshotIOSIntermediateDump10InitializeEPKNS0_22IOSIntermediateDumpMapE, symObjAddr: 0x18C, symBinAddr: 0x57220, symSize: 0x628 }
  - { offset: 0xC0713, size: 0x8, addend: 0x0, symName: __ZNSt3__114__split_bufferINS_10unique_ptrIN8crashpad8internal33MemorySnapshotIOSIntermediateDumpENS_14default_deleteIS4_EEEERNS_9allocatorIS7_EEED2Ev, symObjAddr: 0x16BC, symBinAddr: 0x57DC8, symSize: 0x34 }
  - { offset: 0xC071D, size: 0x8, addend: 0x0, symName: __ZNSt3__114__split_bufferINS_10unique_ptrIN8crashpad8internal33MemorySnapshotIOSIntermediateDumpENS_14default_deleteIS4_EEEERNS_9allocatorIS7_EEED2Ev, symObjAddr: 0x16BC, symBinAddr: 0x57DC8, symSize: 0x34 }
  - { offset: 0xC09E3, size: 0x8, addend: 0x0, symName: __ZNK8crashpad8internal33ThreadSnapshotIOSIntermediateDump7ContextEv, symObjAddr: 0x994, symBinAddr: 0x57848, symSize: 0x80 }
  - { offset: 0xC0A3F, size: 0x8, addend: 0x0, symName: __ZNK8crashpad8internal33ThreadSnapshotIOSIntermediateDump5StackEv, symObjAddr: 0xA14, symBinAddr: 0x578C8, symSize: 0x80 }
  - { offset: 0xC0A9B, size: 0x8, addend: 0x0, symName: __ZNK8crashpad8internal33ThreadSnapshotIOSIntermediateDump8ThreadIDEv, symObjAddr: 0xA94, symBinAddr: 0x57948, symSize: 0x80 }
  - { offset: 0xC0B0F, size: 0x8, addend: 0x0, symName: __ZNK8crashpad8internal33ThreadSnapshotIOSIntermediateDump10ThreadNameEv, symObjAddr: 0xB14, symBinAddr: 0x579C8, symSize: 0xB8 }
  - { offset: 0xC0C40, size: 0x8, addend: 0x0, symName: __ZNK8crashpad8internal33ThreadSnapshotIOSIntermediateDump12SuspendCountEv, symObjAddr: 0xBCC, symBinAddr: 0x57A80, symSize: 0x80 }
  - { offset: 0xC0C9C, size: 0x8, addend: 0x0, symName: __ZNK8crashpad8internal33ThreadSnapshotIOSIntermediateDump8PriorityEv, symObjAddr: 0xC4C, symBinAddr: 0x57B00, symSize: 0x80 }
  - { offset: 0xC0CF8, size: 0x8, addend: 0x0, symName: __ZNK8crashpad8internal33ThreadSnapshotIOSIntermediateDump25ThreadSpecificDataAddressEv, symObjAddr: 0xCCC, symBinAddr: 0x57B80, symSize: 0x80 }
  - { offset: 0xC0DFC, size: 0x8, addend: 0x0, symName: __ZNK8crashpad8internal33ThreadSnapshotIOSIntermediateDump11ExtraMemoryEv, symObjAddr: 0xD4C, symBinAddr: 0x57C00, symSize: 0x128 }
  - { offset: 0xC14DB, size: 0x8, addend: 0x0, symName: __ZNSt3__16vectorINS_10unique_ptrIN8crashpad8internal33MemorySnapshotIOSIntermediateDumpENS_14default_deleteIS4_EEEENS_9allocatorIS7_EEE16__destroy_vectorclB8ne190102Ev, symObjAddr: 0x138C, symBinAddr: 0x57D28, symSize: 0x40 }
  - { offset: 0xC14F7, size: 0x8, addend: 0x0, symName: __ZNSt3__16vectorINS_10unique_ptrIN8crashpad8internal33MemorySnapshotIOSIntermediateDumpENS_14default_deleteIS4_EEEENS_9allocatorIS7_EEE22__base_destruct_at_endB8ne190102EPS7_, symObjAddr: 0x13CC, symBinAddr: 0x57D68, symSize: 0x60 }
  - { offset: 0xC16B3, size: 0x8, addend: 0x0, symName: __ZNSt3__114__split_bufferINS_10unique_ptrIN8crashpad8internal33MemorySnapshotIOSIntermediateDumpENS_14default_deleteIS4_EEEERNS_9allocatorIS7_EEE17__destruct_at_endB8ne190102EPS7_, symObjAddr: 0x16F0, symBinAddr: 0x57DFC, symSize: 0x50 }
  - { offset: 0xC16C8, size: 0x8, addend: 0x0, symName: __ZNSt3__114__split_bufferINS_10unique_ptrIN8crashpad8internal33MemorySnapshotIOSIntermediateDumpENS_14default_deleteIS4_EEEERNS_9allocatorIS7_EEE17__destruct_at_endB8ne190102EPS7_, symObjAddr: 0x16F0, symBinAddr: 0x57DFC, symSize: 0x50 }
  - { offset: 0xC1781, size: 0x8, addend: 0x0, symName: __ZN8crashpad8internal22ThreadSnapshotMinidumpC2Ev, symObjAddr: 0x0, symBinAddr: 0x57E4C, symSize: 0x94 }
  - { offset: 0xC183C, size: 0x8, addend: 0x0, symName: __ZN8crashpad8internal22ThreadSnapshotMinidumpC2Ev, symObjAddr: 0x0, symBinAddr: 0x57E4C, symSize: 0x94 }
  - { offset: 0xC1AF7, size: 0x8, addend: 0x0, symName: __ZN8crashpad8internal22ThreadSnapshotMinidumpC1Ev, symObjAddr: 0x94, symBinAddr: 0x57EE0, symSize: 0x4 }
  - { offset: 0xC1B0C, size: 0x8, addend: 0x0, symName: __ZN8crashpad8internal22ThreadSnapshotMinidumpC1Ev, symObjAddr: 0x94, symBinAddr: 0x57EE0, symSize: 0x4 }
  - { offset: 0xC1B16, size: 0x8, addend: 0x0, symName: __ZN8crashpad8internal22ThreadSnapshotMinidumpD2Ev, symObjAddr: 0x98, symBinAddr: 0x57EE4, symSize: 0x60 }
  - { offset: 0xC1D67, size: 0x8, addend: 0x0, symName: __ZN8crashpad8internal22ThreadSnapshotMinidumpD1Ev, symObjAddr: 0xF8, symBinAddr: 0x57F44, symSize: 0x4 }
  - { offset: 0xC1D7C, size: 0x8, addend: 0x0, symName: __ZN8crashpad8internal22ThreadSnapshotMinidumpD1Ev, symObjAddr: 0xF8, symBinAddr: 0x57F44, symSize: 0x4 }
  - { offset: 0xC1D8C, size: 0x8, addend: 0x0, symName: __ZN8crashpad8internal22ThreadSnapshotMinidumpD0Ev, symObjAddr: 0xFC, symBinAddr: 0x57F48, symSize: 0x14 }
  - { offset: 0xC1E13, size: 0x8, addend: 0x0, symName: __ZN8crashpad8internal22ThreadSnapshotMinidump10InitializeEPNS_19FileReaderInterfaceEjNS_15CPUArchitectureERKNSt3__13mapIjNS5_12basic_stringIcNS5_11char_traitsIcEENS5_9allocatorIcEEEENS5_4lessIjEENSA_INS5_4pairIKjSC_EEEEEE, symObjAddr: 0x110, symBinAddr: 0x57F5C, symSize: 0x244 }
  - { offset: 0xC2520, size: 0x8, addend: 0x0, symName: __ZNK8crashpad8internal22ThreadSnapshotMinidump8ThreadIDEv, symObjAddr: 0x354, symBinAddr: 0x581A0, symSize: 0x80 }
  - { offset: 0xC258E, size: 0x8, addend: 0x0, symName: __ZNK8crashpad8internal22ThreadSnapshotMinidump10ThreadNameEv, symObjAddr: 0x3D4, symBinAddr: 0x58220, symSize: 0xB0 }
  - { offset: 0xC26BA, size: 0x8, addend: 0x0, symName: __ZNK8crashpad8internal22ThreadSnapshotMinidump12SuspendCountEv, symObjAddr: 0x484, symBinAddr: 0x582D0, symSize: 0x80 }
  - { offset: 0xC2716, size: 0x8, addend: 0x0, symName: __ZNK8crashpad8internal22ThreadSnapshotMinidump25ThreadSpecificDataAddressEv, symObjAddr: 0x504, symBinAddr: 0x58350, symSize: 0x80 }
  - { offset: 0xC2772, size: 0x8, addend: 0x0, symName: __ZNK8crashpad8internal22ThreadSnapshotMinidump8PriorityEv, symObjAddr: 0x584, symBinAddr: 0x583D0, symSize: 0x80 }
  - { offset: 0xC27CE, size: 0x8, addend: 0x0, symName: __ZNK8crashpad8internal22ThreadSnapshotMinidump7ContextEv, symObjAddr: 0x604, symBinAddr: 0x58450, symSize: 0x84 }
  - { offset: 0xC2863, size: 0x8, addend: 0x0, symName: __ZNK8crashpad8internal22ThreadSnapshotMinidump5StackEv, symObjAddr: 0x708, symBinAddr: 0x584D4, symSize: 0x80 }
  - { offset: 0xC28CB, size: 0x8, addend: 0x0, symName: __ZNK8crashpad8internal22ThreadSnapshotMinidump11ExtraMemoryEv, symObjAddr: 0x788, symBinAddr: 0x58554, symSize: 0x84 }
  - { offset: 0xC2BA6, size: 0x8, addend: 0x0, symName: __ZN8crashpad8internal8TimeZoneERK7timevalPNS_14SystemSnapshot24DaylightSavingTimeStatusEPiS7_PNSt3__112basic_stringIcNS8_11char_traitsIcEENS8_9allocatorIcEEEESF_, symObjAddr: 0x0, symBinAddr: 0x585D8, symSize: 0x2B8 }
  - { offset: 0xC311D, size: 0x8, addend: 0x0, symName: __ZN8crashpad22UnloadedModuleSnapshotC2EyyjjRKNSt3__112basic_stringIcNS1_11char_traitsIcEENS1_9allocatorIcEEEE, symObjAddr: 0x0, symBinAddr: 0x58890, symSize: 0x70 }
  - { offset: 0xC3142, size: 0x8, addend: 0x0, symName: __ZN8crashpad22UnloadedModuleSnapshotC2EyyjjRKNSt3__112basic_stringIcNS1_11char_traitsIcEENS1_9allocatorIcEEEE, symObjAddr: 0x0, symBinAddr: 0x58890, symSize: 0x70 }
  - { offset: 0xC322A, size: 0x8, addend: 0x0, symName: __ZN8crashpad22UnloadedModuleSnapshotC1EyyjjRKNSt3__112basic_stringIcNS1_11char_traitsIcEENS1_9allocatorIcEEEE, symObjAddr: 0x70, symBinAddr: 0x58900, symSize: 0x70 }
  - { offset: 0xC32E3, size: 0x8, addend: 0x0, symName: __ZN8crashpad22UnloadedModuleSnapshotD2Ev, symObjAddr: 0xE0, symBinAddr: 0x58970, symSize: 0x30 }
  - { offset: 0xC33BC, size: 0x8, addend: 0x0, symName: __ZN8crashpad22UnloadedModuleSnapshotD1Ev, symObjAddr: 0x110, symBinAddr: 0x589A0, symSize: 0x30 }
  - { offset: 0xC353C, size: 0x8, addend: 0x0, symName: __ZN4base20PrepareForUTF8OutputIwEEvPKT_mPNSt3__112basic_stringIcNS4_11char_traitsIcEENS4_9allocatorIcEEEE, symObjAddr: 0x0, symBinAddr: 0x589D0, symSize: 0x40 }
  - { offset: 0xC3573, size: 0x8, addend: 0x0, symName: __ZN4base20PrepareForUTF8OutputIwEEvPKT_mPNSt3__112basic_stringIcNS4_11char_traitsIcEENS4_9allocatorIcEEEE, symObjAddr: 0x0, symBinAddr: 0x589D0, symSize: 0x40 }
  - { offset: 0xC3594, size: 0x8, addend: 0x0, symName: __ZN4base20PrepareForUTF8OutputIwEEvPKT_mPNSt3__112basic_stringIcNS4_11char_traitsIcEENS4_9allocatorIcEEEE, symObjAddr: 0x0, symBinAddr: 0x589D0, symSize: 0x40 }
  - { offset: 0xC35A9, size: 0x8, addend: 0x0, symName: __ZN4base20PrepareForUTF8OutputIwEEvPKT_mPNSt3__112basic_stringIcNS4_11char_traitsIcEENS4_9allocatorIcEEEE, symObjAddr: 0x0, symBinAddr: 0x589D0, symSize: 0x40 }
  - { offset: 0xC3626, size: 0x8, addend: 0x0, symName: __ZN4base20PrepareForUTF8OutputIDsEEvPKT_mPNSt3__112basic_stringIcNS4_11char_traitsIcEENS4_9allocatorIcEEEE, symObjAddr: 0x40, symBinAddr: 0x58A10, symSize: 0x40 }
  - { offset: 0xC3647, size: 0x8, addend: 0x0, symName: __ZN4base20PrepareForUTF8OutputIDsEEvPKT_mPNSt3__112basic_stringIcNS4_11char_traitsIcEENS4_9allocatorIcEEEE, symObjAddr: 0x40, symBinAddr: 0x58A10, symSize: 0x40 }
  - { offset: 0xC365C, size: 0x8, addend: 0x0, symName: __ZN4base20PrepareForUTF8OutputIDsEEvPKT_mPNSt3__112basic_stringIcNS4_11char_traitsIcEENS4_9allocatorIcEEEE, symObjAddr: 0x40, symBinAddr: 0x58A10, symSize: 0x40 }
  - { offset: 0xC3703, size: 0x8, addend: 0x0, symName: __ZN4base25PrepareForUTF16Or32OutputINSt3__112basic_stringIDsNS1_11char_traitsIDsEENS1_9allocatorIDsEEEEEEvPKcmPT_, symObjAddr: 0x80, symBinAddr: 0x58A50, symSize: 0x3C }
  - { offset: 0xC3724, size: 0x8, addend: 0x0, symName: __ZN4base25PrepareForUTF16Or32OutputINSt3__112basic_stringIDsNS1_11char_traitsIDsEENS1_9allocatorIDsEEEEEEvPKcmPT_, symObjAddr: 0x80, symBinAddr: 0x58A50, symSize: 0x3C }
  - { offset: 0xC3739, size: 0x8, addend: 0x0, symName: __ZN4base25PrepareForUTF16Or32OutputINSt3__112basic_stringIDsNS1_11char_traitsIDsEENS1_9allocatorIDsEEEEEEvPKcmPT_, symObjAddr: 0x80, symBinAddr: 0x58A50, symSize: 0x3C }
  - { offset: 0xC37C3, size: 0x8, addend: 0x0, symName: __ZNSt3__112basic_stringIDsNS_11char_traitsIDsEENS_9allocatorIDsEEE7reserveEm, symObjAddr: 0xBC, symBinAddr: 0x58A8C, symSize: 0x8C }
  - { offset: 0xC3888, size: 0x8, addend: 0x0, symName: __ZN4base20ReadUnicodeCharacterEPKciPiPj, symObjAddr: 0x148, symBinAddr: 0x58B18, symSize: 0x110 }
  - { offset: 0xC38AA, size: 0x8, addend: 0x0, symName: __ZNSt3__112basic_stringIDsNS_11char_traitsIDsEENS_9allocatorIDsEEE18__shrink_or_extendEm, symObjAddr: 0x984, symBinAddr: 0x58F44, symSize: 0x158 }
  - { offset: 0xC3B20, size: 0x8, addend: 0x0, symName: __ZN4base20ReadUnicodeCharacterEPKciPiPj, symObjAddr: 0x148, symBinAddr: 0x58B18, symSize: 0x110 }
  - { offset: 0xC3B5A, size: 0x8, addend: 0x0, symName: __ZN4base20ReadUnicodeCharacterEPKDsiPiPj, symObjAddr: 0x258, symBinAddr: 0x58C28, symSize: 0x90 }
  - { offset: 0xC3B9E, size: 0x8, addend: 0x0, symName: __ZN4base21WriteUnicodeCharacterEjPNSt3__112basic_stringIcNS0_11char_traitsIcEENS0_9allocatorIcEEEE, symObjAddr: 0x2E8, symBinAddr: 0x58CB8, symSize: 0x148 }
  - { offset: 0xC3DDF, size: 0x8, addend: 0x0, symName: __ZN4base21WriteUnicodeCharacterEjPNSt3__112basic_stringIDsNS0_11char_traitsIDsEENS0_9allocatorIDsEEEE, symObjAddr: 0x430, symBinAddr: 0x58E00, symSize: 0x9C }
  - { offset: 0xC3F09, size: 0x8, addend: 0x0, symName: __ZNSt3__112basic_stringIDsNS_11char_traitsIDsEENS_9allocatorIDsEEE9push_backEDs, symObjAddr: 0x4CC, symBinAddr: 0x58E9C, symSize: 0xA8 }
  - { offset: 0xC42A3, size: 0x8, addend: 0x0, symName: __ZN4base11UTF8ToUTF16EPKcmPNSt3__112basic_stringIDsNS2_11char_traitsIDsEENS2_9allocatorIDsEEEE, symObjAddr: 0x0, symBinAddr: 0x5909C, symSize: 0x9C }
  - { offset: 0xC42B6, size: 0x8, addend: 0x0, symName: __ZN4base11UTF8ToUTF16EPKcmPNSt3__112basic_stringIDsNS2_11char_traitsIDsEENS2_9allocatorIDsEEEE, symObjAddr: 0x0, symBinAddr: 0x5909C, symSize: 0x9C }
  - { offset: 0xC4372, size: 0x8, addend: 0x0, symName: __ZN4base11UTF8ToUTF16ERKNS_16BasicStringPieceINSt3__112basic_stringIcNS1_11char_traitsIcEENS1_9allocatorIcEEEEEE, symObjAddr: 0x9C, symBinAddr: 0x59138, symSize: 0x50 }
  - { offset: 0xC44D6, size: 0x8, addend: 0x0, symName: __ZN4base11UTF16ToUTF8EPKDsmPNSt3__112basic_stringIcNS2_11char_traitsIcEENS2_9allocatorIcEEEE, symObjAddr: 0xEC, symBinAddr: 0x59188, symSize: 0x9C }
  - { offset: 0xC4580, size: 0x8, addend: 0x0, symName: __ZN4base11UTF16ToUTF8ERKNS_16BasicStringPieceINSt3__112basic_stringIDsNS1_11char_traitsIDsEENS1_9allocatorIDsEEEEEE, symObjAddr: 0x188, symBinAddr: 0x59224, symSize: 0x50 }
  - { offset: 0xC4700, size: 0x8, addend: 0x0, symName: __ZNK8crashpad4UUIDeqERKS0_, symObjAddr: 0x0, symBinAddr: 0x59274, symSize: 0x18 }
  - { offset: 0xC470D, size: 0x8, addend: 0x0, symName: __ZNK8crashpad4UUIDeqERKS0_, symObjAddr: 0x0, symBinAddr: 0x59274, symSize: 0x18 }
  - { offset: 0xC471E, size: 0x8, addend: 0x0, symName: __ZNK8crashpad4UUIDltERKS0_, symObjAddr: 0x18, symBinAddr: 0x5928C, symSize: 0x4C }
  - { offset: 0xC472F, size: 0x8, addend: 0x0, symName: __ZN8crashpad4UUID16InitializeToZeroEv, symObjAddr: 0x64, symBinAddr: 0x592D8, symSize: 0x8 }
  - { offset: 0xC4758, size: 0x8, addend: 0x0, symName: __ZN8crashpad4UUID19InitializeFromBytesEPKh, symObjAddr: 0x6C, symBinAddr: 0x592E0, symSize: 0x38 }
  - { offset: 0xC47F1, size: 0x8, addend: 0x0, symName: __ZN8crashpad4UUID20InitializeFromStringERKN4base16BasicStringPieceINSt3__112basic_stringIcNS3_11char_traitsIcEENS3_9allocatorIcEEEEEE, symObjAddr: 0xA4, symBinAddr: 0x59318, symSize: 0xA0 }
  - { offset: 0xC4806, size: 0x8, addend: 0x0, symName: __ZN8crashpad4UUID20InitializeFromStringERKN4base16BasicStringPieceINSt3__112basic_stringIcNS3_11char_traitsIcEENS3_9allocatorIcEEEEEE, symObjAddr: 0xA4, symBinAddr: 0x59318, symSize: 0xA0 }
  - { offset: 0xC4846, size: 0x8, addend: 0x0, symName: __ZN8crashpad4UUID17InitializeWithNewEv, symObjAddr: 0x144, symBinAddr: 0x593B8, symSize: 0x90 }
  - { offset: 0xC48FC, size: 0x8, addend: 0x0, symName: __ZNK8crashpad4UUID8ToStringEv, symObjAddr: 0x1D4, symBinAddr: 0x59448, symSize: 0x68 }
  - { offset: 0xC4951, size: 0x8, addend: 0x0, symName: __ZN8crashpad12WorkerThreadC2EdPNS0_8DelegateE, symObjAddr: 0x0, symBinAddr: 0x594B0, symSize: 0x10 }
  - { offset: 0xC4968, size: 0x8, addend: 0x0, symName: __ZN8crashpad12WorkerThreadC1EdPNS0_8DelegateE, symObjAddr: 0x10, symBinAddr: 0x594C0, symSize: 0x10 }
  - { offset: 0xC497D, size: 0x8, addend: 0x0, symName: __ZN8crashpad12WorkerThreadC1EdPNS0_8DelegateE, symObjAddr: 0x10, symBinAddr: 0x594C0, symSize: 0x10 }
  - { offset: 0xC49A6, size: 0x8, addend: 0x0, symName: __ZN8crashpad12WorkerThreadD2Ev, symObjAddr: 0x20, symBinAddr: 0x594D0, symSize: 0x9C }
  - { offset: 0xC4ADD, size: 0x8, addend: 0x0, symName: __ZNSt3__110unique_ptrIN8crashpad8internal16WorkerThreadImplENS_14default_deleteIS3_EEE5resetB8ne190102EPS3_, symObjAddr: 0x21C, symBinAddr: 0x596BC, symSize: 0x40 }
  - { offset: 0xC4B2E, size: 0x8, addend: 0x0, symName: __ZN8crashpad12WorkerThreadD1Ev, symObjAddr: 0xCC, symBinAddr: 0x5956C, symSize: 0x4 }
  - { offset: 0xC4B43, size: 0x8, addend: 0x0, symName: __ZN8crashpad12WorkerThreadD1Ev, symObjAddr: 0xCC, symBinAddr: 0x5956C, symSize: 0x4 }
  - { offset: 0xC4B5F, size: 0x8, addend: 0x0, symName: __ZN8crashpad12WorkerThread5StartEd, symObjAddr: 0xD0, symBinAddr: 0x59570, symSize: 0x14C }
  - { offset: 0xC4C63, size: 0x8, addend: 0x0, symName: __ZN8crashpad8internal16WorkerThreadImplC2EPNS_12WorkerThreadEd, symObjAddr: 0x430, symBinAddr: 0x598D0, symSize: 0x68 }
  - { offset: 0xC4C8C, size: 0x8, addend: 0x0, symName: __ZN8crashpad12WorkerThread4StopEv, symObjAddr: 0x25C, symBinAddr: 0x596FC, symSize: 0x124 }
  - { offset: 0xC4DA9, size: 0x8, addend: 0x0, symName: __ZN8crashpad12WorkerThread9DoWorkNowEv, symObjAddr: 0x380, symBinAddr: 0x59820, symSize: 0xB0 }
  - { offset: 0xC4E6F, size: 0x8, addend: 0x0, symName: __ZN8crashpad8internal16WorkerThreadImplD1Ev, symObjAddr: 0x498, symBinAddr: 0x59938, symSize: 0x28 }
  - { offset: 0xC4E95, size: 0x8, addend: 0x0, symName: __ZN8crashpad8internal16WorkerThreadImplD0Ev, symObjAddr: 0x4C0, symBinAddr: 0x59960, symSize: 0x2C }
  - { offset: 0xC4EE2, size: 0x8, addend: 0x0, symName: __ZN8crashpad8internal16WorkerThreadImpl10ThreadMainEv, symObjAddr: 0x4EC, symBinAddr: 0x5998C, symSize: 0x74 }
  - { offset: 0xC52F7, size: 0x8, addend: 0x0, symName: __ZN8crashpad9ReadXattrERKN4base8FilePathERKNS0_16BasicStringPieceINSt3__112basic_stringIcNS5_11char_traitsIcEENS5_9allocatorIcEEEEEEPSB_, symObjAddr: 0x0, symBinAddr: 0x59A00, symSize: 0x260 }
  - { offset: 0xC568C, size: 0x8, addend: 0x0, symName: __ZN7logging17MakeCheckOpStringIllEEPNSt3__112basic_stringIcNS1_11char_traitsIcEENS1_9allocatorIcEEEERKT_RKT0_PKc, symObjAddr: 0xE34, symBinAddr: 0x5A458, symSize: 0x168 }
  - { offset: 0xC5C4C, size: 0x8, addend: 0x0, symName: __ZN8crashpad10WriteXattrERKN4base8FilePathERKNS0_16BasicStringPieceINSt3__112basic_stringIcNS5_11char_traitsIcEENS5_9allocatorIcEEEEEERKSB_, symObjAddr: 0x260, symBinAddr: 0x59C60, symSize: 0x118 }
  - { offset: 0xC5E93, size: 0x8, addend: 0x0, symName: __ZN8crashpad13ReadXattrBoolERKN4base8FilePathERKNS0_16BasicStringPieceINSt3__112basic_stringIcNS5_11char_traitsIcEENS5_9allocatorIcEEEEEEPb, symObjAddr: 0x378, symBinAddr: 0x59D78, symSize: 0x180 }
  - { offset: 0xC6248, size: 0x8, addend: 0x0, symName: __ZN8crashpad14WriteXattrBoolERKN4base8FilePathERKNS0_16BasicStringPieceINSt3__112basic_stringIcNS5_11char_traitsIcEENS5_9allocatorIcEEEEEEb, symObjAddr: 0x4F8, symBinAddr: 0x59EF8, symSize: 0x8C }
  - { offset: 0xC64B6, size: 0x8, addend: 0x0, symName: __ZN8crashpad12ReadXattrIntERKN4base8FilePathERKNS0_16BasicStringPieceINSt3__112basic_stringIcNS5_11char_traitsIcEENS5_9allocatorIcEEEEEEPi, symObjAddr: 0x584, symBinAddr: 0x59F84, symSize: 0x164 }
  - { offset: 0xC684E, size: 0x8, addend: 0x0, symName: __ZN8crashpad13WriteXattrIntERKN4base8FilePathERKNS0_16BasicStringPieceINSt3__112basic_stringIcNS5_11char_traitsIcEENS5_9allocatorIcEEEEEEi, symObjAddr: 0x6E8, symBinAddr: 0x5A0E8, symSize: 0x80 }
  - { offset: 0xC6A03, size: 0x8, addend: 0x0, symName: __ZN8crashpad14ReadXattrTimeTERKN4base8FilePathERKNS0_16BasicStringPieceINSt3__112basic_stringIcNS5_11char_traitsIcEENS5_9allocatorIcEEEEEEPl, symObjAddr: 0x768, symBinAddr: 0x5A168, symSize: 0x16C }
  - { offset: 0xC6D9B, size: 0x8, addend: 0x0, symName: __ZN8crashpad15WriteXattrTimeTERKN4base8FilePathERKNS0_16BasicStringPieceINSt3__112basic_stringIcNS5_11char_traitsIcEENS5_9allocatorIcEEEEEEl, symObjAddr: 0x8D4, symBinAddr: 0x5A2D4, symSize: 0x80 }
  - { offset: 0xC6F49, size: 0x8, addend: 0x0, symName: __ZN8crashpad11RemoveXattrERKN4base8FilePathERKNS0_16BasicStringPieceINSt3__112basic_stringIcNS5_11char_traitsIcEENS5_9allocatorIcEEEEEE, symObjAddr: 0x954, symBinAddr: 0x5A354, symSize: 0x104 }
  - { offset: 0xC7455, size: 0x8, addend: 0x0, symName: '_$sSo15AHSDKReflectionC5AHSDKE4KeysOSQACSQ2eeoiySbx_xtFZTW', symObjAddr: 0xE0, symBinAddr: 0x5A6A0, symSize: 0xC }
  - { offset: 0xC7470, size: 0x8, addend: 0x0, symName: '_$sSo15AHSDKReflectionC5AHSDKE4KeysOSHACSH9hashValueSivgTW', symObjAddr: 0xEC, symBinAddr: 0x5A6AC, symSize: 0x8 }
  - { offset: 0xC7499, size: 0x8, addend: 0x0, symName: '_$sSo15AHSDKReflectionC5AHSDKE4KeysOSHACSH4hash4intoys6HasherVz_tFTW', symObjAddr: 0xF4, symBinAddr: 0x5A6B4, symSize: 0x58 }
  - { offset: 0xC7508, size: 0x8, addend: 0x0, symName: '_$sSo15AHSDKReflectionC5AHSDKE4KeysOSHACSH13_rawHashValue4seedS2i_tFTW', symObjAddr: 0x14C, symBinAddr: 0x5A70C, symSize: 0x8 }
  - { offset: 0xC755F, size: 0x8, addend: 0x0, symName: '_$sSo29UIApplicationLaunchOptionsKeyas21_ObjectiveCBridgeableSCsACP016_forceBridgeFromE1C_6resulty01_E5CTypeQz_xSgztFZTW', symObjAddr: 0x598, symBinAddr: 0x5AAF0, symSize: 0x14 }
  - { offset: 0xC757A, size: 0x8, addend: 0x0, symName: '_$sSo29UIApplicationLaunchOptionsKeyas21_ObjectiveCBridgeableSCsACP024_conditionallyBridgeFromE1C_6resultSb01_E5CTypeQz_xSgztFZTW', symObjAddr: 0x5AC, symBinAddr: 0x5AB04, symSize: 0x18 }
  - { offset: 0xC75A9, size: 0x8, addend: 0x0, symName: '_$sSo12CFNumberTypeVSQSCSQ2eeoiySbx_xtFZTW', symObjAddr: 0x610, symBinAddr: 0x5AB60, symSize: 0x14 }
  - { offset: 0xC7605, size: 0x8, addend: 0x0, symName: '_$sSC9SKANErrorLeVSHSCSH13_rawHashValue4seedS2i_tFTW', symObjAddr: 0x854, symBinAddr: 0x5AD98, symSize: 0x5C }
  - { offset: 0xC763A, size: 0x8, addend: 0x0, symName: '_$sSo30UIApplicationOpenURLOptionsKeyas35_HasCustomAnyHashableRepresentationSCsACP03_tofgH0s0gH0VSgyFTW', symObjAddr: 0x8C0, symBinAddr: 0x5AE04, symSize: 0x84 }
  - { offset: 0xC7655, size: 0x8, addend: 0x0, symName: '_$sSo29UIApplicationLaunchOptionsKeyas35_HasCustomAnyHashableRepresentationSCsACP03_tofgH0s0gH0VSgyFTW', symObjAddr: 0x9B4, symBinAddr: 0x5AEF8, symSize: 0x84 }
  - { offset: 0xC7670, size: 0x8, addend: 0x0, symName: '_$sSC9SKANErrorLeVs5ErrorSCsACP9_userInfoyXlSgvgTW', symObjAddr: 0xAB8, symBinAddr: 0x5AFFC, symSize: 0x4 }
  - { offset: 0xC773A, size: 0x8, addend: 0x0, symName: ___swift_instantiateConcreteTypeFromMangledName, symObjAddr: 0x64, symBinAddr: 0x5A624, symSize: 0x44 }
  - { offset: 0xC7757, size: 0x8, addend: 0x0, symName: '_$s5AHSDK9SDKLoggerV3log_11accessLevel7message8fileName6prefix8priority10lineNumber29shouldCaptureTelemetrySignalsyAA0E0O_AA06AccessE0OS2SSgApA8PriorityOSiSbtFZfA0_', symObjAddr: 0x204, symBinAddr: 0x5A7C4, symSize: 0x8 }
  - { offset: 0xC7770, size: 0x8, addend: 0x0, symName: '_$s5AHSDK9SDKLoggerV3log_11accessLevel7message8fileName6prefix8priority10lineNumber29shouldCaptureTelemetrySignalsyAA0E0O_AA06AccessE0OS2SSgApA8PriorityOSiSbtFZfA4_', symObjAddr: 0x20C, symBinAddr: 0x5A7CC, symSize: 0x8 }
  - { offset: 0xC7789, size: 0x8, addend: 0x0, symName: '_$s5AHSDK14AppLinkManagerC06proxy_B15DelegateOpenURL_4open7optionsSbSo13UIApplicationC_10Foundation0H0VSgSDySo0kG13URLOptionsKeyaypGtFfA1_', symObjAddr: 0x234, symBinAddr: 0x5A7D4, symSize: 0xC }
  - { offset: 0xC77A6, size: 0x8, addend: 0x0, symName: '_$s5AHSDK14AppLinkManagerC06proxy_B15DelegateOpenURL_4open7optionsSbSo13UIApplicationC_10Foundation0H0VSgSDySo0kG13URLOptionsKeyaypGtFfA1_', symObjAddr: 0x234, symBinAddr: 0x5A7D4, symSize: 0xC }
  - { offset: 0xC77B7, size: 0x8, addend: 0x0, symName: '_$s5AHSDK5EventV4name16isImplicitLogged6params17operationalParams7logTimeACSS_SbSDySSypGSDyAA23OperationalParameterKeyOypGSiSgtcfcfA0_', symObjAddr: 0x240, symBinAddr: 0x5A7E0, symSize: 0x8 }
  - { offset: 0xC77D0, size: 0x8, addend: 0x0, symName: '_$s5AHSDK5EventV4name16isImplicitLogged6params17operationalParams7logTimeACSS_SbSDySSypGSDyAA23OperationalParameterKeyOypGSiSgtcfcfA1_', symObjAddr: 0x248, symBinAddr: 0x5A7E8, symSize: 0xC }
  - { offset: 0xC77ED, size: 0x8, addend: 0x0, symName: '_$s5AHSDK5EventV4name16isImplicitLogged6params17operationalParams7logTimeACSS_SbSDySSypGSDyAA23OperationalParameterKeyOypGSiSgtcfcfA1_', symObjAddr: 0x248, symBinAddr: 0x5A7E8, symSize: 0xC }
  - { offset: 0xC77FE, size: 0x8, addend: 0x0, symName: '_$s5AHSDK5EventV4name16isImplicitLogged6params17operationalParams7logTimeACSS_SbSDySSypGSDyAA23OperationalParameterKeyOypGSiSgtcfcfA2_', symObjAddr: 0x254, symBinAddr: 0x5A7F4, symSize: 0xC }
  - { offset: 0xC781B, size: 0x8, addend: 0x0, symName: '_$s5AHSDK5EventV4name16isImplicitLogged6params17operationalParams7logTimeACSS_SbSDySSypGSDyAA23OperationalParameterKeyOypGSiSgtcfcfA2_', symObjAddr: 0x254, symBinAddr: 0x5A7F4, symSize: 0xC }
  - { offset: 0xC782C, size: 0x8, addend: 0x0, symName: '_$s5AHSDK9DiskCacheCyACyxq_GSScfcfA_', symObjAddr: 0x260, symBinAddr: 0x5A800, symSize: 0x14 }
  - { offset: 0xC7856, size: 0x8, addend: 0x0, symName: '_$s5AHSDK18PurchaseEventCacheC_17withCleanupWindowACSSSg_SdtcfcfA0_', symObjAddr: 0x274, symBinAddr: 0x5A814, symSize: 0xC }
  - { offset: 0xC787F, size: 0x8, addend: 0x0, symName: '_$s5AHSDK11SwiftSymbolV5print5usingSSAA0C12PrintOptionsV_tFfA_', symObjAddr: 0x298, symBinAddr: 0x5A820, symSize: 0x44 }
  - { offset: 0xC78A5, size: 0x8, addend: 0x0, symName: '_$s5AHSDK11SwiftSymbolV4kind8children8contentsA2C4KindO_SayACGAC8ContentsOtcfcfA0_', symObjAddr: 0x2DC, symBinAddr: 0x5A864, symSize: 0xC }
  - { offset: 0xC78BE, size: 0x8, addend: 0x0, symName: '_$s5AHSDK11SwiftSymbolV4kind8children8contentsA2C4KindO_SayACGAC8ContentsOtcfcfA1_', symObjAddr: 0x2E8, symBinAddr: 0x5A870, symSize: 0x10 }
  - { offset: 0xC78D7, size: 0x8, addend: 0x0, symName: '_$s10Foundation4DataV5AHSDKE7gzipped5level5wBitsAcD16CompressionLevelV_s5Int32VtKFfA_', symObjAddr: 0x2F8, symBinAddr: 0x5A880, symSize: 0x8 }
  - { offset: 0xC78F0, size: 0x8, addend: 0x0, symName: '_$s10Foundation4DataV5AHSDKE7gzipped5level5wBitsAcD16CompressionLevelV_s5Int32VtKFfA0_', symObjAddr: 0x300, symBinAddr: 0x5A888, symSize: 0x8 }
  - { offset: 0xC7909, size: 0x8, addend: 0x0, symName: '_$s10Foundation4DataV5AHSDKE9gunzipped5wBitsACs5Int32V_tKFfA_', symObjAddr: 0x308, symBinAddr: 0x5A890, symSize: 0x8 }
  - { offset: 0xC7922, size: 0x8, addend: 0x0, symName: '_$s5AHSDK11DynamicJSONV4data7optionsACSg10Foundation4DataV_So20NSJSONReadingOptionsVtcfcfA0_', symObjAddr: 0x318, symBinAddr: 0x5A898, symSize: 0x8 }
  - { offset: 0xC7947, size: 0x8, addend: 0x0, symName: '_$s5AHSDK14InfoPlistCacheCyACyxq_GSo8NSBundleCcfcfA_', symObjAddr: 0x320, symBinAddr: 0x5A8A0, symSize: 0x2C }
  - { offset: 0xC7984, size: 0x8, addend: 0x0, symName: '_$s5AHSDK11RegexHelperV_7optionsACSS_So26NSRegularExpressionOptionsVtKcfcfA0_', symObjAddr: 0x34C, symBinAddr: 0x5A8CC, symSize: 0x8 }
  - { offset: 0xC79C5, size: 0x8, addend: 0x0, symName: '_$sSa22_allocateUninitializedySayxG_SpyxGtSiFZ5AHSDK11SwiftSymbolV_Tt0g5', symObjAddr: 0xB54, symBinAddr: 0x5B098, symSize: 0x4C }
  - { offset: 0xC7A13, size: 0x8, addend: 0x0, symName: '_$sSo15AHSDKReflectionC5AHSDKE4KeysOSHACSQWb', symObjAddr: 0xBA0, symBinAddr: 0x5B0E4, symSize: 0x4 }
  - { offset: 0xC7A26, size: 0x8, addend: 0x0, symName: '_$sSo15AHSDKReflectionC5AHSDKE4KeysOAESQACWl', symObjAddr: 0xBA4, symBinAddr: 0x5B0E8, symSize: 0x40 }
  - { offset: 0xC7A39, size: 0x8, addend: 0x0, symName: ___swift_memcpy1_1, symObjAddr: 0xBE4, symBinAddr: 0x5B128, symSize: 0xC }
  - { offset: 0xC7A4C, size: 0x8, addend: 0x0, symName: ___swift_noop_void_return, symObjAddr: 0xBF0, symBinAddr: 0x5B134, symSize: 0x4 }
  - { offset: 0xC7A5F, size: 0x8, addend: 0x0, symName: '_$sSo15AHSDKReflectionC5AHSDKE4KeysOwet', symObjAddr: 0xBF4, symBinAddr: 0x5B138, symSize: 0x90 }
  - { offset: 0xC7A72, size: 0x8, addend: 0x0, symName: '_$sSo15AHSDKReflectionC5AHSDKE4KeysOwst', symObjAddr: 0xC84, symBinAddr: 0x5B1C8, symSize: 0xB0 }
  - { offset: 0xC7A85, size: 0x8, addend: 0x0, symName: '_$sSo15AHSDKReflectionC5AHSDKE4KeysOwug', symObjAddr: 0xD34, symBinAddr: 0x5B278, symSize: 0x8 }
  - { offset: 0xC7A98, size: 0x8, addend: 0x0, symName: '_$sSo15AHSDKReflectionC5AHSDKE4KeysOwup', symObjAddr: 0xD3C, symBinAddr: 0x5B280, symSize: 0x4 }
  - { offset: 0xC7AAB, size: 0x8, addend: 0x0, symName: '_$sSo15AHSDKReflectionC5AHSDKE4KeysOwui', symObjAddr: 0xD40, symBinAddr: 0x5B284, symSize: 0xC }
  - { offset: 0xC7ABE, size: 0x8, addend: 0x0, symName: '_$sSo15AHSDKReflectionC5AHSDKE4KeysOMa', symObjAddr: 0xD4C, symBinAddr: 0x5B290, symSize: 0x10 }
  - { offset: 0xC7AD1, size: 0x8, addend: 0x0, symName: ___swift_memcpy16_4, symObjAddr: 0xD5C, symBinAddr: 0x5B2A0, symSize: 0xC }
  - { offset: 0xC7AE4, size: 0x8, addend: 0x0, symName: '_$sSo18host_cpu_load_infoVwet', symObjAddr: 0xD68, symBinAddr: 0x5B2AC, symSize: 0x20 }
  - { offset: 0xC7AF7, size: 0x8, addend: 0x0, symName: '_$sSo18host_cpu_load_infoVwst', symObjAddr: 0xD88, symBinAddr: 0x5B2CC, symSize: 0x28 }
  - { offset: 0xC7B0A, size: 0x8, addend: 0x0, symName: ___swift_memcpy20_4, symObjAddr: 0xDD8, symBinAddr: 0x5B31C, symSize: 0x14 }
  - { offset: 0xC7B1D, size: 0x8, addend: 0x0, symName: '_$sSo9NSDecimalawet', symObjAddr: 0xDEC, symBinAddr: 0x5B330, symSize: 0x20 }
  - { offset: 0xC7B30, size: 0x8, addend: 0x0, symName: '_$sSo9NSDecimalawst', symObjAddr: 0xE0C, symBinAddr: 0x5B350, symSize: 0x2C }
  - { offset: 0xC7B43, size: 0x8, addend: 0x0, symName: '_$sSC9SKANErrorLeVSHSCSQWb', symObjAddr: 0xE4C, symBinAddr: 0x5B390, symSize: 0x2C }
  - { offset: 0xC7B56, size: 0x8, addend: 0x0, symName: '_$sSC9SKANErrorLeV10Foundation13CustomNSErrorSCs5ErrorPWb', symObjAddr: 0xEB8, symBinAddr: 0x5B3FC, symSize: 0x2C }
  - { offset: 0xC7B69, size: 0x8, addend: 0x0, symName: '_$sSC9SKANErrorLeV10Foundation21_BridgedStoredNSErrorSCAC06CustomE0PWb', symObjAddr: 0xEE4, symBinAddr: 0x5B428, symSize: 0x2C }
  - { offset: 0xC7B7C, size: 0x8, addend: 0x0, symName: '_$sSC9SKANErrorLeV10Foundation21_BridgedStoredNSErrorSCAC26_ObjectiveCBridgeableErrorPWb', symObjAddr: 0xF10, symBinAddr: 0x5B454, symSize: 0x2C }
  - { offset: 0xC7B8F, size: 0x8, addend: 0x0, symName: '_$sSC9SKANErrorLeV10Foundation21_BridgedStoredNSErrorSCSHWb', symObjAddr: 0xF3C, symBinAddr: 0x5B480, symSize: 0x2C }
  - { offset: 0xC7BA2, size: 0x8, addend: 0x0, symName: '_$sSC9SKANErrorLeV10Foundation21_BridgedStoredNSErrorSC4CodeAcDP_AC06_ErrorF8ProtocolPWT', symObjAddr: 0xF68, symBinAddr: 0x5B4AC, symSize: 0x2C }
  - { offset: 0xC7BB5, size: 0x8, addend: 0x0, symName: '_$sSC9SKANErrorLeV10Foundation21_BridgedStoredNSErrorSC4CodeAcDP_SYWT', symObjAddr: 0xFA8, symBinAddr: 0x5B4EC, symSize: 0x2C }
  - { offset: 0xC7BC8, size: 0x8, addend: 0x0, symName: '_$sSC9SKANErrorLeV10Foundation21_BridgedStoredNSErrorSC4CodeAcDP_8RawValueSYs17FixedWidthIntegerPWT', symObjAddr: 0xFD4, symBinAddr: 0x5B518, symSize: 0x4 }
  - { offset: 0xC7BDB, size: 0x8, addend: 0x0, symName: '_$sS2is17FixedWidthIntegersWl', symObjAddr: 0xFD8, symBinAddr: 0x5B51C, symSize: 0x40 }
  - { offset: 0xC7BEE, size: 0x8, addend: 0x0, symName: '_$sSo9SKANErrorV10Foundation18_ErrorCodeProtocolSCSQWb', symObjAddr: 0x1018, symBinAddr: 0x5B55C, symSize: 0x2C }
  - { offset: 0xC7C01, size: 0x8, addend: 0x0, symName: '_$sSo9SKANErrorV10Foundation18_ErrorCodeProtocolSC01_C4TypeAcDP_AC21_BridgedStoredNSErrorPWT', symObjAddr: 0x1044, symBinAddr: 0x5B588, symSize: 0x2C }
  - { offset: 0xC7C14, size: 0x8, addend: 0x0, symName: '_$sSo30UIApplicationOpenURLOptionsKeyas20_SwiftNewtypeWrapperSCSYWb', symObjAddr: 0x10DC, symBinAddr: 0x5B620, symSize: 0x2C }
  - { offset: 0xC7C27, size: 0x8, addend: 0x0, symName: '_$sSo30UIApplicationOpenURLOptionsKeyas20_SwiftNewtypeWrapperSCs35_HasCustomAnyHashableRepresentationPWb', symObjAddr: 0x1108, symBinAddr: 0x5B64C, symSize: 0x2C }
  - { offset: 0xC7C3A, size: 0x8, addend: 0x0, symName: '_$sSo29UIApplicationLaunchOptionsKeyas20_SwiftNewtypeWrapperSCSYWb', symObjAddr: 0x1134, symBinAddr: 0x5B678, symSize: 0x2C }
  - { offset: 0xC7C4D, size: 0x8, addend: 0x0, symName: '_$sSo29UIApplicationLaunchOptionsKeyas20_SwiftNewtypeWrapperSCs35_HasCustomAnyHashableRepresentationPWb', symObjAddr: 0x1160, symBinAddr: 0x5B6A4, symSize: 0x2C }
  - { offset: 0xC7C60, size: 0x8, addend: 0x0, symName: '_$sSo29UIApplicationLaunchOptionsKeyaSHSCSQWb', symObjAddr: 0x118C, symBinAddr: 0x5B6D0, symSize: 0x2C }
  - { offset: 0xC7C73, size: 0x8, addend: 0x0, symName: '_$sSo30UIApplicationOpenURLOptionsKeyaSHSCSQWb', symObjAddr: 0x11B8, symBinAddr: 0x5B6FC, symSize: 0x2C }
  - { offset: 0xC7CC7, size: 0x8, addend: 0x0, symName: '_$sSo15AHSDKReflectionC5AHSDKE4KeysO8rawValueAESgSS_tcfC', symObjAddr: 0x0, symBinAddr: 0x5A5C0, symSize: 0x64 }
  - { offset: 0xC7D03, size: 0x8, addend: 0x0, symName: '_$sSo15AHSDKReflectionC5AHSDKE4KeysO8rawValueSSvg', symObjAddr: 0xA8, symBinAddr: 0x5A668, symSize: 0x38 }
  - { offset: 0xC7D60, size: 0x8, addend: 0x0, symName: '_$sSo15AHSDKReflectionC5AHSDKE4KeysOSYACSY8rawValuexSg03RawE0Qz_tcfCTW', symObjAddr: 0x154, symBinAddr: 0x5A714, symSize: 0x70 }
  - { offset: 0xC7DA8, size: 0x8, addend: 0x0, symName: '_$sSo15AHSDKReflectionC5AHSDKE4KeysOSYACSY8rawValue03RawE0QzvgTW', symObjAddr: 0x1C4, symBinAddr: 0x5A784, symSize: 0x40 }
  - { offset: 0xC7ED0, size: 0x8, addend: 0x0, symName: '_$sSC9SKANErrorLeV10Foundation21_BridgedStoredNSErrorSCAcDP8_nsErrorSo0E0CvgTW', symObjAddr: 0x624, symBinAddr: 0x5AB74, symSize: 0x8 }
  - { offset: 0xC7EFE, size: 0x8, addend: 0x0, symName: '_$sSC9SKANErrorLeV10Foundation21_BridgedStoredNSErrorSCAcDP8_nsErrorxSo0E0C_tcfCTW', symObjAddr: 0x62C, symBinAddr: 0x5AB7C, symSize: 0x8 }
  - { offset: 0xC7F40, size: 0x8, addend: 0x0, symName: '_$sSo12CFNumberTypeVSYSCSY8rawValue03RawD0QzvgTW', symObjAddr: 0x6C8, symBinAddr: 0x5AC0C, symSize: 0xC }
  - { offset: 0xC7F5F, size: 0x8, addend: 0x0, symName: '_$sSC9SKANErrorLeV10Foundation13CustomNSErrorSCAcDP11errorDomainSSvgZTW', symObjAddr: 0x6D4, symBinAddr: 0x5AC18, symSize: 0x10 }
  - { offset: 0xC7F76, size: 0x8, addend: 0x0, symName: '_$sSC9SKANErrorLeV10Foundation13CustomNSErrorSCAcDP11errorDomainSSvgZTW', symObjAddr: 0x6D4, symBinAddr: 0x5AC18, symSize: 0x10 }
  - { offset: 0xC7F8F, size: 0x8, addend: 0x0, symName: '_$sSC9SKANErrorLeV10Foundation13CustomNSErrorSCAcDP9errorCodeSivgTW', symObjAddr: 0x6E4, symBinAddr: 0x5AC28, symSize: 0x40 }
  - { offset: 0xC7FAA, size: 0x8, addend: 0x0, symName: '_$sSC9SKANErrorLeV10Foundation13CustomNSErrorSCAcDP13errorUserInfoSDySSypGvgTW', symObjAddr: 0x724, symBinAddr: 0x5AC68, symSize: 0x40 }
  - { offset: 0xC7FC5, size: 0x8, addend: 0x0, symName: '_$sSC9SKANErrorLeV10Foundation26_ObjectiveCBridgeableErrorSCAcDP15_bridgedNSErrorxSgSo0G0Ch_tcfCTW', symObjAddr: 0x764, symBinAddr: 0x5ACA8, symSize: 0x68 }
  - { offset: 0xC7FEE, size: 0x8, addend: 0x0, symName: '_$sSC9SKANErrorLeVSHSCSH9hashValueSivgTW', symObjAddr: 0x7CC, symBinAddr: 0x5AD10, symSize: 0x38 }
  - { offset: 0xC801D, size: 0x8, addend: 0x0, symName: '_$sSC9SKANErrorLeVSHSCSH4hash4intoys6HasherVz_tFTW', symObjAddr: 0x804, symBinAddr: 0x5AD48, symSize: 0x50 }
  - { offset: 0xC8038, size: 0x8, addend: 0x0, symName: '_$sSC9SKANErrorLeVs5ErrorSCsACP7_domainSSvgTW', symObjAddr: 0xA38, symBinAddr: 0x5AF7C, symSize: 0x40 }
  - { offset: 0xC8053, size: 0x8, addend: 0x0, symName: '_$sSC9SKANErrorLeVs5ErrorSCsACP5_codeSivgTW', symObjAddr: 0xA78, symBinAddr: 0x5AFBC, symSize: 0x40 }
  - { offset: 0xC806E, size: 0x8, addend: 0x0, symName: '_$sSC9SKANErrorLeVs5ErrorSCsACP19_getEmbeddedNSErroryXlSgyFTW', symObjAddr: 0xABC, symBinAddr: 0x5B000, symSize: 0x40 }
  - { offset: 0xC8089, size: 0x8, addend: 0x0, symName: '_$sSC9SKANErrorLeVSQSCSQ2eeoiySbx_xtFZTW', symObjAddr: 0xAFC, symBinAddr: 0x5B040, symSize: 0x58 }
  - { offset: 0xC80AB, size: 0x8, addend: 0x0, symName: '_$sSo9SKANErrorVSYSCSY8rawValuexSg03RawC0Qz_tcfCTW', symObjAddr: 0x8B0, symBinAddr: 0x5ADF4, symSize: 0x10 }
  - { offset: 0xC8101, size: 0x8, addend: 0x0, symName: '_$sSo29UIApplicationLaunchOptionsKeyaSYSCSY8rawValue03RawF0QzvgTW', symObjAddr: 0x98C, symBinAddr: 0x5AED0, symSize: 0x28 }
  - { offset: 0xC82B9, size: 0x8, addend: 0x0, symName: '_$s5AHSDK26ATEParamDecorationOperatorV7execute5eventAA5EventVSgAH_tF', symObjAddr: 0x0, symBinAddr: 0x5B75C, symSize: 0x3C }
  - { offset: 0xC83E5, size: 0x8, addend: 0x0, symName: '_$s5AHSDK26ATEParamDecorationOperatorVMa', symObjAddr: 0x3D8, symBinAddr: 0x5BAF4, symSize: 0x10 }
  - { offset: 0xC83F8, size: 0x8, addend: 0x0, symName: '_$s5AHSDK5EventVSgWOg', symObjAddr: 0x3E8, symBinAddr: 0x5BB04, symSize: 0x18 }
  - { offset: 0xC840B, size: 0x8, addend: 0x0, symName: '_$s5AHSDK5EventVWOr', symObjAddr: 0x444, symBinAddr: 0x5BB1C, symSize: 0x138 }
  - { offset: 0xC841E, size: 0x8, addend: 0x0, symName: ___swift_destroy_boxed_opaque_existential_0, symObjAddr: 0x57C, symBinAddr: 0x5BC54, symSize: 0x20 }
  - { offset: 0xC8431, size: 0x8, addend: 0x0, symName: ___swift_project_boxed_opaque_existential_1, symObjAddr: 0x5A0, symBinAddr: 0x5BC74, symSize: 0x24 }
  - { offset: 0xC849E, size: 0x8, addend: 0x0, symName: '_$s5AHSDK26ATEParamDecorationOperatorV7execute5eventAA5EventVSgAH_tF', symObjAddr: 0x0, symBinAddr: 0x5B75C, symSize: 0x3C }
  - { offset: 0xC8518, size: 0x8, addend: 0x0, symName: '_$s5AHSDK26ATEParamDecorationOperatorV7execute5eventAA5EventVSgAH_tFTf4nd_n', symObjAddr: 0x7C, symBinAddr: 0x5B798, symSize: 0x35C }
  - { offset: 0xC876C, size: 0x8, addend: 0x0, symName: '_$s5AHSDK10ATTManagerV8providerAA16ATTrackingStatus_pvpZ', symObjAddr: 0x3818, symBinAddr: 0x23C288, symSize: 0x0 }
  - { offset: 0xC87D7, size: 0x8, addend: 0x0, symName: '_$s5AHSDK10ATTManagerV8provider_WZ', symObjAddr: 0x10, symBinAddr: 0x5BCA4, symSize: 0x30 }
  - { offset: 0xC87F1, size: 0x8, addend: 0x0, symName: '_$s5AHSDK10ATTManagerV8providerAA16ATTrackingStatus_pvau', symObjAddr: 0x40, symBinAddr: 0x5BCD4, symSize: 0x40 }
  - { offset: 0xC885B, size: 0x8, addend: 0x0, symName: '_$s5AHSDK10ATTManagerV8providerAA16ATTrackingStatus_pvpZACmTk', symObjAddr: 0x168, symBinAddr: 0x5BD88, symSize: 0x7C }
  - { offset: 0xC88D2, size: 0x8, addend: 0x0, symName: '_$s5AHSDK16ATTrackingStatus_pWOc', symObjAddr: 0x364, symBinAddr: 0x5BF80, symSize: 0x44 }
  - { offset: 0xC88E5, size: 0x8, addend: 0x0, symName: '_$s5AHSDK11ATTProviderVMi', symObjAddr: 0x3DC, symBinAddr: 0x5BFD4, symSize: 0x8 }
  - { offset: 0xC88F8, size: 0x8, addend: 0x0, symName: '_$s5AHSDK11ATTProviderVMa', symObjAddr: 0x3E4, symBinAddr: 0x5BFDC, symSize: 0xC }
  - { offset: 0xC890B, size: 0x8, addend: 0x0, symName: '_$s5AHSDK10ATTManagerVMa', symObjAddr: 0x3F0, symBinAddr: 0x5BFE8, symSize: 0x10 }
  - { offset: 0xC891E, size: 0x8, addend: 0x0, symName: ___swift_assign_boxed_opaque_existential_1, symObjAddr: 0x400, symBinAddr: 0x5BFF8, symSize: 0x160 }
  - { offset: 0xC8931, size: 0x8, addend: 0x0, symName: ___swift_instantiateGenericMetadata, symObjAddr: 0x5A4, symBinAddr: 0x5C158, symSize: 0x2C }
  - { offset: 0xC8945, size: 0x8, addend: 0x0, symName: '_$s5AHSDK11ATTProviderV24advertiserTrackingStatusAA011AdvertisingdE0Ovg', symObjAddr: 0x0, symBinAddr: 0x5BC98, symSize: 0x4 }
  - { offset: 0xC898B, size: 0x8, addend: 0x0, symName: '_$s5AHSDK11ATTProviderVyxGAA16ATTrackingStatusA2aEP018advertiserTrackingD0AA011AdvertisingfD0OvgTW', symObjAddr: 0x8, symBinAddr: 0x5BC9C, symSize: 0x8 }
  - { offset: 0xC89A2, size: 0x8, addend: 0x0, symName: '_$s5AHSDK11ATTProviderVyxGAA16ATTrackingStatusA2aEP018advertiserTrackingD0AA011AdvertisingfD0OvgTW', symObjAddr: 0x8, symBinAddr: 0x5BC9C, symSize: 0x8 }
  - { offset: 0xC89BE, size: 0x8, addend: 0x0, symName: '_$s5AHSDK10ATTManagerV8providerAA16ATTrackingStatus_pvgZ', symObjAddr: 0x80, symBinAddr: 0x5BD14, symSize: 0x74 }
  - { offset: 0xC89DD, size: 0x8, addend: 0x0, symName: '_$s5AHSDK10ATTManagerV24advertiserTrackingStatusAA011AdvertisingdE0OvgZ', symObjAddr: 0x1E4, symBinAddr: 0x5BE04, symSize: 0xDC }
  - { offset: 0xC8A40, size: 0x8, addend: 0x0, symName: '_$s5AHSDK11ATTProviderV24advertiserTrackingStatusAA011AdvertisingdE0OvgTf4d_n', symObjAddr: 0x2C4, symBinAddr: 0x5BEE0, symSize: 0xA0 }
  - { offset: 0xC8BC1, size: 0x8, addend: 0x0, symName: '_$s5AHSDK35AdvertiserIDParamDecorationOperatorV7execute5eventAA5EventVSgAH_tF', symObjAddr: 0x0, symBinAddr: 0x5C184, symSize: 0x3C }
  - { offset: 0xC8BE4, size: 0x8, addend: 0x0, symName: '_$s5AHSDK35AdvertiserIDParamDecorationOperatorV13_advertiserIDSSSgvpZ', symObjAddr: 0x3378, symBinAddr: 0x23C2B0, symSize: 0x0 }
  - { offset: 0xC8C53, size: 0x8, addend: 0x0, symName: '_$s5AHSDK35AdvertiserIDParamDecorationOperatorV12advertiserIDSSSgvgZ', symObjAddr: 0x3C, symBinAddr: 0x5C1C0, symSize: 0x4 }
  - { offset: 0xC8C67, size: 0x8, addend: 0x0, symName: '_$s5AHSDK35AdvertiserIDParamDecorationOperatorV13_advertiserIDSSSgvau', symObjAddr: 0x80, symBinAddr: 0x5C1C4, symSize: 0xC }
  - { offset: 0xC8C84, size: 0x8, addend: 0x0, symName: '_$s5AHSDK35AdvertiserIDParamDecorationOperatorV13_advertiserIDSSSgvgZ', symObjAddr: 0x8C, symBinAddr: 0x5C1D0, symSize: 0x50 }
  - { offset: 0xC8C9F, size: 0x8, addend: 0x0, symName: '_$s5AHSDK35AdvertiserIDParamDecorationOperatorV13_advertiserIDSSSgvsZ', symObjAddr: 0xDC, symBinAddr: 0x5C220, symSize: 0x58 }
  - { offset: 0xC8CBA, size: 0x8, addend: 0x0, symName: '_$s5AHSDK35AdvertiserIDParamDecorationOperatorV13_advertiserIDSSSgvMZ', symObjAddr: 0x134, symBinAddr: 0x5C278, symSize: 0x40 }
  - { offset: 0xC8CD5, size: 0x8, addend: 0x0, symName: '_$s5AHSDK35AdvertiserIDParamDecorationOperatorV13_advertiserIDSSSgvMZ.resume.0', symObjAddr: 0x174, symBinAddr: 0x5C2B8, symSize: 0x4 }
  - { offset: 0xC8D01, size: 0x8, addend: 0x0, symName: '_$s5AHSDK35AdvertiserIDParamDecorationOperatorV12advertiserIDSSSgvgZTf4d_n', symObjAddr: 0x178, symBinAddr: 0x5C2BC, symSize: 0x180 }
  - { offset: 0xC8D51, size: 0x8, addend: 0x0, symName: '_$s5AHSDK35AdvertiserIDParamDecorationOperatorVMa', symObjAddr: 0x3F4, symBinAddr: 0x5C538, symSize: 0x10 }
  - { offset: 0xC8DA9, size: 0x8, addend: 0x0, symName: '_$s5AHSDK35AdvertiserIDParamDecorationOperatorV7execute5eventAA5EventVSgAH_tF', symObjAddr: 0x0, symBinAddr: 0x5C184, symSize: 0x3C }
  - { offset: 0xC8DD4, size: 0x8, addend: 0x0, symName: '_$s5AHSDK35AdvertiserIDParamDecorationOperatorV7execute5eventAA5EventVSgAH_tFTf4nd_n', symObjAddr: 0x2F8, symBinAddr: 0x5C43C, symSize: 0xFC }
  - { offset: 0xC8FED, size: 0x8, addend: 0x0, symName: '_$s5AHSDK25AdvertisingTrackingStatusOSHAASQWb', symObjAddr: 0x28, symBinAddr: 0x5C558, symSize: 0x4 }
  - { offset: 0xC9000, size: 0x8, addend: 0x0, symName: '_$s5AHSDK25AdvertisingTrackingStatusOACSQAAWl', symObjAddr: 0x2C, symBinAddr: 0x5C55C, symSize: 0x40 }
  - { offset: 0xC901D, size: 0x8, addend: 0x0, symName: '_$s5AHSDK25AdvertisingTrackingStatusOMa', symObjAddr: 0x140, symBinAddr: 0x5C664, symSize: 0x10 }
  - { offset: 0xC9093, size: 0x8, addend: 0x0, symName: '_$s5AHSDK25AdvertisingTrackingStatusOSHAASH9hashValueSivgTW', symObjAddr: 0x6C, symBinAddr: 0x5C59C, symSize: 0x44 }
  - { offset: 0xC9126, size: 0x8, addend: 0x0, symName: '_$s5AHSDK25AdvertisingTrackingStatusOSHAASH4hash4intoys6HasherVz_tFTW', symObjAddr: 0xB0, symBinAddr: 0x5C5E0, symSize: 0x28 }
  - { offset: 0xC9161, size: 0x8, addend: 0x0, symName: '_$s5AHSDK25AdvertisingTrackingStatusOSHAASH13_rawHashValue4seedS2i_tFTW', symObjAddr: 0xD8, symBinAddr: 0x5C608, symSize: 0x40 }
  - { offset: 0xC91CB, size: 0x8, addend: 0x0, symName: '_$s5AHSDK25AdvertisingTrackingStatusO8rawValueACSgSu_tcfC', symObjAddr: 0x4, symBinAddr: 0x5C548, symSize: 0x10 }
  - { offset: 0xC920A, size: 0x8, addend: 0x0, symName: '_$s5AHSDK25AdvertisingTrackingStatusOSYAASY8rawValuexSg03RawF0Qz_tcfCTW', symObjAddr: 0x118, symBinAddr: 0x5C648, symSize: 0x1C }
  - { offset: 0xC9504, size: 0x8, addend: 0x0, symName: '_$s5AHSDK6AnonIDVSeAASe4fromxs7Decoder_p_tKcfCTW', symObjAddr: 0x34, symBinAddr: 0x5C6A4, symSize: 0x114 }
  - { offset: 0xC9558, size: 0x8, addend: 0x0, symName: '_$s5AHSDK6AnonIDV4fromACs7Decoder_p_tKcfC', symObjAddr: 0x148, symBinAddr: 0x5C7B8, symSize: 0xFC }
  - { offset: 0xC958C, size: 0x8, addend: 0x0, symName: '_$s5AHSDK6AnonIDV10CodingKeysOAEs0D3KeyAAWl', symObjAddr: 0x2AC, symBinAddr: 0x5C8B4, symSize: 0x40 }
  - { offset: 0xC95ED, size: 0x8, addend: 0x0, symName: '_$s5AHSDK6AnonIDVSEAASE6encode2toys7Encoder_p_tKFTW', symObjAddr: 0x30C, symBinAddr: 0x5C8F4, symSize: 0xDC }
  - { offset: 0xC9637, size: 0x8, addend: 0x0, symName: '_$s5AHSDK6AnonIDV6encode2toys7Encoder_p_tKF', symObjAddr: 0x3E8, symBinAddr: 0x5C9D0, symSize: 0xE0 }
  - { offset: 0xC966E, size: 0x8, addend: 0x0, symName: '_$s5AHSDK6AnonIDV10CodingKeysOSHAASQWb', symObjAddr: 0x58C, symBinAddr: 0x5CB4C, symSize: 0x4 }
  - { offset: 0xC9681, size: 0x8, addend: 0x0, symName: '_$s5AHSDK6AnonIDV10CodingKeysOAESQAAWl', symObjAddr: 0x590, symBinAddr: 0x5CB50, symSize: 0x40 }
  - { offset: 0xC969E, size: 0x8, addend: 0x0, symName: '_$s5AHSDK6AnonIDV10CodingKeysOs0D3KeyAAs28CustomDebugStringConvertiblePWb', symObjAddr: 0x704, symBinAddr: 0x5CCC4, symSize: 0x4 }
  - { offset: 0xC96B1, size: 0x8, addend: 0x0, symName: '_$s5AHSDK6AnonIDV10CodingKeysOAEs28CustomDebugStringConvertibleAAWl', symObjAddr: 0x708, symBinAddr: 0x5CCC8, symSize: 0x40 }
  - { offset: 0xC96C4, size: 0x8, addend: 0x0, symName: '_$s5AHSDK6AnonIDV10CodingKeysOs0D3KeyAAs23CustomStringConvertiblePWb', symObjAddr: 0x748, symBinAddr: 0x5CD08, symSize: 0x4 }
  - { offset: 0xC96D7, size: 0x8, addend: 0x0, symName: '_$s5AHSDK6AnonIDV10CodingKeysOAEs23CustomStringConvertibleAAWl', symObjAddr: 0x74C, symBinAddr: 0x5CD0C, symSize: 0x40 }
  - { offset: 0xC96EA, size: 0x8, addend: 0x0, symName: '_$s5AHSDK6AnonIDVwCP', symObjAddr: 0x874, symBinAddr: 0x5CE10, symSize: 0x2C }
  - { offset: 0xC96FD, size: 0x8, addend: 0x0, symName: '_$s5AHSDK6AnonIDVwxx', symObjAddr: 0x8A0, symBinAddr: 0x5CE3C, symSize: 0x8 }
  - { offset: 0xC9710, size: 0x8, addend: 0x0, symName: '_$s5AHSDK6AnonIDVwca', symObjAddr: 0x8A8, symBinAddr: 0x5CE44, symSize: 0x40 }
  - { offset: 0xC9723, size: 0x8, addend: 0x0, symName: ___swift_memcpy16_8, symObjAddr: 0x8E8, symBinAddr: 0x5CE84, symSize: 0xC }
  - { offset: 0xC9736, size: 0x8, addend: 0x0, symName: '_$s5AHSDK6AnonIDVwta', symObjAddr: 0x8F4, symBinAddr: 0x5CE90, symSize: 0x30 }
  - { offset: 0xC9749, size: 0x8, addend: 0x0, symName: '_$s5AHSDK6AnonIDVwet', symObjAddr: 0x924, symBinAddr: 0x5CEC0, symSize: 0x48 }
  - { offset: 0xC975C, size: 0x8, addend: 0x0, symName: '_$s5AHSDK6AnonIDVwst', symObjAddr: 0x96C, symBinAddr: 0x5CF08, symSize: 0x3C }
  - { offset: 0xC976F, size: 0x8, addend: 0x0, symName: '_$s5AHSDK6AnonIDVMa', symObjAddr: 0x9A8, symBinAddr: 0x5CF44, symSize: 0x10 }
  - { offset: 0xC9782, size: 0x8, addend: 0x0, symName: ___swift_memcpy0_1, symObjAddr: 0x9B8, symBinAddr: 0x5CF54, symSize: 0x4 }
  - { offset: 0xC9795, size: 0x8, addend: 0x0, symName: '_$s5AHSDK6AnonIDV10CodingKeysOwet', symObjAddr: 0x9C0, symBinAddr: 0x5CF58, symSize: 0x50 }
  - { offset: 0xC97A8, size: 0x8, addend: 0x0, symName: '_$s5AHSDK6AnonIDV10CodingKeysOwst', symObjAddr: 0xA10, symBinAddr: 0x5CFA8, symSize: 0x7C }
  - { offset: 0xC97BB, size: 0x8, addend: 0x0, symName: '_$s5AHSDK6AnonIDV10CodingKeysOMa', symObjAddr: 0xA9C, symBinAddr: 0x5D024, symSize: 0x10 }
  - { offset: 0xC987F, size: 0x8, addend: 0x0, symName: '_$s5AHSDK6AnonIDV10CodingKeysOSHAASH9hashValueSivgTW', symObjAddr: 0x5D0, symBinAddr: 0x5CB90, symSize: 0x50 }
  - { offset: 0xC9912, size: 0x8, addend: 0x0, symName: '_$s5AHSDK6AnonIDV10CodingKeysOSHAASH4hash4intoys6HasherVz_tFTW', symObjAddr: 0x620, symBinAddr: 0x5CBE0, symSize: 0x18 }
  - { offset: 0xC994D, size: 0x8, addend: 0x0, symName: '_$s5AHSDK6AnonIDV10CodingKeysOSHAASH13_rawHashValue4seedS2i_tFTW', symObjAddr: 0x638, symBinAddr: 0x5CBF8, symSize: 0x4C }
  - { offset: 0xC99BE, size: 0x8, addend: 0x0, symName: '_$s5AHSDK6AnonIDV10CodingKeysOs28CustomDebugStringConvertibleAAsAFP16debugDescriptionSSvgTW', symObjAddr: 0x824, symBinAddr: 0x5CDC0, symSize: 0x28 }
  - { offset: 0xC99D9, size: 0x8, addend: 0x0, symName: '_$s5AHSDK6AnonIDV10CodingKeysOs23CustomStringConvertibleAAsAFP11descriptionSSvgTW', symObjAddr: 0x84C, symBinAddr: 0x5CDE8, symSize: 0x28 }
  - { offset: 0xC99F6, size: 0x8, addend: 0x0, symName: '_$s5AHSDK6AnonIDV09anonymousC0SSvg', symObjAddr: 0x0, symBinAddr: 0x5C674, symSize: 0x30 }
  - { offset: 0xC9A30, size: 0x8, addend: 0x0, symName: '_$s5AHSDK6AnonIDV10CodingKeysO8intValueSiSgvg', symObjAddr: 0x548, symBinAddr: 0x5CB28, symSize: 0xC }
  - { offset: 0xC9A4F, size: 0x8, addend: 0x0, symName: '_$s5AHSDK6AnonIDV10CodingKeysO8rawValueSSvg', symObjAddr: 0x554, symBinAddr: 0x5CB34, symSize: 0x18 }
  - { offset: 0xC9A83, size: 0x8, addend: 0x0, symName: '_$s5AHSDK6AnonIDV10CodingKeysOSYAASY8rawValuexSg03RawG0Qz_tcfCTW', symObjAddr: 0x684, symBinAddr: 0x5CC44, symSize: 0x64 }
  - { offset: 0xC9ABF, size: 0x8, addend: 0x0, symName: '_$s5AHSDK6AnonIDV10CodingKeysOSYAASY8rawValue03RawG0QzvgTW', symObjAddr: 0x6E8, symBinAddr: 0x5CCA8, symSize: 0x1C }
  - { offset: 0xC9AE2, size: 0x8, addend: 0x0, symName: '_$s5AHSDK6AnonIDV10CodingKeysOs0D3KeyAAsAFP11stringValuexSgSS_tcfCTW', symObjAddr: 0x7A4, symBinAddr: 0x5CD4C, symSize: 0x68 }
  - { offset: 0xC9B33, size: 0x8, addend: 0x0, symName: '_$s5AHSDK6AnonIDV10CodingKeysOs0D3KeyAAsAFP8intValuexSgSi_tcfCTW', symObjAddr: 0x818, symBinAddr: 0x5CDB4, symSize: 0xC }
  - { offset: 0xC9C77, size: 0x8, addend: 0x0, symName: '_$s5AHSDK12AnonIDHelperV11anonymousIDSSvgZ', symObjAddr: 0x0, symBinAddr: 0x5D038, symSize: 0x4 }
  - { offset: 0xC9C9A, size: 0x8, addend: 0x0, symName: '_$s5AHSDK12AnonIDHelperV7_anonID33_8EF05A7EA43D4B2E1526103475FBF328LLSSSgvpZ', symObjAddr: 0xCB0, symBinAddr: 0x22F648, symSize: 0x0 }
  - { offset: 0xC9CB4, size: 0x8, addend: 0x0, symName: '_$s5AHSDK12AnonIDHelperV20ANONYMOUSID_FILENAMESSvpZ', symObjAddr: 0xE60, symBinAddr: 0x218778, symSize: 0x0 }
  - { offset: 0xC9CCE, size: 0x8, addend: 0x0, symName: '_$s5AHSDK12AnonIDHelperV20ANONYMOUSID_FILEPATHSSSgvpZ', symObjAddr: 0x67D8, symBinAddr: 0x23C2C0, symSize: 0x0 }
  - { offset: 0xC9D1D, size: 0x8, addend: 0x0, symName: '_$s5AHSDK12AnonIDHelperV04loadB2IDSSSgyFZ', symObjAddr: 0x4, symBinAddr: 0x5D03C, symSize: 0x4 }
  - { offset: 0xC9D31, size: 0x8, addend: 0x0, symName: '_$s5AHSDK12AnonIDHelperV04saveB2ID04anonE0ySS_tFZ', symObjAddr: 0x8, symBinAddr: 0x5D040, symSize: 0x4 }
  - { offset: 0xC9D45, size: 0x8, addend: 0x0, symName: '_$s5AHSDK12AnonIDHelperV20ANONYMOUSID_FILENAMESSvau', symObjAddr: 0x10, symBinAddr: 0x5D044, symSize: 0xC }
  - { offset: 0xC9D63, size: 0x8, addend: 0x0, symName: '_$s5AHSDK12AnonIDHelperV20ANONYMOUSID_FILENAMESSvgZ', symObjAddr: 0x1C, symBinAddr: 0x5D050, symSize: 0x1C }
  - { offset: 0xC9D8C, size: 0x8, addend: 0x0, symName: '_$s5AHSDK12AnonIDHelperV20ANONYMOUSID_FILEPATH_WZ', symObjAddr: 0x38, symBinAddr: 0x5D06C, symSize: 0x38 }
  - { offset: 0xC9DBB, size: 0x8, addend: 0x0, symName: '_$s5AHSDK12AnonIDHelperV20ANONYMOUSID_FILEPATHSSSgvau', symObjAddr: 0x70, symBinAddr: 0x5D0A4, symSize: 0x40 }
  - { offset: 0xC9DDE, size: 0x8, addend: 0x0, symName: '_$s5AHSDK12AnonIDHelperV20ANONYMOUSID_FILEPATHSSSgvgZ', symObjAddr: 0xB0, symBinAddr: 0x5D0E4, symSize: 0x5C }
  - { offset: 0xC9E06, size: 0x8, addend: 0x0, symName: '_$s5AHSDK12AnonIDHelperV05clearB2IDyyFZ', symObjAddr: 0x10C, symBinAddr: 0x5D140, symSize: 0x14 }
  - { offset: 0xC9E72, size: 0x8, addend: 0x0, symName: '_$s5AHSDK12AnonIDHelperV19persistenceFilePath33_8EF05A7EA43D4B2E1526103475FBF328LLySSSgSSFZTf4nd_n', symObjAddr: 0x120, symBinAddr: 0x5D154, symSize: 0x10C }
  - { offset: 0xC9FBE, size: 0x8, addend: 0x0, symName: '_$s5AHSDK12AnonIDHelperV04loadB2IDSSSgyFZTf4d_n', symObjAddr: 0x22C, symBinAddr: 0x5D260, symSize: 0x290 }
  - { offset: 0xCA14D, size: 0x8, addend: 0x0, symName: '_$s5AHSDK12AnonIDHelperV04saveB2ID04anonE0ySS_tFZTf4nd_n', symObjAddr: 0x4BC, symBinAddr: 0x5D4F0, symSize: 0x450 }
  - { offset: 0xCA3B1, size: 0x8, addend: 0x0, symName: '_$s5AHSDK12AnonIDHelperVMa', symObjAddr: 0xA68, symBinAddr: 0x5DA9C, symSize: 0x10 }
  - { offset: 0xCA3C4, size: 0x8, addend: 0x0, symName: '_$s5AHSDK6AnonIDVACSEAAWl', symObjAddr: 0xA78, symBinAddr: 0x5DAAC, symSize: 0x40 }
  - { offset: 0xCA3D7, size: 0x8, addend: 0x0, symName: '_$s10Foundation4DataV15_RepresentationOWOy', symObjAddr: 0xAB8, symBinAddr: 0x5DAEC, symSize: 0x40 }
  - { offset: 0xCA3EA, size: 0x8, addend: 0x0, symName: '_$s10Foundation4DataV15_RepresentationOWOe', symObjAddr: 0xAF8, symBinAddr: 0x5DB2C, symSize: 0x40 }
  - { offset: 0xCA3FD, size: 0x8, addend: 0x0, symName: '_$sS2SSysWl', symObjAddr: 0xB38, symBinAddr: 0x5DB6C, symSize: 0x40 }
  - { offset: 0xCA410, size: 0x8, addend: 0x0, symName: '_$s5AHSDK6AnonIDVSgxSgSesSeRzlWl', symObjAddr: 0xBBC, symBinAddr: 0x5DBAC, symSize: 0x68 }
  - { offset: 0xCA423, size: 0x8, addend: 0x0, symName: ___swift_instantiateConcreteTypeFromMangledNameAbstract, symObjAddr: 0xC24, symBinAddr: 0x5DC14, symSize: 0x48 }
  - { offset: 0xCA436, size: 0x8, addend: 0x0, symName: '_$s5AHSDK6AnonIDVACSeAAWl', symObjAddr: 0xC6C, symBinAddr: 0x5DC5C, symSize: 0x40 }
  - { offset: 0xCA547, size: 0x8, addend: 0x0, symName: '_$s5AHSDK12AnonIDHelperV11anonymousIDSSvgZ', symObjAddr: 0x0, symBinAddr: 0x5D038, symSize: 0x4 }
  - { offset: 0xCA5F5, size: 0x8, addend: 0x0, symName: '_$s5AHSDK12AnonIDHelperV11anonymousIDSSvgZTf4d_n', symObjAddr: 0x90C, symBinAddr: 0x5D940, symSize: 0x15C }
  - { offset: 0xCA81B, size: 0x8, addend: 0x0, symName: '_$s5AHSDK29AnonIDParamDecorationOperatorV7execute5eventAA5EventVSgAH_tF', symObjAddr: 0x0, symBinAddr: 0x5DC9C, symSize: 0xFC }
  - { offset: 0xCA893, size: 0x8, addend: 0x0, symName: '_$s5AHSDK29AnonIDParamDecorationOperatorVMa', symObjAddr: 0x370, symBinAddr: 0x5DD98, symSize: 0x10 }
  - { offset: 0xCA931, size: 0x8, addend: 0x0, symName: '_$s5AHSDK29AnonIDParamDecorationOperatorV7execute5eventAA5EventVSgAH_tF', symObjAddr: 0x0, symBinAddr: 0x5DC9C, symSize: 0xFC }
  - { offset: 0xCAAD2, size: 0x8, addend: 0x0, symName: '_$s5AHSDK21AppEventParameterNameO8rawValueSSvg', symObjAddr: 0x0, symBinAddr: 0x5DDA8, symSize: 0x540 }
  - { offset: 0xCAB1E, size: 0x8, addend: 0x0, symName: '_$s5AHSDK21AppEventParameterNameOSQAASQ2eeoiySbx_xtFZTW', symObjAddr: 0x544, symBinAddr: 0x5E2EC, symSize: 0x84 }
  - { offset: 0xCABCF, size: 0x8, addend: 0x0, symName: '_$s5AHSDK21AppEventParameterNameOSHAASH9hashValueSivgTW', symObjAddr: 0x5C8, symBinAddr: 0x5E370, symSize: 0x60 }
  - { offset: 0xCAC45, size: 0x8, addend: 0x0, symName: '_$s5AHSDK21AppEventParameterNameOSHAASH4hash4intoys6HasherVz_tFTW', symObjAddr: 0x628, symBinAddr: 0x5E3D0, symSize: 0x40 }
  - { offset: 0xCAC93, size: 0x8, addend: 0x0, symName: '_$s5AHSDK21AppEventParameterNameOSHAASH13_rawHashValue4seedS2i_tFTW', symObjAddr: 0x668, symBinAddr: 0x5E410, symSize: 0x5C }
  - { offset: 0xCAD94, size: 0x8, addend: 0x0, symName: '_$s5AHSDK21AppEventParameterNameOSHAASQWb', symObjAddr: 0x77C, symBinAddr: 0x5E524, symSize: 0x4 }
  - { offset: 0xCADA7, size: 0x8, addend: 0x0, symName: '_$s5AHSDK21AppEventParameterNameOACSQAAWl', symObjAddr: 0x780, symBinAddr: 0x5E528, symSize: 0x40 }
  - { offset: 0xCADBA, size: 0x8, addend: 0x0, symName: '_$s5AHSDK21AppEventParameterNameOwet', symObjAddr: 0x7D0, symBinAddr: 0x5E568, symSize: 0x90 }
  - { offset: 0xCADCD, size: 0x8, addend: 0x0, symName: '_$s5AHSDK21AppEventParameterNameOwst', symObjAddr: 0x860, symBinAddr: 0x5E5F8, symSize: 0xB0 }
  - { offset: 0xCADE0, size: 0x8, addend: 0x0, symName: '_$s5AHSDK21AppEventParameterNameOwui', symObjAddr: 0x91C, symBinAddr: 0x5E6A8, symSize: 0x8 }
  - { offset: 0xCADF3, size: 0x8, addend: 0x0, symName: '_$s5AHSDK21AppEventParameterNameOMa', symObjAddr: 0x924, symBinAddr: 0x5E6B0, symSize: 0x10 }
  - { offset: 0xCAE07, size: 0x8, addend: 0x0, symName: '_$s5AHSDK21AppEventParameterNameO8rawValueSSvg', symObjAddr: 0x0, symBinAddr: 0x5DDA8, symSize: 0x540 }
  - { offset: 0xCAFCA, size: 0x8, addend: 0x0, symName: '_$s5AHSDK21AppEventParameterNameO8rawValueACSgSS_tcfC', symObjAddr: 0x540, symBinAddr: 0x5E2E8, symSize: 0x4 }
  - { offset: 0xCAFF5, size: 0x8, addend: 0x0, symName: '_$s5AHSDK21AppEventParameterNameOSYAASY8rawValuexSg03RawG0Qz_tcfCTW', symObjAddr: 0x6C4, symBinAddr: 0x5E46C, symSize: 0x2C }
  - { offset: 0xCB01D, size: 0x8, addend: 0x0, symName: '_$s5AHSDK21AppEventParameterNameOSYAASY8rawValue03RawG0QzvgTW', symObjAddr: 0x6F0, symBinAddr: 0x5E498, symSize: 0x28 }
  - { offset: 0xCB036, size: 0x8, addend: 0x0, symName: '_$s5AHSDK21AppEventParameterNameO8rawValueACSgSS_tcfCTf4nd_n', symObjAddr: 0x718, symBinAddr: 0x5E4C0, symSize: 0x64 }
  - { offset: 0xCB19C, size: 0x8, addend: 0x0, symName: '_$s5AHSDK20AppEventUserDataTypeO8rawValueSSvg', symObjAddr: 0x0, symBinAddr: 0x5E6C0, symSize: 0x144 }
  - { offset: 0xCB254, size: 0x8, addend: 0x0, symName: '_$s5AHSDK20AppEventUserDataTypeOSHAASQWb', symObjAddr: 0x6A4, symBinAddr: 0x5ED64, symSize: 0x4 }
  - { offset: 0xCB267, size: 0x8, addend: 0x0, symName: '_$s5AHSDK20AppEventUserDataTypeOACSQAAWl', symObjAddr: 0x6A8, symBinAddr: 0x5ED68, symSize: 0x40 }
  - { offset: 0xCB27A, size: 0x8, addend: 0x0, symName: '_$s5AHSDK20AppEventUserDataTypeOMa', symObjAddr: 0x6E8, symBinAddr: 0x5EDA8, symSize: 0x10 }
  - { offset: 0xCB2BF, size: 0x8, addend: 0x0, symName: '_$s5AHSDK20AppEventUserDataTypeOSQAASQ2eeoiySbx_xtFZTW', symObjAddr: 0x15C, symBinAddr: 0x5E81C, symSize: 0x84 }
  - { offset: 0xCB380, size: 0x8, addend: 0x0, symName: '_$s5AHSDK20AppEventUserDataTypeOSHAASH9hashValueSivgTW', symObjAddr: 0x1E0, symBinAddr: 0x5E8A0, symSize: 0x60 }
  - { offset: 0xCB40E, size: 0x8, addend: 0x0, symName: '_$s5AHSDK20AppEventUserDataTypeOSHAASH4hash4intoys6HasherVz_tFTW', symObjAddr: 0x240, symBinAddr: 0x5E900, symSize: 0x40 }
  - { offset: 0xCB45C, size: 0x8, addend: 0x0, symName: '_$s5AHSDK20AppEventUserDataTypeOSHAASH13_rawHashValue4seedS2i_tFTW', symObjAddr: 0x280, symBinAddr: 0x5E940, symSize: 0x5C }
  - { offset: 0xCB4CB, size: 0x8, addend: 0x0, symName: '_$s5AHSDK20AppEventUserDataTypeO8rawValueSSvg', symObjAddr: 0x0, symBinAddr: 0x5E6C0, symSize: 0x144 }
  - { offset: 0xCB4F6, size: 0x8, addend: 0x0, symName: '_$s5AHSDK20AppEventUserDataTypeO8rawValueACSgSS_tcfC', symObjAddr: 0x144, symBinAddr: 0x5E804, symSize: 0x18 }
  - { offset: 0xCB521, size: 0x8, addend: 0x0, symName: '_$s5AHSDK20AppEventUserDataTypeOSYAASY8rawValuexSg03RawH0Qz_tcfCTW', symObjAddr: 0x2DC, symBinAddr: 0x5E99C, symSize: 0x34 }
  - { offset: 0xCB54A, size: 0x8, addend: 0x0, symName: '_$s5AHSDK20AppEventUserDataTypeOSYAASY8rawValue03RawH0QzvgTW', symObjAddr: 0x310, symBinAddr: 0x5E9D0, symSize: 0x28 }
  - { offset: 0xCB55D, size: 0x8, addend: 0x0, symName: '_$s5AHSDK20AppEventUserDataTypeO8rawValueACSgSS_tcfCTf4nd_n', symObjAddr: 0x338, symBinAddr: 0x5E9F8, symSize: 0x36C }
  - { offset: 0xCB897, size: 0x8, addend: 0x0, symName: '_$s5AHSDK17AppEventsInternalC6sharedACvpZ', symObjAddr: 0x1B768, symBinAddr: 0x23C2D0, symSize: 0x0 }
  - { offset: 0xCBC99, size: 0x8, addend: 0x0, symName: '_$s5AHSDK17AppEventsInternalC6shared_WZ', symObjAddr: 0x4, symBinAddr: 0x5EDBC, symSize: 0x38 }
  - { offset: 0xCBCC8, size: 0x8, addend: 0x0, symName: '_$s5AHSDK17AppEventsInternalC6sharedACvau', symObjAddr: 0x70, symBinAddr: 0x5EE28, symSize: 0x40 }
  - { offset: 0xCBD1C, size: 0x8, addend: 0x0, symName: '_$s5AHSDK17AppEventsInternalC15lastSuspendDate10Foundation0G0VSgvpACTk', symObjAddr: 0x350, symBinAddr: 0x5F104, symSize: 0x74 }
  - { offset: 0xCBF00, size: 0x8, addend: 0x0, symName: '_$sSo7NSTimerCIeghg_ABIeyBhy_TR', symObjAddr: 0xD3C, symBinAddr: 0x5FAF0, symSize: 0x4C }
  - { offset: 0xCC24B, size: 0x8, addend: 0x0, symName: '_$s5AHSDK17AppEventsInternalC32didObserveProcessedPurchaseEventyyAA0hI0VF', symObjAddr: 0x2574, symBinAddr: 0x612A0, symSize: 0x1E0 }
  - { offset: 0xCC373, size: 0x8, addend: 0x0, symName: '_$s5AHSDK17AppEventsInternalCAA25PurchaseObservingProtocolA2aDP019didObserveProcessedE5EventyyAA0eK0VFTW', symObjAddr: 0x2754, symBinAddr: 0x61480, symSize: 0x20 }
  - { offset: 0xCC4C9, size: 0x8, addend: 0x0, symName: '_$s5AHSDK11MemoryCacheC3set_6forKeyAA0C5ErrorOyxGq__xtFSS_ypTg5', symObjAddr: 0x2774, symBinAddr: 0x614A0, symSize: 0x24C }
  - { offset: 0xCC759, size: 0x8, addend: 0x0, symName: '_$s5AHSDK10CacheErrorOySSGWOe', symObjAddr: 0x29E0, symBinAddr: 0x616EC, symSize: 0x40 }
  - { offset: 0xCC76D, size: 0x8, addend: 0x0, symName: '_$s5AHSDK17AppEventsInternalC10startTimeryyFySo7NSTimerCYbcfU_TA', symObjAddr: 0x2A20, symBinAddr: 0x6172C, symSize: 0x8 }
  - { offset: 0xCC781, size: 0x8, addend: 0x0, symName: _block_copy_helper, symObjAddr: 0x2A28, symBinAddr: 0x61734, symSize: 0x10 }
  - { offset: 0xCC795, size: 0x8, addend: 0x0, symName: _block_destroy_helper, symObjAddr: 0x2A38, symBinAddr: 0x61744, symSize: 0x8 }
  - { offset: 0xCC7BA, size: 0x8, addend: 0x0, symName: '_$sxIeAgHr_xs5Error_pIegHrzo_s8SendableRzs5NeverORs_r0_lTRytSg_TG5', symObjAddr: 0x2A40, symBinAddr: 0x6174C, symSize: 0x68 }
  - { offset: 0xCC7EB, size: 0x8, addend: 0x0, symName: '_$sxIeAgHr_xs5Error_pIegHrzo_s8SendableRzs5NeverORs_r0_lTRytSg_TG5TQ0_', symObjAddr: 0x2AA8, symBinAddr: 0x617B4, symSize: 0x54 }
  - { offset: 0xCC934, size: 0x8, addend: 0x0, symName: '_$s5AHSDK13PurchaseEventVSgWOs', symObjAddr: 0x31B4, symBinAddr: 0x61EC0, symSize: 0x38 }
  - { offset: 0xCC947, size: 0x8, addend: 0x0, symName: '_$s5AHSDK13PurchaseEventVSgWOe', symObjAddr: 0x31EC, symBinAddr: 0x61EF8, symSize: 0x40 }
  - { offset: 0xCCCEA, size: 0x8, addend: 0x0, symName: '_$sS2cMScAsWl', symObjAddr: 0x4194, symBinAddr: 0x62EA0, symSize: 0x44 }
  - { offset: 0xCCCFE, size: 0x8, addend: 0x0, symName: '_$s5AHSDK17AppEventsInternalC5flushyyFyyYacfU_TA', symObjAddr: 0x41DC, symBinAddr: 0x62EE8, symSize: 0x74 }
  - { offset: 0xCCD11, size: 0x8, addend: 0x0, symName: '_$s5AHSDK17AppEventsInternalCMa', symObjAddr: 0x427C, symBinAddr: 0x62F88, symSize: 0x20 }
  - { offset: 0xCCD24, size: 0x8, addend: 0x0, symName: '_$sSi_5AHSDK12TelemetryLogVtWOr', symObjAddr: 0x4324, symBinAddr: 0x62FBC, symSize: 0xB8 }
  - { offset: 0xCCD37, size: 0x8, addend: 0x0, symName: '_$s5AHSDK16TelemetrySignalsVSgWOy', symObjAddr: 0x43DC, symBinAddr: 0x63074, symSize: 0x14 }
  - { offset: 0xCCD4B, size: 0x8, addend: 0x0, symName: '_$sxIeAgHr_xs5Error_pIegHrzo_s8SendableRzs5NeverORs_r0_lTRytSg_TG5TA', symObjAddr: 0x43F0, symBinAddr: 0x63088, symSize: 0x78 }
  - { offset: 0xCCD5F, size: 0x8, addend: 0x0, symName: '_$sxIeAgHr_xs5Error_pIegHrzo_s8SendableRzs5NeverORs_r0_lTRytSg_TG5TATQ0_', symObjAddr: 0x4468, symBinAddr: 0x63100, symSize: 0x48 }
  - { offset: 0xCCD72, size: 0x8, addend: 0x0, symName: '_$sSS_5AHSDK11DynamicJSONVtWOr', symObjAddr: 0x44B0, symBinAddr: 0x63148, symSize: 0x70 }
  - { offset: 0xCCD85, size: 0x8, addend: 0x0, symName: '_$ss8Sendable_pWOb', symObjAddr: 0x4520, symBinAddr: 0x631B8, symSize: 0x10 }
  - { offset: 0xCCD98, size: 0x8, addend: 0x0, symName: '_$sSS_5AHSDK22AppEventsConfigurationVtWOr', symObjAddr: 0x4530, symBinAddr: 0x631C8, symSize: 0x114 }
  - { offset: 0xCCDAC, size: 0x8, addend: 0x0, symName: '_$sxIeAgHr_xs5Error_pIegHrzo_s8SendableRzs5NeverORs_r0_lTRyt_Tg5TA', symObjAddr: 0x4668, symBinAddr: 0x63300, symSize: 0x78 }
  - { offset: 0xCCDBF, size: 0x8, addend: 0x0, symName: '_$s5AHSDK15EventQueueErrorOACs0D0AAWl', symObjAddr: 0x46E0, symBinAddr: 0x63378, symSize: 0x40 }
  - { offset: 0xCCDD2, size: 0x8, addend: 0x0, symName: '_$s5AHSDK15EventQueueErrorOWOe', symObjAddr: 0x4720, symBinAddr: 0x633B8, symSize: 0x4C }
  - { offset: 0xCCDE5, size: 0x8, addend: 0x0, symName: '_$s5AHSDK12NetworkErrorOWOe', symObjAddr: 0x476C, symBinAddr: 0x63404, symSize: 0x44 }
  - { offset: 0xCCDF8, size: 0x8, addend: 0x0, symName: '_$s5AHSDK5EventVWOs', symObjAddr: 0x47B0, symBinAddr: 0x63448, symSize: 0x144 }
  - { offset: 0xCCE0B, size: 0x8, addend: 0x0, symName: '_$s5AHSDK16ObserverProtocol_pWOb', symObjAddr: 0x4930, symBinAddr: 0x635C8, symSize: 0x18 }
